
Fans_controller_F303_Cube.elf:     file format elf32-littlearm

Sections:
Idx Name          Size      VMA       LMA       File off  Algn
  0 .isr_vector   00000188  08000000  08000000  00010000  2**0
                  CONTENTS, ALLOC, LOAD, READONLY, DATA
  1 .text         00008380  08000190  08000190  00010190  2**4
                  CONTENTS, ALLOC, LOAD, READONLY, CODE
  2 .rodata       00000b50  08008510  08008510  00018510  2**2
                  CONTENTS, ALLOC, LOAD, READONLY, DATA
  3 .ARM.extab    00000000  08009060  08009060  0002008c  2**0
                  CONTENTS
  4 .ARM          00000000  08009060  08009060  0002008c  2**0
                  CONTENTS
  5 .preinit_array 00000000  08009060  08009060  0002008c  2**0
                  CONTENTS, ALLOC, LOAD, DATA
  6 .init_array   00000004  08009060  08009060  00019060  2**2
                  CONTENTS, ALLOC, LOAD, DATA
  7 .fini_array   00000004  08009064  08009064  00019064  2**2
                  CONTENTS, ALLOC, LOAD, DATA
  8 .data         0000008c  20000000  08009068  00020000  2**2
                  CONTENTS, ALLOC, LOAD, DATA
  9 .ccmram       00000000  10000000  10000000  0002008c  2**0
                  CONTENTS
 10 .bss          00002dcc  20000090  20000090  00020090  2**3
                  ALLOC
 11 ._user_heap_stack 00001004  20002e5c  20002e5c  00020090  2**0
                  ALLOC
 12 .ARM.attributes 00000030  00000000  00000000  0002008c  2**0
                  CONTENTS, READONLY
 13 .comment      00000053  00000000  00000000  000200bc  2**0
                  CONTENTS, READONLY
 14 .debug_frame  00000444  00000000  00000000  00020110  2**2
                  CONTENTS, READONLY, DEBUGGING, OCTETS

Disassembly of section .text:

08000190 <__do_global_dtors_aux>:
 8000190:	b510      	push	{r4, lr}
 8000192:	4c05      	ldr	r4, [pc, #20]	; (80001a8 <__do_global_dtors_aux+0x18>)
 8000194:	7823      	ldrb	r3, [r4, #0]
 8000196:	b933      	cbnz	r3, 80001a6 <__do_global_dtors_aux+0x16>
 8000198:	4b04      	ldr	r3, [pc, #16]	; (80001ac <__do_global_dtors_aux+0x1c>)
 800019a:	b113      	cbz	r3, 80001a2 <__do_global_dtors_aux+0x12>
 800019c:	4804      	ldr	r0, [pc, #16]	; (80001b0 <__do_global_dtors_aux+0x20>)
 800019e:	f3af 8000 	nop.w
 80001a2:	2301      	movs	r3, #1
 80001a4:	7023      	strb	r3, [r4, #0]
 80001a6:	bd10      	pop	{r4, pc}
 80001a8:	20000090 	.word	0x20000090
 80001ac:	00000000 	.word	0x00000000
 80001b0:	080084f8 	.word	0x080084f8

080001b4 <frame_dummy>:
 80001b4:	b508      	push	{r3, lr}
 80001b6:	4b03      	ldr	r3, [pc, #12]	; (80001c4 <frame_dummy+0x10>)
 80001b8:	b11b      	cbz	r3, 80001c2 <frame_dummy+0xe>
 80001ba:	4903      	ldr	r1, [pc, #12]	; (80001c8 <frame_dummy+0x14>)
 80001bc:	4803      	ldr	r0, [pc, #12]	; (80001cc <frame_dummy+0x18>)
 80001be:	f3af 8000 	nop.w
 80001c2:	bd08      	pop	{r3, pc}
 80001c4:	00000000 	.word	0x00000000
 80001c8:	20000094 	.word	0x20000094
 80001cc:	080084f8 	.word	0x080084f8

080001d0 <memchr>:
 80001d0:	f001 01ff 	and.w	r1, r1, #255	; 0xff
 80001d4:	2a10      	cmp	r2, #16
 80001d6:	db2b      	blt.n	8000230 <memchr+0x60>
 80001d8:	f010 0f07 	tst.w	r0, #7
 80001dc:	d008      	beq.n	80001f0 <memchr+0x20>
 80001de:	f810 3b01 	ldrb.w	r3, [r0], #1
 80001e2:	3a01      	subs	r2, #1
 80001e4:	428b      	cmp	r3, r1
 80001e6:	d02d      	beq.n	8000244 <memchr+0x74>
 80001e8:	f010 0f07 	tst.w	r0, #7
 80001ec:	b342      	cbz	r2, 8000240 <memchr+0x70>
 80001ee:	d1f6      	bne.n	80001de <memchr+0xe>
 80001f0:	b4f0      	push	{r4, r5, r6, r7}
 80001f2:	ea41 2101 	orr.w	r1, r1, r1, lsl #8
 80001f6:	ea41 4101 	orr.w	r1, r1, r1, lsl #16
 80001fa:	f022 0407 	bic.w	r4, r2, #7
 80001fe:	f07f 0700 	mvns.w	r7, #0
 8000202:	2300      	movs	r3, #0
 8000204:	e8f0 5602 	ldrd	r5, r6, [r0], #8
 8000208:	3c08      	subs	r4, #8
 800020a:	ea85 0501 	eor.w	r5, r5, r1
 800020e:	ea86 0601 	eor.w	r6, r6, r1
 8000212:	fa85 f547 	uadd8	r5, r5, r7
 8000216:	faa3 f587 	sel	r5, r3, r7
 800021a:	fa86 f647 	uadd8	r6, r6, r7
 800021e:	faa5 f687 	sel	r6, r5, r7
 8000222:	b98e      	cbnz	r6, 8000248 <memchr+0x78>
 8000224:	d1ee      	bne.n	8000204 <memchr+0x34>
 8000226:	bcf0      	pop	{r4, r5, r6, r7}
 8000228:	f001 01ff 	and.w	r1, r1, #255	; 0xff
 800022c:	f002 0207 	and.w	r2, r2, #7
 8000230:	b132      	cbz	r2, 8000240 <memchr+0x70>
 8000232:	f810 3b01 	ldrb.w	r3, [r0], #1
 8000236:	3a01      	subs	r2, #1
 8000238:	ea83 0301 	eor.w	r3, r3, r1
 800023c:	b113      	cbz	r3, 8000244 <memchr+0x74>
 800023e:	d1f8      	bne.n	8000232 <memchr+0x62>
 8000240:	2000      	movs	r0, #0
 8000242:	4770      	bx	lr
 8000244:	3801      	subs	r0, #1
 8000246:	4770      	bx	lr
 8000248:	2d00      	cmp	r5, #0
 800024a:	bf06      	itte	eq
 800024c:	4635      	moveq	r5, r6
 800024e:	3803      	subeq	r0, #3
 8000250:	3807      	subne	r0, #7
 8000252:	f015 0f01 	tst.w	r5, #1
 8000256:	d107      	bne.n	8000268 <memchr+0x98>
 8000258:	3001      	adds	r0, #1
 800025a:	f415 7f80 	tst.w	r5, #256	; 0x100
 800025e:	bf02      	ittt	eq
 8000260:	3001      	addeq	r0, #1
 8000262:	f415 3fc0 	tsteq.w	r5, #98304	; 0x18000
 8000266:	3001      	addeq	r0, #1
 8000268:	bcf0      	pop	{r4, r5, r6, r7}
 800026a:	3801      	subs	r0, #1
 800026c:	4770      	bx	lr
 800026e:	bf00      	nop

08000270 <DISPLAY_ShowMenu>:
 8000270:	e92d 43f0 	stmdb	sp!, {r4, r5, r6, r7, r8, r9, lr}
 8000274:	2000      	movs	r0, #0
 8000276:	b085      	sub	sp, #20
 8000278:	f007 f9e0 	bl	800763c <ssd1306_Fill>
 800027c:	f8df 8308 	ldr.w	r8, [pc, #776]	; 8000588 <DISPLAY_ShowMenu+0x318>
 8000280:	4cb6      	ldr	r4, [pc, #728]	; (800055c <DISPLAY_ShowMenu+0x2ec>)
 8000282:	2101      	movs	r1, #1
 8000284:	4608      	mov	r0, r1
 8000286:	f007 fcd1 	bl	8007c2c <ssd1306_SetCursor>
 800028a:	f8d8 3000 	ldr.w	r3, [r8]
 800028e:	e894 0006 	ldmia.w	r4, {r1, r2}
 8000292:	6998      	ldr	r0, [r3, #24]
 8000294:	2301      	movs	r3, #1
 8000296:	f007 fcad 	bl	8007bf4 <ssd1306_WriteString>
 800029a:	4bb1      	ldr	r3, [pc, #708]	; (8000560 <DISPLAY_ShowMenu+0x2f0>)
 800029c:	781b      	ldrb	r3, [r3, #0]
 800029e:	2b00      	cmp	r3, #0
 80002a0:	f040 8101 	bne.w	80004a6 <DISPLAY_ShowMenu+0x236>
 80002a4:	f8d8 3000 	ldr.w	r3, [r8]
 80002a8:	2b00      	cmp	r3, #0
 80002aa:	f000 8143 	beq.w	8000534 <DISPLAY_ShowMenu+0x2c4>
 80002ae:	461d      	mov	r5, r3
 80002b0:	4629      	mov	r1, r5
 80002b2:	6a2d      	ldr	r5, [r5, #32]
 80002b4:	2d00      	cmp	r5, #0
 80002b6:	d1fb      	bne.n	80002b0 <DISPLAY_ShowMenu+0x40>
 80002b8:	781a      	ldrb	r2, [r3, #0]
 80002ba:	7809      	ldrb	r1, [r1, #0]
 80002bc:	2a00      	cmp	r2, #0
 80002be:	d159      	bne.n	8000374 <DISPLAY_ShowMenu+0x104>
 80002c0:	2110      	movs	r1, #16
 80002c2:	789b      	ldrb	r3, [r3, #2]
 80002c4:	2b00      	cmp	r3, #0
 80002c6:	d05e      	beq.n	8000386 <DISPLAY_ShowMenu+0x116>
 80002c8:	2b01      	cmp	r3, #1
 80002ca:	f000 8143 	beq.w	8000554 <DISPLAY_ShowMenu+0x2e4>
 80002ce:	2b02      	cmp	r3, #2
 80002d0:	f000 8136 	beq.w	8000540 <DISPLAY_ShowMenu+0x2d0>
 80002d4:	e894 0006 	ldmia.w	r4, {r1, r2}
 80002d8:	48a2      	ldr	r0, [pc, #648]	; (8000564 <DISPLAY_ShowMenu+0x2f4>)
 80002da:	f8df 9294 	ldr.w	r9, [pc, #660]	; 8000570 <DISPLAY_ShowMenu+0x300>
 80002de:	2301      	movs	r3, #1
 80002e0:	f007 fc88 	bl	8007bf4 <ssd1306_WriteString>
 80002e4:	2610      	movs	r6, #16
 80002e6:	f8d8 7000 	ldr.w	r7, [r8]
 80002ea:	eb05 0385 	add.w	r3, r5, r5, lsl #2
 80002ee:	eb05 0343 	add.w	r3, r5, r3, lsl #1
 80002f2:	eb07 0783 	add.w	r7, r7, r3, lsl #2
 80002f6:	4631      	mov	r1, r6
 80002f8:	2009      	movs	r0, #9
 80002fa:	f007 fc97 	bl	8007c2c <ssd1306_SetCursor>
 80002fe:	2301      	movs	r3, #1
 8000300:	e894 0006 	ldmia.w	r4, {r1, r2}
 8000304:	6978      	ldr	r0, [r7, #20]
 8000306:	f007 fc75 	bl	8007bf4 <ssd1306_WriteString>
 800030a:	787b      	ldrb	r3, [r7, #1]
 800030c:	b973      	cbnz	r3, 800032c <DISPLAY_ShowMenu+0xbc>
 800030e:	360c      	adds	r6, #12
 8000310:	b2f6      	uxtb	r6, r6
 8000312:	3501      	adds	r5, #1
 8000314:	2e34      	cmp	r6, #52	; 0x34
 8000316:	b26d      	sxtb	r5, r5
 8000318:	d1e5      	bne.n	80002e6 <DISPLAY_ShowMenu+0x76>
 800031a:	f8d8 3000 	ldr.w	r3, [r8]
 800031e:	7c5b      	ldrb	r3, [r3, #17]
 8000320:	bbab      	cbnz	r3, 800038e <DISPLAY_ShowMenu+0x11e>
 8000322:	f007 f997 	bl	8007654 <ssd1306_UpdateScreen>
 8000326:	b005      	add	sp, #20
 8000328:	e8bd 83f0 	ldmia.w	sp!, {r4, r5, r6, r7, r8, r9, pc}
 800032c:	687b      	ldr	r3, [r7, #4]
 800032e:	4649      	mov	r1, r9
 8000330:	781a      	ldrb	r2, [r3, #0]
 8000332:	4668      	mov	r0, sp
 8000334:	f007 fcc0 	bl	8007cb8 <siprintf>
 8000338:	4631      	mov	r1, r6
 800033a:	2048      	movs	r0, #72	; 0x48
 800033c:	f007 fc76 	bl	8007c2c <ssd1306_SetCursor>
 8000340:	e894 0006 	ldmia.w	r4, {r1, r2}
 8000344:	2301      	movs	r3, #1
 8000346:	4668      	mov	r0, sp
 8000348:	f007 fc54 	bl	8007bf4 <ssd1306_WriteString>
 800034c:	787b      	ldrb	r3, [r7, #1]
 800034e:	2b02      	cmp	r3, #2
 8000350:	4649      	mov	r1, r9
 8000352:	4668      	mov	r0, sp
 8000354:	d1db      	bne.n	800030e <DISPLAY_ShowMenu+0x9e>
 8000356:	68fb      	ldr	r3, [r7, #12]
 8000358:	781a      	ldrb	r2, [r3, #0]
 800035a:	f007 fcad 	bl	8007cb8 <siprintf>
 800035e:	4631      	mov	r1, r6
 8000360:	2069      	movs	r0, #105	; 0x69
 8000362:	f007 fc63 	bl	8007c2c <ssd1306_SetCursor>
 8000366:	e894 0006 	ldmia.w	r4, {r1, r2}
 800036a:	4668      	mov	r0, sp
 800036c:	2301      	movs	r3, #1
 800036e:	f007 fc41 	bl	8007bf4 <ssd1306_WriteString>
 8000372:	e7cc      	b.n	800030e <DISPLAY_ShowMenu+0x9e>
 8000374:	4291      	cmp	r1, r2
 8000376:	f340 80e7 	ble.w	8000548 <DISPLAY_ShowMenu+0x2d8>
 800037a:	789b      	ldrb	r3, [r3, #2]
 800037c:	211c      	movs	r1, #28
 800037e:	f04f 35ff 	mov.w	r5, #4294967295
 8000382:	2b00      	cmp	r3, #0
 8000384:	d1a0      	bne.n	80002c8 <DISPLAY_ShowMenu+0x58>
 8000386:	2001      	movs	r0, #1
 8000388:	f007 fc50 	bl	8007c2c <ssd1306_SetCursor>
 800038c:	e7a2      	b.n	80002d4 <DISPLAY_ShowMenu+0x64>
 800038e:	2633      	movs	r6, #51	; 0x33
 8000390:	b2f7      	uxtb	r7, r6
 8000392:	2500      	movs	r5, #0
 8000394:	2201      	movs	r2, #1
 8000396:	b2e8      	uxtb	r0, r5
 8000398:	4639      	mov	r1, r7
 800039a:	4415      	add	r5, r2
 800039c:	f007 fb28 	bl	80079f0 <ssd1306_DrawPixel>
 80003a0:	2d80      	cmp	r5, #128	; 0x80
 80003a2:	d1f7      	bne.n	8000394 <DISPLAY_ShowMenu+0x124>
 80003a4:	3601      	adds	r6, #1
 80003a6:	2e40      	cmp	r6, #64	; 0x40
 80003a8:	d1f2      	bne.n	8000390 <DISPLAY_ShowMenu+0x120>
 80003aa:	f8d8 3000 	ldr.w	r3, [r8]
 80003ae:	7898      	ldrb	r0, [r3, #2]
 80003b0:	2801      	cmp	r0, #1
 80003b2:	f04f 0135 	mov.w	r1, #53	; 0x35
 80003b6:	f000 80e9 	beq.w	800058c <DISPLAY_ShowMenu+0x31c>
 80003ba:	2001      	movs	r0, #1
 80003bc:	f007 fc36 	bl	8007c2c <ssd1306_SetCursor>
 80003c0:	e894 0006 	ldmia.w	r4, {r1, r2}
 80003c4:	2300      	movs	r3, #0
 80003c6:	4868      	ldr	r0, [pc, #416]	; (8000568 <DISPLAY_ShowMenu+0x2f8>)
 80003c8:	4d68      	ldr	r5, [pc, #416]	; (800056c <DISPLAY_ShowMenu+0x2fc>)
 80003ca:	f007 fc13 	bl	8007bf4 <ssd1306_WriteString>
 80003ce:	f8d8 3000 	ldr.w	r3, [r8]
 80003d2:	4967      	ldr	r1, [pc, #412]	; (8000570 <DISPLAY_ShowMenu+0x300>)
 80003d4:	7c5b      	ldrb	r3, [r3, #17]
 80003d6:	2686      	movs	r6, #134	; 0x86
 80003d8:	3b01      	subs	r3, #1
 80003da:	fb06 5303 	mla	r3, r6, r3, r5
 80003de:	4668      	mov	r0, sp
 80003e0:	789a      	ldrb	r2, [r3, #2]
 80003e2:	3201      	adds	r2, #1
 80003e4:	f007 fc68 	bl	8007cb8 <siprintf>
 80003e8:	2135      	movs	r1, #53	; 0x35
 80003ea:	201e      	movs	r0, #30
 80003ec:	f007 fc1e 	bl	8007c2c <ssd1306_SetCursor>
 80003f0:	2300      	movs	r3, #0
 80003f2:	e894 0006 	ldmia.w	r4, {r1, r2}
 80003f6:	4668      	mov	r0, sp
 80003f8:	f007 fbfc 	bl	8007bf4 <ssd1306_WriteString>
 80003fc:	f8d8 3000 	ldr.w	r3, [r8]
 8000400:	7c5b      	ldrb	r3, [r3, #17]
 8000402:	3b01      	subs	r3, #1
 8000404:	fb06 5303 	mla	r3, r6, r3, r5
 8000408:	789b      	ldrb	r3, [r3, #2]
 800040a:	2b62      	cmp	r3, #98	; 0x62
 800040c:	f200 8095 	bhi.w	800053a <DISPLAY_ShowMenu+0x2ca>
 8000410:	3b09      	subs	r3, #9
 8000412:	b2db      	uxtb	r3, r3
 8000414:	2b5a      	cmp	r3, #90	; 0x5a
 8000416:	bf35      	itete	cc
 8000418:	2733      	movcc	r7, #51	; 0x33
 800041a:	272c      	movcs	r7, #44	; 0x2c
 800041c:	202c      	movcc	r0, #44	; 0x2c
 800041e:	2025      	movcs	r0, #37	; 0x25
 8000420:	2135      	movs	r1, #53	; 0x35
 8000422:	f007 fc03 	bl	8007c2c <ssd1306_SetCursor>
 8000426:	e894 0006 	ldmia.w	r4, {r1, r2}
 800042a:	2300      	movs	r3, #0
 800042c:	4851      	ldr	r0, [pc, #324]	; (8000574 <DISPLAY_ShowMenu+0x304>)
 800042e:	f007 fbe1 	bl	8007bf4 <ssd1306_WriteString>
 8000432:	f8d8 3000 	ldr.w	r3, [r8]
 8000436:	494e      	ldr	r1, [pc, #312]	; (8000570 <DISPLAY_ShowMenu+0x300>)
 8000438:	7c5b      	ldrb	r3, [r3, #17]
 800043a:	2686      	movs	r6, #134	; 0x86
 800043c:	3b01      	subs	r3, #1
 800043e:	fb06 5303 	mla	r3, r6, r3, r5
 8000442:	f893 c081 	ldrb.w	ip, [r3, #129]	; 0x81
 8000446:	f893 207f 	ldrb.w	r2, [r3, #127]	; 0x7f
 800044a:	f893 0083 	ldrb.w	r0, [r3, #131]	; 0x83
 800044e:	f893 3085 	ldrb.w	r3, [r3, #133]	; 0x85
 8000452:	4462      	add	r2, ip
 8000454:	4402      	add	r2, r0
 8000456:	441a      	add	r2, r3
 8000458:	b2d2      	uxtb	r2, r2
 800045a:	4668      	mov	r0, sp
 800045c:	f007 fc2c 	bl	8007cb8 <siprintf>
 8000460:	4638      	mov	r0, r7
 8000462:	2135      	movs	r1, #53	; 0x35
 8000464:	f007 fbe2 	bl	8007c2c <ssd1306_SetCursor>
 8000468:	e894 0006 	ldmia.w	r4, {r1, r2}
 800046c:	2300      	movs	r3, #0
 800046e:	4668      	mov	r0, sp
 8000470:	f007 fbc0 	bl	8007bf4 <ssd1306_WriteString>
 8000474:	2135      	movs	r1, #53	; 0x35
 8000476:	205c      	movs	r0, #92	; 0x5c
 8000478:	f007 fbd8 	bl	8007c2c <ssd1306_SetCursor>
 800047c:	f8d8 3000 	ldr.w	r3, [r8]
 8000480:	7c5b      	ldrb	r3, [r3, #17]
 8000482:	3b01      	subs	r3, #1
 8000484:	fb06 5503 	mla	r5, r6, r3, r5
 8000488:	786b      	ldrb	r3, [r5, #1]
 800048a:	2b00      	cmp	r3, #0
 800048c:	f000 8107 	beq.w	800069e <DISPLAY_ShowMenu+0x42e>
 8000490:	e894 0006 	ldmia.w	r4, {r1, r2}
 8000494:	2300      	movs	r3, #0
 8000496:	4838      	ldr	r0, [pc, #224]	; (8000578 <DISPLAY_ShowMenu+0x308>)
 8000498:	f007 fbac 	bl	8007bf4 <ssd1306_WriteString>
 800049c:	f007 f8da 	bl	8007654 <ssd1306_UpdateScreen>
 80004a0:	b005      	add	sp, #20
 80004a2:	e8bd 83f0 	ldmia.w	sp!, {r4, r5, r6, r7, r8, r9, pc}
 80004a6:	4d35      	ldr	r5, [pc, #212]	; (800057c <DISPLAY_ShowMenu+0x30c>)
 80004a8:	4935      	ldr	r1, [pc, #212]	; (8000580 <DISPLAY_ShowMenu+0x310>)
 80004aa:	782a      	ldrb	r2, [r5, #0]
 80004ac:	4668      	mov	r0, sp
 80004ae:	f007 fc03 	bl	8007cb8 <siprintf>
 80004b2:	2101      	movs	r1, #1
 80004b4:	2021      	movs	r0, #33	; 0x21
 80004b6:	f007 fbb9 	bl	8007c2c <ssd1306_SetCursor>
 80004ba:	e894 0006 	ldmia.w	r4, {r1, r2}
 80004be:	2301      	movs	r3, #1
 80004c0:	4668      	mov	r0, sp
 80004c2:	f007 fb97 	bl	8007bf4 <ssd1306_WriteString>
 80004c6:	2101      	movs	r1, #1
 80004c8:	2030      	movs	r0, #48	; 0x30
 80004ca:	f007 fbaf 	bl	8007c2c <ssd1306_SetCursor>
 80004ce:	2301      	movs	r3, #1
 80004d0:	e894 0006 	ldmia.w	r4, {r1, r2}
 80004d4:	482b      	ldr	r0, [pc, #172]	; (8000584 <DISPLAY_ShowMenu+0x314>)
 80004d6:	f007 fb8d 	bl	8007bf4 <ssd1306_WriteString>
 80004da:	786a      	ldrb	r2, [r5, #1]
 80004dc:	4928      	ldr	r1, [pc, #160]	; (8000580 <DISPLAY_ShowMenu+0x310>)
 80004de:	4668      	mov	r0, sp
 80004e0:	f007 fbea 	bl	8007cb8 <siprintf>
 80004e4:	2101      	movs	r1, #1
 80004e6:	2037      	movs	r0, #55	; 0x37
 80004e8:	f007 fba0 	bl	8007c2c <ssd1306_SetCursor>
 80004ec:	e894 0006 	ldmia.w	r4, {r1, r2}
 80004f0:	2301      	movs	r3, #1
 80004f2:	4668      	mov	r0, sp
 80004f4:	f007 fb7e 	bl	8007bf4 <ssd1306_WriteString>
 80004f8:	2101      	movs	r1, #1
 80004fa:	2045      	movs	r0, #69	; 0x45
 80004fc:	f007 fb96 	bl	8007c2c <ssd1306_SetCursor>
 8000500:	2301      	movs	r3, #1
 8000502:	e894 0006 	ldmia.w	r4, {r1, r2}
 8000506:	481f      	ldr	r0, [pc, #124]	; (8000584 <DISPLAY_ShowMenu+0x314>)
 8000508:	f007 fb74 	bl	8007bf4 <ssd1306_WriteString>
 800050c:	78aa      	ldrb	r2, [r5, #2]
 800050e:	491c      	ldr	r1, [pc, #112]	; (8000580 <DISPLAY_ShowMenu+0x310>)
 8000510:	4668      	mov	r0, sp
 8000512:	f007 fbd1 	bl	8007cb8 <siprintf>
 8000516:	2101      	movs	r1, #1
 8000518:	204c      	movs	r0, #76	; 0x4c
 800051a:	f007 fb87 	bl	8007c2c <ssd1306_SetCursor>
 800051e:	2301      	movs	r3, #1
 8000520:	e894 0006 	ldmia.w	r4, {r1, r2}
 8000524:	4668      	mov	r0, sp
 8000526:	f007 fb65 	bl	8007bf4 <ssd1306_WriteString>
 800052a:	f8d8 3000 	ldr.w	r3, [r8]
 800052e:	2b00      	cmp	r3, #0
 8000530:	f47f aebd 	bne.w	80002ae <DISPLAY_ShowMenu+0x3e>
 8000534:	2110      	movs	r1, #16
 8000536:	461d      	mov	r5, r3
 8000538:	e6c3      	b.n	80002c2 <DISPLAY_ShowMenu+0x52>
 800053a:	273a      	movs	r7, #58	; 0x3a
 800053c:	2033      	movs	r0, #51	; 0x33
 800053e:	e76f      	b.n	8000420 <DISPLAY_ShowMenu+0x1b0>
 8000540:	2061      	movs	r0, #97	; 0x61
 8000542:	f007 fb73 	bl	8007c2c <ssd1306_SetCursor>
 8000546:	e6c5      	b.n	80002d4 <DISPLAY_ShowMenu+0x64>
 8000548:	f47f aeba 	bne.w	80002c0 <DISPLAY_ShowMenu+0x50>
 800054c:	2128      	movs	r1, #40	; 0x28
 800054e:	f06f 0501 	mvn.w	r5, #1
 8000552:	e6b6      	b.n	80002c2 <DISPLAY_ShowMenu+0x52>
 8000554:	2040      	movs	r0, #64	; 0x40
 8000556:	f007 fb69 	bl	8007c2c <ssd1306_SetCursor>
 800055a:	e6bb      	b.n	80002d4 <DISPLAY_ShowMenu+0x64>
 800055c:	20000020 	.word	0x20000020
 8000560:	200000ac 	.word	0x200000ac
 8000564:	08008554 	.word	0x08008554
 8000568:	08008574 	.word	0x08008574
 800056c:	20001308 	.word	0x20001308
 8000570:	08008558 	.word	0x08008558
 8000574:	0800857c 	.word	0x0800857c
 8000578:	08008580 	.word	0x08008580
 800057c:	20000e58 	.word	0x20000e58
 8000580:	08008548 	.word	0x08008548
 8000584:	08008550 	.word	0x08008550
 8000588:	2000001c 	.word	0x2000001c
 800058c:	f007 fb4e 	bl	8007c2c <ssd1306_SetCursor>
 8000590:	e894 0006 	ldmia.w	r4, {r1, r2}
 8000594:	2300      	movs	r3, #0
 8000596:	4847      	ldr	r0, [pc, #284]	; (80006b4 <DISPLAY_ShowMenu+0x444>)
 8000598:	4d47      	ldr	r5, [pc, #284]	; (80006b8 <DISPLAY_ShowMenu+0x448>)
 800059a:	f007 fb2b 	bl	8007bf4 <ssd1306_WriteString>
 800059e:	f8d8 3000 	ldr.w	r3, [r8]
 80005a2:	4946      	ldr	r1, [pc, #280]	; (80006bc <DISPLAY_ShowMenu+0x44c>)
 80005a4:	685b      	ldr	r3, [r3, #4]
 80005a6:	4668      	mov	r0, sp
 80005a8:	781a      	ldrb	r2, [r3, #0]
 80005aa:	f007 fb85 	bl	8007cb8 <siprintf>
 80005ae:	2135      	movs	r1, #53	; 0x35
 80005b0:	200f      	movs	r0, #15
 80005b2:	f007 fb3b 	bl	8007c2c <ssd1306_SetCursor>
 80005b6:	e894 0006 	ldmia.w	r4, {r1, r2}
 80005ba:	2300      	movs	r3, #0
 80005bc:	4668      	mov	r0, sp
 80005be:	f007 fb19 	bl	8007bf4 <ssd1306_WriteString>
 80005c2:	2135      	movs	r1, #53	; 0x35
 80005c4:	2016      	movs	r0, #22
 80005c6:	f007 fb31 	bl	8007c2c <ssd1306_SetCursor>
 80005ca:	e894 0006 	ldmia.w	r4, {r1, r2}
 80005ce:	2300      	movs	r3, #0
 80005d0:	483b      	ldr	r0, [pc, #236]	; (80006c0 <DISPLAY_ShowMenu+0x450>)
 80005d2:	f007 fb0f 	bl	8007bf4 <ssd1306_WriteString>
 80005d6:	2135      	movs	r1, #53	; 0x35
 80005d8:	2024      	movs	r0, #36	; 0x24
 80005da:	f007 fb27 	bl	8007c2c <ssd1306_SetCursor>
 80005de:	e894 0006 	ldmia.w	r4, {r1, r2}
 80005e2:	2300      	movs	r3, #0
 80005e4:	4837      	ldr	r0, [pc, #220]	; (80006c4 <DISPLAY_ShowMenu+0x454>)
 80005e6:	f007 fb05 	bl	8007bf4 <ssd1306_WriteString>
 80005ea:	f8d8 3000 	ldr.w	r3, [r8]
 80005ee:	4936      	ldr	r1, [pc, #216]	; (80006c8 <DISPLAY_ShowMenu+0x458>)
 80005f0:	685b      	ldr	r3, [r3, #4]
 80005f2:	781b      	ldrb	r3, [r3, #0]
 80005f4:	eb03 0343 	add.w	r3, r3, r3, lsl #1
 80005f8:	4668      	mov	r0, sp
 80005fa:	5cea      	ldrb	r2, [r5, r3]
 80005fc:	f007 fb5c 	bl	8007cb8 <siprintf>
 8000600:	2135      	movs	r1, #53	; 0x35
 8000602:	202b      	movs	r0, #43	; 0x2b
 8000604:	f007 fb12 	bl	8007c2c <ssd1306_SetCursor>
 8000608:	e894 0006 	ldmia.w	r4, {r1, r2}
 800060c:	2300      	movs	r3, #0
 800060e:	4668      	mov	r0, sp
 8000610:	f007 faf0 	bl	8007bf4 <ssd1306_WriteString>
 8000614:	4630      	mov	r0, r6
 8000616:	2135      	movs	r1, #53	; 0x35
 8000618:	f007 fb08 	bl	8007c2c <ssd1306_SetCursor>
 800061c:	e894 0006 	ldmia.w	r4, {r1, r2}
 8000620:	2300      	movs	r3, #0
 8000622:	482a      	ldr	r0, [pc, #168]	; (80006cc <DISPLAY_ShowMenu+0x45c>)
 8000624:	f007 fae6 	bl	8007bf4 <ssd1306_WriteString>
 8000628:	f8d8 3000 	ldr.w	r3, [r8]
 800062c:	4926      	ldr	r1, [pc, #152]	; (80006c8 <DISPLAY_ShowMenu+0x458>)
 800062e:	685b      	ldr	r3, [r3, #4]
 8000630:	781b      	ldrb	r3, [r3, #0]
 8000632:	eb03 0343 	add.w	r3, r3, r3, lsl #1
 8000636:	442b      	add	r3, r5
 8000638:	4668      	mov	r0, sp
 800063a:	785a      	ldrb	r2, [r3, #1]
 800063c:	f007 fb3c 	bl	8007cb8 <siprintf>
 8000640:	2135      	movs	r1, #53	; 0x35
 8000642:	204e      	movs	r0, #78	; 0x4e
 8000644:	f007 faf2 	bl	8007c2c <ssd1306_SetCursor>
 8000648:	e894 0006 	ldmia.w	r4, {r1, r2}
 800064c:	2300      	movs	r3, #0
 800064e:	4668      	mov	r0, sp
 8000650:	f007 fad0 	bl	8007bf4 <ssd1306_WriteString>
 8000654:	2135      	movs	r1, #53	; 0x35
 8000656:	2063      	movs	r0, #99	; 0x63
 8000658:	f007 fae8 	bl	8007c2c <ssd1306_SetCursor>
 800065c:	e894 0006 	ldmia.w	r4, {r1, r2}
 8000660:	2300      	movs	r3, #0
 8000662:	481b      	ldr	r0, [pc, #108]	; (80006d0 <DISPLAY_ShowMenu+0x460>)
 8000664:	f007 fac6 	bl	8007bf4 <ssd1306_WriteString>
 8000668:	f8d8 3000 	ldr.w	r3, [r8]
 800066c:	4916      	ldr	r1, [pc, #88]	; (80006c8 <DISPLAY_ShowMenu+0x458>)
 800066e:	685b      	ldr	r3, [r3, #4]
 8000670:	781b      	ldrb	r3, [r3, #0]
 8000672:	eb03 0343 	add.w	r3, r3, r3, lsl #1
 8000676:	441d      	add	r5, r3
 8000678:	4668      	mov	r0, sp
 800067a:	78aa      	ldrb	r2, [r5, #2]
 800067c:	f007 fb1c 	bl	8007cb8 <siprintf>
 8000680:	2135      	movs	r1, #53	; 0x35
 8000682:	2071      	movs	r0, #113	; 0x71
 8000684:	f007 fad2 	bl	8007c2c <ssd1306_SetCursor>
 8000688:	e894 0006 	ldmia.w	r4, {r1, r2}
 800068c:	2300      	movs	r3, #0
 800068e:	4668      	mov	r0, sp
 8000690:	f007 fab0 	bl	8007bf4 <ssd1306_WriteString>
 8000694:	f006 ffde 	bl	8007654 <ssd1306_UpdateScreen>
 8000698:	b005      	add	sp, #20
 800069a:	e8bd 83f0 	ldmia.w	sp!, {r4, r5, r6, r7, r8, r9, pc}
 800069e:	e894 0006 	ldmia.w	r4, {r1, r2}
 80006a2:	480c      	ldr	r0, [pc, #48]	; (80006d4 <DISPLAY_ShowMenu+0x464>)
 80006a4:	f007 faa6 	bl	8007bf4 <ssd1306_WriteString>
 80006a8:	f006 ffd4 	bl	8007654 <ssd1306_UpdateScreen>
 80006ac:	b005      	add	sp, #20
 80006ae:	e8bd 83f0 	ldmia.w	sp!, {r4, r5, r6, r7, r8, r9, pc}
 80006b2:	bf00      	nop
 80006b4:	0800855c 	.word	0x0800855c
 80006b8:	200012f8 	.word	0x200012f8
 80006bc:	08008560 	.word	0x08008560
 80006c0:	08008550 	.word	0x08008550
 80006c4:	08008568 	.word	0x08008568
 80006c8:	08008558 	.word	0x08008558
 80006cc:	0800856c 	.word	0x0800856c
 80006d0:	08008570 	.word	0x08008570
 80006d4:	08008584 	.word	0x08008584

080006d8 <DISPLAY_GoesTo>:
 80006d8:	4770      	bx	lr
 80006da:	bf00      	nop

080006dc <DISPLAY_GoesToAndShowInfo>:
 80006dc:	4770      	bx	lr
 80006de:	bf00      	nop

080006e0 <DISPLAY_GoesToAndNotShowTime>:
 80006e0:	4b01      	ldr	r3, [pc, #4]	; (80006e8 <DISPLAY_GoesToAndNotShowTime+0x8>)
 80006e2:	2200      	movs	r2, #0
 80006e4:	701a      	strb	r2, [r3, #0]
 80006e6:	4770      	bx	lr
 80006e8:	200000ac 	.word	0x200000ac

080006ec <DISPLAY_GoesToAndFillTime>:
 80006ec:	b410      	push	{r4}
 80006ee:	4a06      	ldr	r2, [pc, #24]	; (8000708 <DISPLAY_GoesToAndFillTime+0x1c>)
 80006f0:	4b06      	ldr	r3, [pc, #24]	; (800070c <DISPLAY_GoesToAndFillTime+0x20>)
 80006f2:	7894      	ldrb	r4, [r2, #2]
 80006f4:	4906      	ldr	r1, [pc, #24]	; (8000710 <DISPLAY_GoesToAndFillTime+0x24>)
 80006f6:	8812      	ldrh	r2, [r2, #0]
 80006f8:	801a      	strh	r2, [r3, #0]
 80006fa:	709c      	strb	r4, [r3, #2]
 80006fc:	2201      	movs	r2, #1
 80006fe:	f85d 4b04 	ldr.w	r4, [sp], #4
 8000702:	700a      	strb	r2, [r1, #0]
 8000704:	4770      	bx	lr
 8000706:	bf00      	nop
 8000708:	20000e58 	.word	0x20000e58
 800070c:	20000ea4 	.word	0x20000ea4
 8000710:	200000ac 	.word	0x200000ac

08000714 <DISPLAY_GoesToAndFillDate>:
 8000714:	b410      	push	{r4}
 8000716:	4a05      	ldr	r2, [pc, #20]	; (800072c <DISPLAY_GoesToAndFillDate+0x18>)
 8000718:	4b05      	ldr	r3, [pc, #20]	; (8000730 <DISPLAY_GoesToAndFillDate+0x1c>)
 800071a:	78d4      	ldrb	r4, [r2, #3]
 800071c:	7851      	ldrb	r1, [r2, #1]
 800071e:	7892      	ldrb	r2, [r2, #2]
 8000720:	70dc      	strb	r4, [r3, #3]
 8000722:	7059      	strb	r1, [r3, #1]
 8000724:	709a      	strb	r2, [r3, #2]
 8000726:	f85d 4b04 	ldr.w	r4, [sp], #4
 800072a:	4770      	bx	lr
 800072c:	20000e54 	.word	0x20000e54
 8000730:	20000ea0 	.word	0x20000ea0

08000734 <DISPLAY_GoesToAndFillStartDay>:
 8000734:	4a03      	ldr	r2, [pc, #12]	; (8000744 <DISPLAY_GoesToAndFillStartDay+0x10>)
 8000736:	4b04      	ldr	r3, [pc, #16]	; (8000748 <DISPLAY_GoesToAndFillStartDay+0x14>)
 8000738:	7891      	ldrb	r1, [r2, #2]
 800073a:	8812      	ldrh	r2, [r2, #0]
 800073c:	801a      	strh	r2, [r3, #0]
 800073e:	7099      	strb	r1, [r3, #2]
 8000740:	4770      	bx	lr
 8000742:	bf00      	nop
 8000744:	20000e88 	.word	0x20000e88
 8000748:	20000ea4 	.word	0x20000ea4

0800074c <DISPLAY_GoesToAndFillEndDay>:
 800074c:	4a03      	ldr	r2, [pc, #12]	; (800075c <DISPLAY_GoesToAndFillEndDay+0x10>)
 800074e:	4b04      	ldr	r3, [pc, #16]	; (8000760 <DISPLAY_GoesToAndFillEndDay+0x14>)
 8000750:	7891      	ldrb	r1, [r2, #2]
 8000752:	8812      	ldrh	r2, [r2, #0]
 8000754:	801a      	strh	r2, [r3, #0]
 8000756:	7099      	strb	r1, [r3, #2]
 8000758:	4770      	bx	lr
 800075a:	bf00      	nop
 800075c:	20000e70 	.word	0x20000e70
 8000760:	20000ea4 	.word	0x20000ea4

08000764 <HAL_Init>:
 8000764:	4a07      	ldr	r2, [pc, #28]	; (8000784 <HAL_Init+0x20>)
 8000766:	b508      	push	{r3, lr}
 8000768:	6813      	ldr	r3, [r2, #0]
 800076a:	f043 0310 	orr.w	r3, r3, #16
 800076e:	6013      	str	r3, [r2, #0]
 8000770:	2003      	movs	r0, #3
 8000772:	f000 f82d 	bl	80007d0 <HAL_NVIC_SetPriorityGrouping>
 8000776:	2000      	movs	r0, #0
 8000778:	f004 fc38 	bl	8004fec <HAL_InitTick>
 800077c:	f004 fc18 	bl	8004fb0 <HAL_MspInit>
 8000780:	2000      	movs	r0, #0
 8000782:	bd08      	pop	{r3, pc}
 8000784:	40022000 	.word	0x40022000

08000788 <HAL_IncTick>:
 8000788:	4a03      	ldr	r2, [pc, #12]	; (8000798 <HAL_IncTick+0x10>)
 800078a:	4b04      	ldr	r3, [pc, #16]	; (800079c <HAL_IncTick+0x14>)
 800078c:	6811      	ldr	r1, [r2, #0]
 800078e:	781b      	ldrb	r3, [r3, #0]
 8000790:	440b      	add	r3, r1
 8000792:	6013      	str	r3, [r2, #0]
 8000794:	4770      	bx	lr
 8000796:	bf00      	nop
 8000798:	200012d4 	.word	0x200012d4
 800079c:	20000000 	.word	0x20000000

080007a0 <HAL_GetTick>:
 80007a0:	4b01      	ldr	r3, [pc, #4]	; (80007a8 <HAL_GetTick+0x8>)
 80007a2:	6818      	ldr	r0, [r3, #0]
 80007a4:	4770      	bx	lr
 80007a6:	bf00      	nop
 80007a8:	200012d4 	.word	0x200012d4

080007ac <HAL_Delay>:
 80007ac:	b538      	push	{r3, r4, r5, lr}
 80007ae:	4604      	mov	r4, r0
 80007b0:	f7ff fff6 	bl	80007a0 <HAL_GetTick>
 80007b4:	1c63      	adds	r3, r4, #1
 80007b6:	4605      	mov	r5, r0
 80007b8:	d002      	beq.n	80007c0 <HAL_Delay+0x14>
 80007ba:	4b04      	ldr	r3, [pc, #16]	; (80007cc <HAL_Delay+0x20>)
 80007bc:	781b      	ldrb	r3, [r3, #0]
 80007be:	441c      	add	r4, r3
 80007c0:	f7ff ffee 	bl	80007a0 <HAL_GetTick>
 80007c4:	1b43      	subs	r3, r0, r5
 80007c6:	42a3      	cmp	r3, r4
 80007c8:	d3fa      	bcc.n	80007c0 <HAL_Delay+0x14>
 80007ca:	bd38      	pop	{r3, r4, r5, pc}
 80007cc:	20000000 	.word	0x20000000

080007d0 <HAL_NVIC_SetPriorityGrouping>:
 80007d0:	4908      	ldr	r1, [pc, #32]	; (80007f4 <HAL_NVIC_SetPriorityGrouping+0x24>)
 80007d2:	68ca      	ldr	r2, [r1, #12]
 80007d4:	b410      	push	{r4}
 80007d6:	0200      	lsls	r0, r0, #8
 80007d8:	f64f 04ff 	movw	r4, #63743	; 0xf8ff
 80007dc:	4022      	ands	r2, r4
 80007de:	f400 63e0 	and.w	r3, r0, #1792	; 0x700
 80007e2:	4313      	orrs	r3, r2
 80007e4:	f043 63bf 	orr.w	r3, r3, #100139008	; 0x5f80000
 80007e8:	f443 3300 	orr.w	r3, r3, #131072	; 0x20000
 80007ec:	f85d 4b04 	ldr.w	r4, [sp], #4
 80007f0:	60cb      	str	r3, [r1, #12]
 80007f2:	4770      	bx	lr
 80007f4:	e000ed00 	.word	0xe000ed00

080007f8 <HAL_NVIC_SetPriority>:
 80007f8:	4b19      	ldr	r3, [pc, #100]	; (8000860 <HAL_NVIC_SetPriority+0x68>)
 80007fa:	68db      	ldr	r3, [r3, #12]
 80007fc:	f3c3 2302 	ubfx	r3, r3, #8, #3
 8000800:	b430      	push	{r4, r5}
 8000802:	f1c3 0507 	rsb	r5, r3, #7
 8000806:	2d04      	cmp	r5, #4
 8000808:	f103 0404 	add.w	r4, r3, #4
 800080c:	bf28      	it	cs
 800080e:	2504      	movcs	r5, #4
 8000810:	2c06      	cmp	r4, #6
 8000812:	d919      	bls.n	8000848 <HAL_NVIC_SetPriority+0x50>
 8000814:	3b03      	subs	r3, #3
 8000816:	f04f 34ff 	mov.w	r4, #4294967295
 800081a:	409c      	lsls	r4, r3
 800081c:	ea22 0204 	bic.w	r2, r2, r4
 8000820:	f04f 34ff 	mov.w	r4, #4294967295
 8000824:	40ac      	lsls	r4, r5
 8000826:	ea21 0104 	bic.w	r1, r1, r4
 800082a:	4099      	lsls	r1, r3
 800082c:	2800      	cmp	r0, #0
 800082e:	ea41 0102 	orr.w	r1, r1, r2
 8000832:	db0c      	blt.n	800084e <HAL_NVIC_SetPriority+0x56>
 8000834:	f100 4060 	add.w	r0, r0, #3758096384	; 0xe0000000
 8000838:	f500 4061 	add.w	r0, r0, #57600	; 0xe100
 800083c:	0109      	lsls	r1, r1, #4
 800083e:	b2c9      	uxtb	r1, r1
 8000840:	f880 1300 	strb.w	r1, [r0, #768]	; 0x300
 8000844:	bc30      	pop	{r4, r5}
 8000846:	4770      	bx	lr
 8000848:	2200      	movs	r2, #0
 800084a:	4613      	mov	r3, r2
 800084c:	e7e8      	b.n	8000820 <HAL_NVIC_SetPriority+0x28>
 800084e:	4b05      	ldr	r3, [pc, #20]	; (8000864 <HAL_NVIC_SetPriority+0x6c>)
 8000850:	f000 000f 	and.w	r0, r0, #15
 8000854:	0109      	lsls	r1, r1, #4
 8000856:	4403      	add	r3, r0
 8000858:	b2c9      	uxtb	r1, r1
 800085a:	7619      	strb	r1, [r3, #24]
 800085c:	bc30      	pop	{r4, r5}
 800085e:	4770      	bx	lr
 8000860:	e000ed00 	.word	0xe000ed00
 8000864:	e000ecfc 	.word	0xe000ecfc

08000868 <HAL_NVIC_EnableIRQ>:
 8000868:	2800      	cmp	r0, #0
 800086a:	db07      	blt.n	800087c <HAL_NVIC_EnableIRQ+0x14>
 800086c:	f000 011f 	and.w	r1, r0, #31
 8000870:	4a03      	ldr	r2, [pc, #12]	; (8000880 <HAL_NVIC_EnableIRQ+0x18>)
 8000872:	0940      	lsrs	r0, r0, #5
 8000874:	2301      	movs	r3, #1
 8000876:	408b      	lsls	r3, r1
 8000878:	f842 3020 	str.w	r3, [r2, r0, lsl #2]
 800087c:	4770      	bx	lr
 800087e:	bf00      	nop
 8000880:	e000e100 	.word	0xe000e100

08000884 <HAL_NVIC_DisableIRQ>:
 8000884:	2800      	cmp	r0, #0
 8000886:	db0d      	blt.n	80008a4 <HAL_NVIC_DisableIRQ+0x20>
 8000888:	0943      	lsrs	r3, r0, #5
 800088a:	4907      	ldr	r1, [pc, #28]	; (80008a8 <HAL_NVIC_DisableIRQ+0x24>)
 800088c:	3320      	adds	r3, #32
 800088e:	2201      	movs	r2, #1
 8000890:	f000 001f 	and.w	r0, r0, #31
 8000894:	fa02 f000 	lsl.w	r0, r2, r0
 8000898:	f841 0023 	str.w	r0, [r1, r3, lsl #2]
 800089c:	f3bf 8f4f 	dsb	sy
 80008a0:	f3bf 8f6f 	isb	sy
 80008a4:	4770      	bx	lr
 80008a6:	bf00      	nop
 80008a8:	e000e100 	.word	0xe000e100

080008ac <HAL_FLASH_Program>:
 80008ac:	e92d 4ff8 	stmdb	sp!, {r3, r4, r5, r6, r7, r8, r9, sl, fp, lr}
 80008b0:	4e61      	ldr	r6, [pc, #388]	; (8000a38 <HAL_FLASH_Program+0x18c>)
 80008b2:	f896 c018 	ldrb.w	ip, [r6, #24]
 80008b6:	f1bc 0f01 	cmp.w	ip, #1
 80008ba:	f000 80b1 	beq.w	8000a20 <HAL_FLASH_Program+0x174>
 80008be:	461d      	mov	r5, r3
 80008c0:	2301      	movs	r3, #1
 80008c2:	4682      	mov	sl, r0
 80008c4:	460c      	mov	r4, r1
 80008c6:	4690      	mov	r8, r2
 80008c8:	7633      	strb	r3, [r6, #24]
 80008ca:	f7ff ff69 	bl	80007a0 <HAL_GetTick>
 80008ce:	4f5b      	ldr	r7, [pc, #364]	; (8000a3c <HAL_FLASH_Program+0x190>)
 80008d0:	4681      	mov	r9, r0
 80008d2:	f24c 3b50 	movw	fp, #50000	; 0xc350
 80008d6:	e006      	b.n	80008e6 <HAL_FLASH_Program+0x3a>
 80008d8:	f7ff ff62 	bl	80007a0 <HAL_GetTick>
 80008dc:	eba0 0009 	sub.w	r0, r0, r9
 80008e0:	4558      	cmp	r0, fp
 80008e2:	f200 8088 	bhi.w	80009f6 <HAL_FLASH_Program+0x14a>
 80008e6:	68fb      	ldr	r3, [r7, #12]
 80008e8:	07db      	lsls	r3, r3, #31
 80008ea:	d4f5      	bmi.n	80008d8 <HAL_FLASH_Program+0x2c>
 80008ec:	68fb      	ldr	r3, [r7, #12]
 80008ee:	0698      	lsls	r0, r3, #26
 80008f0:	bf44      	itt	mi
 80008f2:	2320      	movmi	r3, #32
 80008f4:	60fb      	strmi	r3, [r7, #12]
 80008f6:	4b51      	ldr	r3, [pc, #324]	; (8000a3c <HAL_FLASH_Program+0x190>)
 80008f8:	68da      	ldr	r2, [r3, #12]
 80008fa:	06d1      	lsls	r1, r2, #27
 80008fc:	d47d      	bmi.n	80009fa <HAL_FLASH_Program+0x14e>
 80008fe:	68db      	ldr	r3, [r3, #12]
 8000900:	f013 0904 	ands.w	r9, r3, #4
 8000904:	d179      	bne.n	80009fa <HAL_FLASH_Program+0x14e>
 8000906:	f1ba 0f01 	cmp.w	sl, #1
 800090a:	f000 8093 	beq.w	8000a34 <HAL_FLASH_Program+0x188>
 800090e:	f1ba 0f02 	cmp.w	sl, #2
 8000912:	bf0c      	ite	eq
 8000914:	2702      	moveq	r7, #2
 8000916:	2704      	movne	r7, #4
 8000918:	f8df a120 	ldr.w	sl, [pc, #288]	; 8000a3c <HAL_FLASH_Program+0x190>
 800091c:	eb04 0747 	add.w	r7, r4, r7, lsl #1
 8000920:	2100      	movs	r1, #0
 8000922:	f1c9 0220 	rsb	r2, r9, #32
 8000926:	61f1      	str	r1, [r6, #28]
 8000928:	fa05 f202 	lsl.w	r2, r5, r2
 800092c:	fa28 f009 	lsr.w	r0, r8, r9
 8000930:	f1a9 0120 	sub.w	r1, r9, #32
 8000934:	4310      	orrs	r0, r2
 8000936:	fa25 f101 	lsr.w	r1, r5, r1
 800093a:	f8da 2010 	ldr.w	r2, [sl, #16]
 800093e:	4308      	orrs	r0, r1
 8000940:	b280      	uxth	r0, r0
 8000942:	f042 0201 	orr.w	r2, r2, #1
 8000946:	f8ca 2010 	str.w	r2, [sl, #16]
 800094a:	8020      	strh	r0, [r4, #0]
 800094c:	f7ff ff28 	bl	80007a0 <HAL_GetTick>
 8000950:	4683      	mov	fp, r0
 8000952:	e007      	b.n	8000964 <HAL_FLASH_Program+0xb8>
 8000954:	f7ff ff24 	bl	80007a0 <HAL_GetTick>
 8000958:	f24c 3350 	movw	r3, #50000	; 0xc350
 800095c:	eba0 000b 	sub.w	r0, r0, fp
 8000960:	4298      	cmp	r0, r3
 8000962:	d822      	bhi.n	80009aa <HAL_FLASH_Program+0xfe>
 8000964:	f8da 200c 	ldr.w	r2, [sl, #12]
 8000968:	07d3      	lsls	r3, r2, #31
 800096a:	d4f3      	bmi.n	8000954 <HAL_FLASH_Program+0xa8>
 800096c:	f8da 200c 	ldr.w	r2, [sl, #12]
 8000970:	0690      	lsls	r0, r2, #26
 8000972:	bf44      	itt	mi
 8000974:	2220      	movmi	r2, #32
 8000976:	f8ca 200c 	strmi.w	r2, [sl, #12]
 800097a:	f8da 200c 	ldr.w	r2, [sl, #12]
 800097e:	06d1      	lsls	r1, r2, #27
 8000980:	d41b      	bmi.n	80009ba <HAL_FLASH_Program+0x10e>
 8000982:	f8da 000c 	ldr.w	r0, [sl, #12]
 8000986:	f010 0004 	ands.w	r0, r0, #4
 800098a:	d116      	bne.n	80009ba <HAL_FLASH_Program+0x10e>
 800098c:	f8da 2010 	ldr.w	r2, [sl, #16]
 8000990:	3402      	adds	r4, #2
 8000992:	f022 0201 	bic.w	r2, r2, #1
 8000996:	42bc      	cmp	r4, r7
 8000998:	f109 0910 	add.w	r9, r9, #16
 800099c:	f8ca 2010 	str.w	r2, [sl, #16]
 80009a0:	d1be      	bne.n	8000920 <HAL_FLASH_Program+0x74>
 80009a2:	2300      	movs	r3, #0
 80009a4:	7633      	strb	r3, [r6, #24]
 80009a6:	e8bd 8ff8 	ldmia.w	sp!, {r3, r4, r5, r6, r7, r8, r9, sl, fp, pc}
 80009aa:	f8da 3010 	ldr.w	r3, [sl, #16]
 80009ae:	f023 0301 	bic.w	r3, r3, #1
 80009b2:	f8ca 3010 	str.w	r3, [sl, #16]
 80009b6:	2003      	movs	r0, #3
 80009b8:	e7f3      	b.n	80009a2 <HAL_FLASH_Program+0xf6>
 80009ba:	4b20      	ldr	r3, [pc, #128]	; (8000a3c <HAL_FLASH_Program+0x190>)
 80009bc:	68db      	ldr	r3, [r3, #12]
 80009be:	f013 0310 	ands.w	r3, r3, #16
 80009c2:	d016      	beq.n	80009f2 <HAL_FLASH_Program+0x146>
 80009c4:	69f3      	ldr	r3, [r6, #28]
 80009c6:	f043 0302 	orr.w	r3, r3, #2
 80009ca:	61f3      	str	r3, [r6, #28]
 80009cc:	2114      	movs	r1, #20
 80009ce:	2310      	movs	r3, #16
 80009d0:	4a1a      	ldr	r2, [pc, #104]	; (8000a3c <HAL_FLASH_Program+0x190>)
 80009d2:	68d2      	ldr	r2, [r2, #12]
 80009d4:	0752      	lsls	r2, r2, #29
 80009d6:	d504      	bpl.n	80009e2 <HAL_FLASH_Program+0x136>
 80009d8:	69f2      	ldr	r2, [r6, #28]
 80009da:	f042 0201 	orr.w	r2, r2, #1
 80009de:	460b      	mov	r3, r1
 80009e0:	61f2      	str	r2, [r6, #28]
 80009e2:	4a16      	ldr	r2, [pc, #88]	; (8000a3c <HAL_FLASH_Program+0x190>)
 80009e4:	60d3      	str	r3, [r2, #12]
 80009e6:	6913      	ldr	r3, [r2, #16]
 80009e8:	f023 0301 	bic.w	r3, r3, #1
 80009ec:	6113      	str	r3, [r2, #16]
 80009ee:	2001      	movs	r0, #1
 80009f0:	e7d7      	b.n	80009a2 <HAL_FLASH_Program+0xf6>
 80009f2:	2104      	movs	r1, #4
 80009f4:	e7ec      	b.n	80009d0 <HAL_FLASH_Program+0x124>
 80009f6:	2003      	movs	r0, #3
 80009f8:	e7d3      	b.n	80009a2 <HAL_FLASH_Program+0xf6>
 80009fa:	4b10      	ldr	r3, [pc, #64]	; (8000a3c <HAL_FLASH_Program+0x190>)
 80009fc:	68db      	ldr	r3, [r3, #12]
 80009fe:	f013 0310 	ands.w	r3, r3, #16
 8000a02:	d110      	bne.n	8000a26 <HAL_FLASH_Program+0x17a>
 8000a04:	2104      	movs	r1, #4
 8000a06:	4a0d      	ldr	r2, [pc, #52]	; (8000a3c <HAL_FLASH_Program+0x190>)
 8000a08:	68d2      	ldr	r2, [r2, #12]
 8000a0a:	0752      	lsls	r2, r2, #29
 8000a0c:	d504      	bpl.n	8000a18 <HAL_FLASH_Program+0x16c>
 8000a0e:	69f2      	ldr	r2, [r6, #28]
 8000a10:	f042 0201 	orr.w	r2, r2, #1
 8000a14:	460b      	mov	r3, r1
 8000a16:	61f2      	str	r2, [r6, #28]
 8000a18:	4a08      	ldr	r2, [pc, #32]	; (8000a3c <HAL_FLASH_Program+0x190>)
 8000a1a:	2001      	movs	r0, #1
 8000a1c:	60d3      	str	r3, [r2, #12]
 8000a1e:	e7c0      	b.n	80009a2 <HAL_FLASH_Program+0xf6>
 8000a20:	2002      	movs	r0, #2
 8000a22:	e8bd 8ff8 	ldmia.w	sp!, {r3, r4, r5, r6, r7, r8, r9, sl, fp, pc}
 8000a26:	69f3      	ldr	r3, [r6, #28]
 8000a28:	f043 0302 	orr.w	r3, r3, #2
 8000a2c:	61f3      	str	r3, [r6, #28]
 8000a2e:	2114      	movs	r1, #20
 8000a30:	2310      	movs	r3, #16
 8000a32:	e7e8      	b.n	8000a06 <HAL_FLASH_Program+0x15a>
 8000a34:	4657      	mov	r7, sl
 8000a36:	e76f      	b.n	8000918 <HAL_FLASH_Program+0x6c>
 8000a38:	200012d8 	.word	0x200012d8
 8000a3c:	40022000 	.word	0x40022000

08000a40 <HAL_FLASH_Unlock>:
 8000a40:	4b06      	ldr	r3, [pc, #24]	; (8000a5c <HAL_FLASH_Unlock+0x1c>)
 8000a42:	6918      	ldr	r0, [r3, #16]
 8000a44:	f010 0080 	ands.w	r0, r0, #128	; 0x80
 8000a48:	d006      	beq.n	8000a58 <HAL_FLASH_Unlock+0x18>
 8000a4a:	4905      	ldr	r1, [pc, #20]	; (8000a60 <HAL_FLASH_Unlock+0x20>)
 8000a4c:	4a05      	ldr	r2, [pc, #20]	; (8000a64 <HAL_FLASH_Unlock+0x24>)
 8000a4e:	6059      	str	r1, [r3, #4]
 8000a50:	605a      	str	r2, [r3, #4]
 8000a52:	6918      	ldr	r0, [r3, #16]
 8000a54:	f3c0 10c0 	ubfx	r0, r0, #7, #1
 8000a58:	4770      	bx	lr
 8000a5a:	bf00      	nop
 8000a5c:	40022000 	.word	0x40022000
 8000a60:	45670123 	.word	0x45670123
 8000a64:	cdef89ab 	.word	0xcdef89ab

08000a68 <HAL_FLASH_Lock>:
 8000a68:	4a03      	ldr	r2, [pc, #12]	; (8000a78 <HAL_FLASH_Lock+0x10>)
 8000a6a:	6913      	ldr	r3, [r2, #16]
 8000a6c:	f043 0380 	orr.w	r3, r3, #128	; 0x80
 8000a70:	6113      	str	r3, [r2, #16]
 8000a72:	2000      	movs	r0, #0
 8000a74:	4770      	bx	lr
 8000a76:	bf00      	nop
 8000a78:	40022000 	.word	0x40022000

08000a7c <FLASH_WaitForLastOperation>:
 8000a7c:	b570      	push	{r4, r5, r6, lr}
 8000a7e:	4604      	mov	r4, r0
 8000a80:	f7ff fe8e 	bl	80007a0 <HAL_GetTick>
 8000a84:	4e1e      	ldr	r6, [pc, #120]	; (8000b00 <FLASH_WaitForLastOperation+0x84>)
 8000a86:	4605      	mov	r5, r0
 8000a88:	1c60      	adds	r0, r4, #1
 8000a8a:	d112      	bne.n	8000ab2 <FLASH_WaitForLastOperation+0x36>
 8000a8c:	4a1c      	ldr	r2, [pc, #112]	; (8000b00 <FLASH_WaitForLastOperation+0x84>)
 8000a8e:	68d3      	ldr	r3, [r2, #12]
 8000a90:	07d9      	lsls	r1, r3, #31
 8000a92:	d4fc      	bmi.n	8000a8e <FLASH_WaitForLastOperation+0x12>
 8000a94:	4b1a      	ldr	r3, [pc, #104]	; (8000b00 <FLASH_WaitForLastOperation+0x84>)
 8000a96:	68da      	ldr	r2, [r3, #12]
 8000a98:	0690      	lsls	r0, r2, #26
 8000a9a:	bf44      	itt	mi
 8000a9c:	2220      	movmi	r2, #32
 8000a9e:	60da      	strmi	r2, [r3, #12]
 8000aa0:	4b17      	ldr	r3, [pc, #92]	; (8000b00 <FLASH_WaitForLastOperation+0x84>)
 8000aa2:	68da      	ldr	r2, [r3, #12]
 8000aa4:	06d1      	lsls	r1, r2, #27
 8000aa6:	d40f      	bmi.n	8000ac8 <FLASH_WaitForLastOperation+0x4c>
 8000aa8:	68d8      	ldr	r0, [r3, #12]
 8000aaa:	f010 0004 	ands.w	r0, r0, #4
 8000aae:	d10b      	bne.n	8000ac8 <FLASH_WaitForLastOperation+0x4c>
 8000ab0:	bd70      	pop	{r4, r5, r6, pc}
 8000ab2:	68f3      	ldr	r3, [r6, #12]
 8000ab4:	07db      	lsls	r3, r3, #31
 8000ab6:	d5ed      	bpl.n	8000a94 <FLASH_WaitForLastOperation+0x18>
 8000ab8:	b124      	cbz	r4, 8000ac4 <FLASH_WaitForLastOperation+0x48>
 8000aba:	f7ff fe71 	bl	80007a0 <HAL_GetTick>
 8000abe:	1b40      	subs	r0, r0, r5
 8000ac0:	42a0      	cmp	r0, r4
 8000ac2:	d9e1      	bls.n	8000a88 <FLASH_WaitForLastOperation+0xc>
 8000ac4:	2003      	movs	r0, #3
 8000ac6:	bd70      	pop	{r4, r5, r6, pc}
 8000ac8:	4b0d      	ldr	r3, [pc, #52]	; (8000b00 <FLASH_WaitForLastOperation+0x84>)
 8000aca:	68db      	ldr	r3, [r3, #12]
 8000acc:	f013 0310 	ands.w	r3, r3, #16
 8000ad0:	d014      	beq.n	8000afc <FLASH_WaitForLastOperation+0x80>
 8000ad2:	4a0c      	ldr	r2, [pc, #48]	; (8000b04 <FLASH_WaitForLastOperation+0x88>)
 8000ad4:	69d3      	ldr	r3, [r2, #28]
 8000ad6:	f043 0302 	orr.w	r3, r3, #2
 8000ada:	61d3      	str	r3, [r2, #28]
 8000adc:	2014      	movs	r0, #20
 8000ade:	2310      	movs	r3, #16
 8000ae0:	4a07      	ldr	r2, [pc, #28]	; (8000b00 <FLASH_WaitForLastOperation+0x84>)
 8000ae2:	68d2      	ldr	r2, [r2, #12]
 8000ae4:	0752      	lsls	r2, r2, #29
 8000ae6:	d505      	bpl.n	8000af4 <FLASH_WaitForLastOperation+0x78>
 8000ae8:	4906      	ldr	r1, [pc, #24]	; (8000b04 <FLASH_WaitForLastOperation+0x88>)
 8000aea:	69ca      	ldr	r2, [r1, #28]
 8000aec:	f042 0201 	orr.w	r2, r2, #1
 8000af0:	4603      	mov	r3, r0
 8000af2:	61ca      	str	r2, [r1, #28]
 8000af4:	4a02      	ldr	r2, [pc, #8]	; (8000b00 <FLASH_WaitForLastOperation+0x84>)
 8000af6:	2001      	movs	r0, #1
 8000af8:	60d3      	str	r3, [r2, #12]
 8000afa:	bd70      	pop	{r4, r5, r6, pc}
 8000afc:	2004      	movs	r0, #4
 8000afe:	e7ef      	b.n	8000ae0 <FLASH_WaitForLastOperation+0x64>
 8000b00:	40022000 	.word	0x40022000
 8000b04:	200012d8 	.word	0x200012d8

08000b08 <HAL_FLASHEx_Erase>:
 8000b08:	e92d 43f8 	stmdb	sp!, {r3, r4, r5, r6, r7, r8, r9, lr}
 8000b0c:	4e2d      	ldr	r6, [pc, #180]	; (8000bc4 <HAL_FLASHEx_Erase+0xbc>)
 8000b0e:	7e33      	ldrb	r3, [r6, #24]
 8000b10:	2b01      	cmp	r3, #1
 8000b12:	d054      	beq.n	8000bbe <HAL_FLASHEx_Erase+0xb6>
 8000b14:	2301      	movs	r3, #1
 8000b16:	7633      	strb	r3, [r6, #24]
 8000b18:	6803      	ldr	r3, [r0, #0]
 8000b1a:	2b01      	cmp	r3, #1
 8000b1c:	4681      	mov	r9, r0
 8000b1e:	d031      	beq.n	8000b84 <HAL_FLASHEx_Erase+0x7c>
 8000b20:	f24c 3050 	movw	r0, #50000	; 0xc350
 8000b24:	4688      	mov	r8, r1
 8000b26:	f7ff ffa9 	bl	8000a7c <FLASH_WaitForLastOperation>
 8000b2a:	bb80      	cbnz	r0, 8000b8e <HAL_FLASHEx_Erase+0x86>
 8000b2c:	f04f 33ff 	mov.w	r3, #4294967295
 8000b30:	f8c8 3000 	str.w	r3, [r8]
 8000b34:	e9d9 5301 	ldrd	r5, r3, [r9, #4]
 8000b38:	eb05 23c3 	add.w	r3, r5, r3, lsl #11
 8000b3c:	429d      	cmp	r5, r3
 8000b3e:	d226      	bcs.n	8000b8e <HAL_FLASHEx_Erase+0x86>
 8000b40:	4c21      	ldr	r4, [pc, #132]	; (8000bc8 <HAL_FLASHEx_Erase+0xc0>)
 8000b42:	4607      	mov	r7, r0
 8000b44:	e007      	b.n	8000b56 <HAL_FLASHEx_Erase+0x4e>
 8000b46:	e9d9 3201 	ldrd	r3, r2, [r9, #4]
 8000b4a:	f505 6500 	add.w	r5, r5, #2048	; 0x800
 8000b4e:	eb03 23c2 	add.w	r3, r3, r2, lsl #11
 8000b52:	42ab      	cmp	r3, r5
 8000b54:	d91c      	bls.n	8000b90 <HAL_FLASHEx_Erase+0x88>
 8000b56:	61f7      	str	r7, [r6, #28]
 8000b58:	6923      	ldr	r3, [r4, #16]
 8000b5a:	f043 0302 	orr.w	r3, r3, #2
 8000b5e:	6123      	str	r3, [r4, #16]
 8000b60:	6165      	str	r5, [r4, #20]
 8000b62:	6923      	ldr	r3, [r4, #16]
 8000b64:	f043 0340 	orr.w	r3, r3, #64	; 0x40
 8000b68:	6123      	str	r3, [r4, #16]
 8000b6a:	f24c 3050 	movw	r0, #50000	; 0xc350
 8000b6e:	f7ff ff85 	bl	8000a7c <FLASH_WaitForLastOperation>
 8000b72:	6923      	ldr	r3, [r4, #16]
 8000b74:	f023 0302 	bic.w	r3, r3, #2
 8000b78:	6123      	str	r3, [r4, #16]
 8000b7a:	2800      	cmp	r0, #0
 8000b7c:	d0e3      	beq.n	8000b46 <HAL_FLASHEx_Erase+0x3e>
 8000b7e:	f8c8 5000 	str.w	r5, [r8]
 8000b82:	e005      	b.n	8000b90 <HAL_FLASHEx_Erase+0x88>
 8000b84:	f24c 3050 	movw	r0, #50000	; 0xc350
 8000b88:	f7ff ff78 	bl	8000a7c <FLASH_WaitForLastOperation>
 8000b8c:	b120      	cbz	r0, 8000b98 <HAL_FLASHEx_Erase+0x90>
 8000b8e:	2001      	movs	r0, #1
 8000b90:	2300      	movs	r3, #0
 8000b92:	7633      	strb	r3, [r6, #24]
 8000b94:	e8bd 83f8 	ldmia.w	sp!, {r3, r4, r5, r6, r7, r8, r9, pc}
 8000b98:	4c0b      	ldr	r4, [pc, #44]	; (8000bc8 <HAL_FLASHEx_Erase+0xc0>)
 8000b9a:	61f0      	str	r0, [r6, #28]
 8000b9c:	6923      	ldr	r3, [r4, #16]
 8000b9e:	f043 0304 	orr.w	r3, r3, #4
 8000ba2:	6123      	str	r3, [r4, #16]
 8000ba4:	6923      	ldr	r3, [r4, #16]
 8000ba6:	f043 0340 	orr.w	r3, r3, #64	; 0x40
 8000baa:	6123      	str	r3, [r4, #16]
 8000bac:	f24c 3050 	movw	r0, #50000	; 0xc350
 8000bb0:	f7ff ff64 	bl	8000a7c <FLASH_WaitForLastOperation>
 8000bb4:	6923      	ldr	r3, [r4, #16]
 8000bb6:	f023 0304 	bic.w	r3, r3, #4
 8000bba:	6123      	str	r3, [r4, #16]
 8000bbc:	e7e8      	b.n	8000b90 <HAL_FLASHEx_Erase+0x88>
 8000bbe:	2002      	movs	r0, #2
 8000bc0:	e8bd 83f8 	ldmia.w	sp!, {r3, r4, r5, r6, r7, r8, r9, pc}
 8000bc4:	200012d8 	.word	0x200012d8
 8000bc8:	40022000 	.word	0x40022000

08000bcc <HAL_GPIO_Init>:
 8000bcc:	e92d 4ff0 	stmdb	sp!, {r4, r5, r6, r7, r8, r9, sl, fp, lr}
 8000bd0:	680e      	ldr	r6, [r1, #0]
 8000bd2:	b083      	sub	sp, #12
 8000bd4:	2e00      	cmp	r6, #0
 8000bd6:	f000 8088 	beq.w	8000cea <HAL_GPIO_Init+0x11e>
 8000bda:	f8df e1c0 	ldr.w	lr, [pc, #448]	; 8000d9c <HAL_GPIO_Init+0x1d0>
 8000bde:	2300      	movs	r3, #0
 8000be0:	2201      	movs	r2, #1
 8000be2:	fa02 f403 	lsl.w	r4, r2, r3
 8000be6:	ea14 0c06 	ands.w	ip, r4, r6
 8000bea:	d079      	beq.n	8000ce0 <HAL_GPIO_Init+0x114>
 8000bec:	684d      	ldr	r5, [r1, #4]
 8000bee:	f025 0a10 	bic.w	sl, r5, #16
 8000bf2:	f10a 32ff 	add.w	r2, sl, #4294967295
 8000bf6:	2a01      	cmp	r2, #1
 8000bf8:	ea4f 0843 	mov.w	r8, r3, lsl #1
 8000bfc:	f04f 0203 	mov.w	r2, #3
 8000c00:	d976      	bls.n	8000cf0 <HAL_GPIO_Init+0x124>
 8000c02:	68c7      	ldr	r7, [r0, #12]
 8000c04:	688c      	ldr	r4, [r1, #8]
 8000c06:	fa02 f208 	lsl.w	r2, r2, r8
 8000c0a:	ea27 0702 	bic.w	r7, r7, r2
 8000c0e:	fa04 f408 	lsl.w	r4, r4, r8
 8000c12:	433c      	orrs	r4, r7
 8000c14:	60c4      	str	r4, [r0, #12]
 8000c16:	43d7      	mvns	r7, r2
 8000c18:	6804      	ldr	r4, [r0, #0]
 8000c1a:	f005 0203 	and.w	r2, r5, #3
 8000c1e:	4027      	ands	r7, r4
 8000c20:	fa02 f208 	lsl.w	r2, r2, r8
 8000c24:	433a      	orrs	r2, r7
 8000c26:	00ec      	lsls	r4, r5, #3
 8000c28:	6002      	str	r2, [r0, #0]
 8000c2a:	d559      	bpl.n	8000ce0 <HAL_GPIO_Init+0x114>
 8000c2c:	4c56      	ldr	r4, [pc, #344]	; (8000d88 <HAL_GPIO_Init+0x1bc>)
 8000c2e:	69a2      	ldr	r2, [r4, #24]
 8000c30:	f042 0201 	orr.w	r2, r2, #1
 8000c34:	61a2      	str	r2, [r4, #24]
 8000c36:	69a2      	ldr	r2, [r4, #24]
 8000c38:	f023 0403 	bic.w	r4, r3, #3
 8000c3c:	f104 4480 	add.w	r4, r4, #1073741824	; 0x40000000
 8000c40:	f002 0201 	and.w	r2, r2, #1
 8000c44:	f504 3480 	add.w	r4, r4, #65536	; 0x10000
 8000c48:	9201      	str	r2, [sp, #4]
 8000c4a:	f003 0203 	and.w	r2, r3, #3
 8000c4e:	ea4f 0a82 	mov.w	sl, r2, lsl #2
 8000c52:	9f01      	ldr	r7, [sp, #4]
 8000c54:	68a7      	ldr	r7, [r4, #8]
 8000c56:	220f      	movs	r2, #15
 8000c58:	fa02 f80a 	lsl.w	r8, r2, sl
 8000c5c:	f1b0 4f90 	cmp.w	r0, #1207959552	; 0x48000000
 8000c60:	ea27 0708 	bic.w	r7, r7, r8
 8000c64:	d015      	beq.n	8000c92 <HAL_GPIO_Init+0xc6>
 8000c66:	4a49      	ldr	r2, [pc, #292]	; (8000d8c <HAL_GPIO_Init+0x1c0>)
 8000c68:	4290      	cmp	r0, r2
 8000c6a:	f000 8081 	beq.w	8000d70 <HAL_GPIO_Init+0x1a4>
 8000c6e:	4a48      	ldr	r2, [pc, #288]	; (8000d90 <HAL_GPIO_Init+0x1c4>)
 8000c70:	4290      	cmp	r0, r2
 8000c72:	f000 8082 	beq.w	8000d7a <HAL_GPIO_Init+0x1ae>
 8000c76:	4a47      	ldr	r2, [pc, #284]	; (8000d94 <HAL_GPIO_Init+0x1c8>)
 8000c78:	4290      	cmp	r0, r2
 8000c7a:	d073      	beq.n	8000d64 <HAL_GPIO_Init+0x198>
 8000c7c:	4a46      	ldr	r2, [pc, #280]	; (8000d98 <HAL_GPIO_Init+0x1cc>)
 8000c7e:	4290      	cmp	r0, r2
 8000c80:	bf13      	iteet	ne
 8000c82:	2205      	movne	r2, #5
 8000c84:	f04f 0804 	moveq.w	r8, #4
 8000c88:	fa08 f20a 	lsleq.w	r2, r8, sl
 8000c8c:	fa02 f20a 	lslne.w	r2, r2, sl
 8000c90:	4317      	orrs	r7, r2
 8000c92:	60a7      	str	r7, [r4, #8]
 8000c94:	f8de 4000 	ldr.w	r4, [lr]
 8000c98:	ea6f 070c 	mvn.w	r7, ip
 8000c9c:	03ea      	lsls	r2, r5, #15
 8000c9e:	bf54      	ite	pl
 8000ca0:	403c      	andpl	r4, r7
 8000ca2:	ea4c 0404 	orrmi.w	r4, ip, r4
 8000ca6:	f8ce 4000 	str.w	r4, [lr]
 8000caa:	f8de 4004 	ldr.w	r4, [lr, #4]
 8000cae:	03aa      	lsls	r2, r5, #14
 8000cb0:	bf54      	ite	pl
 8000cb2:	403c      	andpl	r4, r7
 8000cb4:	ea4c 0404 	orrmi.w	r4, ip, r4
 8000cb8:	f8ce 4004 	str.w	r4, [lr, #4]
 8000cbc:	f8de 4008 	ldr.w	r4, [lr, #8]
 8000cc0:	02ea      	lsls	r2, r5, #11
 8000cc2:	bf54      	ite	pl
 8000cc4:	403c      	andpl	r4, r7
 8000cc6:	ea4c 0404 	orrmi.w	r4, ip, r4
 8000cca:	f8ce 4008 	str.w	r4, [lr, #8]
 8000cce:	f8de 200c 	ldr.w	r2, [lr, #12]
 8000cd2:	02ac      	lsls	r4, r5, #10
 8000cd4:	bf54      	ite	pl
 8000cd6:	403a      	andpl	r2, r7
 8000cd8:	ea4c 0202 	orrmi.w	r2, ip, r2
 8000cdc:	f8ce 200c 	str.w	r2, [lr, #12]
 8000ce0:	3301      	adds	r3, #1
 8000ce2:	fa36 f203 	lsrs.w	r2, r6, r3
 8000ce6:	f47f af7b 	bne.w	8000be0 <HAL_GPIO_Init+0x14>
 8000cea:	b003      	add	sp, #12
 8000cec:	e8bd 8ff0 	ldmia.w	sp!, {r4, r5, r6, r7, r8, r9, sl, fp, pc}
 8000cf0:	6887      	ldr	r7, [r0, #8]
 8000cf2:	f8d1 9008 	ldr.w	r9, [r1, #8]
 8000cf6:	fa02 f208 	lsl.w	r2, r2, r8
 8000cfa:	ea27 0b02 	bic.w	fp, r7, r2
 8000cfe:	68cf      	ldr	r7, [r1, #12]
 8000d00:	fa07 f708 	lsl.w	r7, r7, r8
 8000d04:	ea47 070b 	orr.w	r7, r7, fp
 8000d08:	6087      	str	r7, [r0, #8]
 8000d0a:	6847      	ldr	r7, [r0, #4]
 8000d0c:	f3c5 1b00 	ubfx	fp, r5, #4, #1
 8000d10:	ea27 0704 	bic.w	r7, r7, r4
 8000d14:	465c      	mov	r4, fp
 8000d16:	409c      	lsls	r4, r3
 8000d18:	433c      	orrs	r4, r7
 8000d1a:	6044      	str	r4, [r0, #4]
 8000d1c:	68c4      	ldr	r4, [r0, #12]
 8000d1e:	fa09 f908 	lsl.w	r9, r9, r8
 8000d22:	ea24 0402 	bic.w	r4, r4, r2
 8000d26:	ea49 0404 	orr.w	r4, r9, r4
 8000d2a:	f1ba 0f02 	cmp.w	sl, #2
 8000d2e:	ea6f 0702 	mvn.w	r7, r2
 8000d32:	60c4      	str	r4, [r0, #12]
 8000d34:	f47f af70 	bne.w	8000c18 <HAL_GPIO_Init+0x4c>
 8000d38:	ea4f 09d3 	mov.w	r9, r3, lsr #3
 8000d3c:	eb00 0989 	add.w	r9, r0, r9, lsl #2
 8000d40:	f003 0207 	and.w	r2, r3, #7
 8000d44:	f8d9 4020 	ldr.w	r4, [r9, #32]
 8000d48:	0092      	lsls	r2, r2, #2
 8000d4a:	f04f 0a0f 	mov.w	sl, #15
 8000d4e:	fa0a fb02 	lsl.w	fp, sl, r2
 8000d52:	ea24 0a0b 	bic.w	sl, r4, fp
 8000d56:	690c      	ldr	r4, [r1, #16]
 8000d58:	4094      	lsls	r4, r2
 8000d5a:	ea44 040a 	orr.w	r4, r4, sl
 8000d5e:	f8c9 4020 	str.w	r4, [r9, #32]
 8000d62:	e759      	b.n	8000c18 <HAL_GPIO_Init+0x4c>
 8000d64:	f04f 0803 	mov.w	r8, #3
 8000d68:	fa08 f20a 	lsl.w	r2, r8, sl
 8000d6c:	4317      	orrs	r7, r2
 8000d6e:	e790      	b.n	8000c92 <HAL_GPIO_Init+0xc6>
 8000d70:	2201      	movs	r2, #1
 8000d72:	fa02 f20a 	lsl.w	r2, r2, sl
 8000d76:	4317      	orrs	r7, r2
 8000d78:	e78b      	b.n	8000c92 <HAL_GPIO_Init+0xc6>
 8000d7a:	f04f 0902 	mov.w	r9, #2
 8000d7e:	fa09 f20a 	lsl.w	r2, r9, sl
 8000d82:	4317      	orrs	r7, r2
 8000d84:	e785      	b.n	8000c92 <HAL_GPIO_Init+0xc6>
 8000d86:	bf00      	nop
 8000d88:	40021000 	.word	0x40021000
 8000d8c:	48000400 	.word	0x48000400
 8000d90:	48000800 	.word	0x48000800
 8000d94:	48000c00 	.word	0x48000c00
 8000d98:	48001000 	.word	0x48001000
 8000d9c:	40010400 	.word	0x40010400

08000da0 <HAL_GPIO_WritePin>:
 8000da0:	b10a      	cbz	r2, 8000da6 <HAL_GPIO_WritePin+0x6>
 8000da2:	6181      	str	r1, [r0, #24]
 8000da4:	4770      	bx	lr
 8000da6:	6281      	str	r1, [r0, #40]	; 0x28
 8000da8:	4770      	bx	lr
 8000daa:	bf00      	nop

08000dac <HAL_GPIO_EXTI_IRQHandler>:
 8000dac:	4a04      	ldr	r2, [pc, #16]	; (8000dc0 <HAL_GPIO_EXTI_IRQHandler+0x14>)
 8000dae:	6951      	ldr	r1, [r2, #20]
 8000db0:	4201      	tst	r1, r0
 8000db2:	d100      	bne.n	8000db6 <HAL_GPIO_EXTI_IRQHandler+0xa>
 8000db4:	4770      	bx	lr
 8000db6:	b508      	push	{r3, lr}
 8000db8:	6150      	str	r0, [r2, #20]
 8000dba:	f002 fd77 	bl	80038ac <HAL_GPIO_EXTI_Callback>
 8000dbe:	bd08      	pop	{r3, pc}
 8000dc0:	40010400 	.word	0x40010400

08000dc4 <I2C_WaitOnTXISFlagUntilTimeout>:
 8000dc4:	b570      	push	{r4, r5, r6, lr}
 8000dc6:	4604      	mov	r4, r0
 8000dc8:	460d      	mov	r5, r1
 8000dca:	4616      	mov	r6, r2
 8000dcc:	1c6a      	adds	r2, r5, #1
 8000dce:	6823      	ldr	r3, [r4, #0]
 8000dd0:	d12c      	bne.n	8000e2c <I2C_WaitOnTXISFlagUntilTimeout+0x68>
 8000dd2:	699a      	ldr	r2, [r3, #24]
 8000dd4:	0790      	lsls	r0, r2, #30
 8000dd6:	d427      	bmi.n	8000e28 <I2C_WaitOnTXISFlagUntilTimeout+0x64>
 8000dd8:	699a      	ldr	r2, [r3, #24]
 8000dda:	06d1      	lsls	r1, r2, #27
 8000ddc:	d5f9      	bpl.n	8000dd2 <I2C_WaitOnTXISFlagUntilTimeout+0xe>
 8000dde:	699a      	ldr	r2, [r3, #24]
 8000de0:	0691      	lsls	r1, r2, #26
 8000de2:	d5fc      	bpl.n	8000dde <I2C_WaitOnTXISFlagUntilTimeout+0x1a>
 8000de4:	2110      	movs	r1, #16
 8000de6:	2220      	movs	r2, #32
 8000de8:	61d9      	str	r1, [r3, #28]
 8000dea:	61da      	str	r2, [r3, #28]
 8000dec:	699a      	ldr	r2, [r3, #24]
 8000dee:	0790      	lsls	r0, r2, #30
 8000df0:	bf44      	itt	mi
 8000df2:	2200      	movmi	r2, #0
 8000df4:	629a      	strmi	r2, [r3, #40]	; 0x28
 8000df6:	699a      	ldr	r2, [r3, #24]
 8000df8:	07d1      	lsls	r1, r2, #31
 8000dfa:	d403      	bmi.n	8000e04 <I2C_WaitOnTXISFlagUntilTimeout+0x40>
 8000dfc:	699a      	ldr	r2, [r3, #24]
 8000dfe:	f042 0201 	orr.w	r2, r2, #1
 8000e02:	619a      	str	r2, [r3, #24]
 8000e04:	685a      	ldr	r2, [r3, #4]
 8000e06:	4918      	ldr	r1, [pc, #96]	; (8000e68 <I2C_WaitOnTXISFlagUntilTimeout+0xa4>)
 8000e08:	400a      	ands	r2, r1
 8000e0a:	605a      	str	r2, [r3, #4]
 8000e0c:	6c63      	ldr	r3, [r4, #68]	; 0x44
 8000e0e:	2120      	movs	r1, #32
 8000e10:	f043 0304 	orr.w	r3, r3, #4
 8000e14:	2200      	movs	r2, #0
 8000e16:	6463      	str	r3, [r4, #68]	; 0x44
 8000e18:	f884 2040 	strb.w	r2, [r4, #64]	; 0x40
 8000e1c:	f884 1041 	strb.w	r1, [r4, #65]	; 0x41
 8000e20:	f884 2042 	strb.w	r2, [r4, #66]	; 0x42
 8000e24:	2001      	movs	r0, #1
 8000e26:	bd70      	pop	{r4, r5, r6, pc}
 8000e28:	2000      	movs	r0, #0
 8000e2a:	bd70      	pop	{r4, r5, r6, pc}
 8000e2c:	699a      	ldr	r2, [r3, #24]
 8000e2e:	0792      	lsls	r2, r2, #30
 8000e30:	d4fa      	bmi.n	8000e28 <I2C_WaitOnTXISFlagUntilTimeout+0x64>
 8000e32:	699a      	ldr	r2, [r3, #24]
 8000e34:	06d0      	lsls	r0, r2, #27
 8000e36:	d412      	bmi.n	8000e5e <I2C_WaitOnTXISFlagUntilTimeout+0x9a>
 8000e38:	f7ff fcb2 	bl	80007a0 <HAL_GetTick>
 8000e3c:	1b80      	subs	r0, r0, r6
 8000e3e:	42a8      	cmp	r0, r5
 8000e40:	d801      	bhi.n	8000e46 <I2C_WaitOnTXISFlagUntilTimeout+0x82>
 8000e42:	2d00      	cmp	r5, #0
 8000e44:	d1c2      	bne.n	8000dcc <I2C_WaitOnTXISFlagUntilTimeout+0x8>
 8000e46:	6c63      	ldr	r3, [r4, #68]	; 0x44
 8000e48:	2120      	movs	r1, #32
 8000e4a:	430b      	orrs	r3, r1
 8000e4c:	e7e2      	b.n	8000e14 <I2C_WaitOnTXISFlagUntilTimeout+0x50>
 8000e4e:	f7ff fca7 	bl	80007a0 <HAL_GetTick>
 8000e52:	1b80      	subs	r0, r0, r6
 8000e54:	4285      	cmp	r5, r0
 8000e56:	d3f6      	bcc.n	8000e46 <I2C_WaitOnTXISFlagUntilTimeout+0x82>
 8000e58:	2d00      	cmp	r5, #0
 8000e5a:	d0f4      	beq.n	8000e46 <I2C_WaitOnTXISFlagUntilTimeout+0x82>
 8000e5c:	6823      	ldr	r3, [r4, #0]
 8000e5e:	6999      	ldr	r1, [r3, #24]
 8000e60:	068a      	lsls	r2, r1, #26
 8000e62:	d5f4      	bpl.n	8000e4e <I2C_WaitOnTXISFlagUntilTimeout+0x8a>
 8000e64:	e7be      	b.n	8000de4 <I2C_WaitOnTXISFlagUntilTimeout+0x20>
 8000e66:	bf00      	nop
 8000e68:	fe00e800 	.word	0xfe00e800

08000e6c <I2C_WaitOnSTOPFlagUntilTimeout>:
 8000e6c:	b570      	push	{r4, r5, r6, lr}
 8000e6e:	4604      	mov	r4, r0
 8000e70:	4616      	mov	r6, r2
 8000e72:	460d      	mov	r5, r1
 8000e74:	b929      	cbnz	r1, 8000e82 <I2C_WaitOnSTOPFlagUntilTimeout+0x16>
 8000e76:	e03d      	b.n	8000ef4 <I2C_WaitOnSTOPFlagUntilTimeout+0x88>
 8000e78:	f7ff fc92 	bl	80007a0 <HAL_GetTick>
 8000e7c:	1b80      	subs	r0, r0, r6
 8000e7e:	4285      	cmp	r5, r0
 8000e80:	d341      	bcc.n	8000f06 <I2C_WaitOnSTOPFlagUntilTimeout+0x9a>
 8000e82:	6823      	ldr	r3, [r4, #0]
 8000e84:	6999      	ldr	r1, [r3, #24]
 8000e86:	0688      	lsls	r0, r1, #26
 8000e88:	d441      	bmi.n	8000f0e <I2C_WaitOnSTOPFlagUntilTimeout+0xa2>
 8000e8a:	6999      	ldr	r1, [r3, #24]
 8000e8c:	06c9      	lsls	r1, r1, #27
 8000e8e:	d5f3      	bpl.n	8000e78 <I2C_WaitOnSTOPFlagUntilTimeout+0xc>
 8000e90:	1c68      	adds	r0, r5, #1
 8000e92:	d124      	bne.n	8000ede <I2C_WaitOnSTOPFlagUntilTimeout+0x72>
 8000e94:	699a      	ldr	r2, [r3, #24]
 8000e96:	0691      	lsls	r1, r2, #26
 8000e98:	d5fc      	bpl.n	8000e94 <I2C_WaitOnSTOPFlagUntilTimeout+0x28>
 8000e9a:	2110      	movs	r1, #16
 8000e9c:	2220      	movs	r2, #32
 8000e9e:	61d9      	str	r1, [r3, #28]
 8000ea0:	61da      	str	r2, [r3, #28]
 8000ea2:	699a      	ldr	r2, [r3, #24]
 8000ea4:	0790      	lsls	r0, r2, #30
 8000ea6:	bf44      	itt	mi
 8000ea8:	2200      	movmi	r2, #0
 8000eaa:	629a      	strmi	r2, [r3, #40]	; 0x28
 8000eac:	699a      	ldr	r2, [r3, #24]
 8000eae:	07d1      	lsls	r1, r2, #31
 8000eb0:	d403      	bmi.n	8000eba <I2C_WaitOnSTOPFlagUntilTimeout+0x4e>
 8000eb2:	699a      	ldr	r2, [r3, #24]
 8000eb4:	f042 0201 	orr.w	r2, r2, #1
 8000eb8:	619a      	str	r2, [r3, #24]
 8000eba:	685a      	ldr	r2, [r3, #4]
 8000ebc:	4915      	ldr	r1, [pc, #84]	; (8000f14 <I2C_WaitOnSTOPFlagUntilTimeout+0xa8>)
 8000ebe:	400a      	ands	r2, r1
 8000ec0:	605a      	str	r2, [r3, #4]
 8000ec2:	6c63      	ldr	r3, [r4, #68]	; 0x44
 8000ec4:	2120      	movs	r1, #32
 8000ec6:	f043 0304 	orr.w	r3, r3, #4
 8000eca:	2200      	movs	r2, #0
 8000ecc:	6463      	str	r3, [r4, #68]	; 0x44
 8000ece:	f884 2040 	strb.w	r2, [r4, #64]	; 0x40
 8000ed2:	f884 1041 	strb.w	r1, [r4, #65]	; 0x41
 8000ed6:	f884 2042 	strb.w	r2, [r4, #66]	; 0x42
 8000eda:	2001      	movs	r0, #1
 8000edc:	bd70      	pop	{r4, r5, r6, pc}
 8000ede:	699a      	ldr	r2, [r3, #24]
 8000ee0:	0692      	lsls	r2, r2, #26
 8000ee2:	d4da      	bmi.n	8000e9a <I2C_WaitOnSTOPFlagUntilTimeout+0x2e>
 8000ee4:	f7ff fc5c 	bl	80007a0 <HAL_GetTick>
 8000ee8:	1b80      	subs	r0, r0, r6
 8000eea:	4285      	cmp	r5, r0
 8000eec:	d30b      	bcc.n	8000f06 <I2C_WaitOnSTOPFlagUntilTimeout+0x9a>
 8000eee:	b155      	cbz	r5, 8000f06 <I2C_WaitOnSTOPFlagUntilTimeout+0x9a>
 8000ef0:	6823      	ldr	r3, [r4, #0]
 8000ef2:	e7cd      	b.n	8000e90 <I2C_WaitOnSTOPFlagUntilTimeout+0x24>
 8000ef4:	6803      	ldr	r3, [r0, #0]
 8000ef6:	699a      	ldr	r2, [r3, #24]
 8000ef8:	0692      	lsls	r2, r2, #26
 8000efa:	d408      	bmi.n	8000f0e <I2C_WaitOnSTOPFlagUntilTimeout+0xa2>
 8000efc:	699a      	ldr	r2, [r3, #24]
 8000efe:	06d2      	lsls	r2, r2, #27
 8000f00:	d4c6      	bmi.n	8000e90 <I2C_WaitOnSTOPFlagUntilTimeout+0x24>
 8000f02:	f7ff fc4d 	bl	80007a0 <HAL_GetTick>
 8000f06:	6c63      	ldr	r3, [r4, #68]	; 0x44
 8000f08:	2120      	movs	r1, #32
 8000f0a:	430b      	orrs	r3, r1
 8000f0c:	e7dd      	b.n	8000eca <I2C_WaitOnSTOPFlagUntilTimeout+0x5e>
 8000f0e:	2000      	movs	r0, #0
 8000f10:	bd70      	pop	{r4, r5, r6, pc}
 8000f12:	bf00      	nop
 8000f14:	fe00e800 	.word	0xfe00e800

08000f18 <HAL_I2C_Init>:
 8000f18:	2800      	cmp	r0, #0
 8000f1a:	d04f      	beq.n	8000fbc <HAL_I2C_Init+0xa4>
 8000f1c:	b570      	push	{r4, r5, r6, lr}
 8000f1e:	f890 3041 	ldrb.w	r3, [r0, #65]	; 0x41
 8000f22:	4604      	mov	r4, r0
 8000f24:	f003 02ff 	and.w	r2, r3, #255	; 0xff
 8000f28:	2b00      	cmp	r3, #0
 8000f2a:	d042      	beq.n	8000fb2 <HAL_I2C_Init+0x9a>
 8000f2c:	6823      	ldr	r3, [r4, #0]
 8000f2e:	68e0      	ldr	r0, [r4, #12]
 8000f30:	2224      	movs	r2, #36	; 0x24
 8000f32:	f884 2041 	strb.w	r2, [r4, #65]	; 0x41
 8000f36:	6819      	ldr	r1, [r3, #0]
 8000f38:	6862      	ldr	r2, [r4, #4]
 8000f3a:	f021 0101 	bic.w	r1, r1, #1
 8000f3e:	f022 6270 	bic.w	r2, r2, #251658240	; 0xf000000
 8000f42:	6019      	str	r1, [r3, #0]
 8000f44:	611a      	str	r2, [r3, #16]
 8000f46:	689a      	ldr	r2, [r3, #8]
 8000f48:	2801      	cmp	r0, #1
 8000f4a:	f422 4200 	bic.w	r2, r2, #32768	; 0x8000
 8000f4e:	609a      	str	r2, [r3, #8]
 8000f50:	68a2      	ldr	r2, [r4, #8]
 8000f52:	d02a      	beq.n	8000faa <HAL_I2C_Init+0x92>
 8000f54:	f442 4204 	orr.w	r2, r2, #33792	; 0x8400
 8000f58:	2802      	cmp	r0, #2
 8000f5a:	609a      	str	r2, [r3, #8]
 8000f5c:	bf04      	itt	eq
 8000f5e:	f44f 6200 	moveq.w	r2, #2048	; 0x800
 8000f62:	605a      	streq	r2, [r3, #4]
 8000f64:	6859      	ldr	r1, [r3, #4]
 8000f66:	69a5      	ldr	r5, [r4, #24]
 8000f68:	e9d4 2604 	ldrd	r2, r6, [r4, #16]
 8000f6c:	f041 7100 	orr.w	r1, r1, #33554432	; 0x2000000
 8000f70:	f441 4100 	orr.w	r1, r1, #32768	; 0x8000
 8000f74:	6059      	str	r1, [r3, #4]
 8000f76:	4332      	orrs	r2, r6
 8000f78:	68d8      	ldr	r0, [r3, #12]
 8000f7a:	69e1      	ldr	r1, [r4, #28]
 8000f7c:	ea42 2205 	orr.w	r2, r2, r5, lsl #8
 8000f80:	6a25      	ldr	r5, [r4, #32]
 8000f82:	f420 4000 	bic.w	r0, r0, #32768	; 0x8000
 8000f86:	4329      	orrs	r1, r5
 8000f88:	60d8      	str	r0, [r3, #12]
 8000f8a:	60da      	str	r2, [r3, #12]
 8000f8c:	6019      	str	r1, [r3, #0]
 8000f8e:	6819      	ldr	r1, [r3, #0]
 8000f90:	2200      	movs	r2, #0
 8000f92:	f041 0101 	orr.w	r1, r1, #1
 8000f96:	2520      	movs	r5, #32
 8000f98:	6019      	str	r1, [r3, #0]
 8000f9a:	6462      	str	r2, [r4, #68]	; 0x44
 8000f9c:	f884 5041 	strb.w	r5, [r4, #65]	; 0x41
 8000fa0:	6322      	str	r2, [r4, #48]	; 0x30
 8000fa2:	f884 2042 	strb.w	r2, [r4, #66]	; 0x42
 8000fa6:	4610      	mov	r0, r2
 8000fa8:	bd70      	pop	{r4, r5, r6, pc}
 8000faa:	f442 4200 	orr.w	r2, r2, #32768	; 0x8000
 8000fae:	609a      	str	r2, [r3, #8]
 8000fb0:	e7d8      	b.n	8000f64 <HAL_I2C_Init+0x4c>
 8000fb2:	f880 2040 	strb.w	r2, [r0, #64]	; 0x40
 8000fb6:	f003 fe5b 	bl	8004c70 <HAL_I2C_MspInit>
 8000fba:	e7b7      	b.n	8000f2c <HAL_I2C_Init+0x14>
 8000fbc:	2001      	movs	r0, #1
 8000fbe:	4770      	bx	lr

08000fc0 <HAL_I2C_Mem_Write>:
 8000fc0:	e92d 47f0 	stmdb	sp!, {r4, r5, r6, r7, r8, r9, sl, lr}
 8000fc4:	4604      	mov	r4, r0
 8000fc6:	f890 0041 	ldrb.w	r0, [r0, #65]	; 0x41
 8000fca:	f8bd a024 	ldrh.w	sl, [sp, #36]	; 0x24
 8000fce:	9f0a      	ldr	r7, [sp, #40]	; 0x28
 8000fd0:	2820      	cmp	r0, #32
 8000fd2:	f040 80a6 	bne.w	8001122 <HAL_I2C_Mem_Write+0x162>
 8000fd6:	4699      	mov	r9, r3
 8000fd8:	9b08      	ldr	r3, [sp, #32]
 8000fda:	2b00      	cmp	r3, #0
 8000fdc:	f000 809b 	beq.w	8001116 <HAL_I2C_Mem_Write+0x156>
 8000fe0:	f1ba 0f00 	cmp.w	sl, #0
 8000fe4:	f000 8097 	beq.w	8001116 <HAL_I2C_Mem_Write+0x156>
 8000fe8:	f894 3040 	ldrb.w	r3, [r4, #64]	; 0x40
 8000fec:	2b01      	cmp	r3, #1
 8000fee:	f000 8098 	beq.w	8001122 <HAL_I2C_Mem_Write+0x162>
 8000ff2:	2301      	movs	r3, #1
 8000ff4:	f884 3040 	strb.w	r3, [r4, #64]	; 0x40
 8000ff8:	460d      	mov	r5, r1
 8000ffa:	4690      	mov	r8, r2
 8000ffc:	f7ff fbd0 	bl	80007a0 <HAL_GetTick>
 8001000:	4606      	mov	r6, r0
 8001002:	e005      	b.n	8001010 <HAL_I2C_Mem_Write+0x50>
 8001004:	f7ff fbcc 	bl	80007a0 <HAL_GetTick>
 8001008:	1b80      	subs	r0, r0, r6
 800100a:	2819      	cmp	r0, #25
 800100c:	f200 808c 	bhi.w	8001128 <HAL_I2C_Mem_Write+0x168>
 8001010:	6821      	ldr	r1, [r4, #0]
 8001012:	698b      	ldr	r3, [r1, #24]
 8001014:	f413 4300 	ands.w	r3, r3, #32768	; 0x8000
 8001018:	d1f4      	bne.n	8001004 <HAL_I2C_Mem_Write+0x44>
 800101a:	2021      	movs	r0, #33	; 0x21
 800101c:	2240      	movs	r2, #64	; 0x40
 800101e:	f884 0041 	strb.w	r0, [r4, #65]	; 0x41
 8001022:	f884 2042 	strb.w	r2, [r4, #66]	; 0x42
 8001026:	6463      	str	r3, [r4, #68]	; 0x44
 8001028:	f8a4 a02a 	strh.w	sl, [r4, #42]	; 0x2a
 800102c:	6848      	ldr	r0, [r1, #4]
 800102e:	f8df c1e4 	ldr.w	ip, [pc, #484]	; 8001214 <HAL_I2C_Mem_Write+0x254>
 8001032:	9a08      	ldr	r2, [sp, #32]
 8001034:	6262      	str	r2, [r4, #36]	; 0x24
 8001036:	ea0c 0200 	and.w	r2, ip, r0
 800103a:	fa5f f089 	uxtb.w	r0, r9
 800103e:	ea42 4000 	orr.w	r0, r2, r0, lsl #16
 8001042:	f3c5 0509 	ubfx	r5, r5, #0, #10
 8001046:	4328      	orrs	r0, r5
 8001048:	f040 4001 	orr.w	r0, r0, #2164260864	; 0x81000000
 800104c:	f440 5000 	orr.w	r0, r0, #8192	; 0x2000
 8001050:	6363      	str	r3, [r4, #52]	; 0x34
 8001052:	4632      	mov	r2, r6
 8001054:	6048      	str	r0, [r1, #4]
 8001056:	4639      	mov	r1, r7
 8001058:	4620      	mov	r0, r4
 800105a:	f7ff feb3 	bl	8000dc4 <I2C_WaitOnTXISFlagUntilTimeout>
 800105e:	2800      	cmp	r0, #0
 8001060:	f040 8094 	bne.w	800118c <HAL_I2C_Mem_Write+0x1cc>
 8001064:	f1b9 0f01 	cmp.w	r9, #1
 8001068:	f040 8084 	bne.w	8001174 <HAL_I2C_Mem_Write+0x1b4>
 800106c:	6821      	ldr	r1, [r4, #0]
 800106e:	fa5f f288 	uxtb.w	r2, r8
 8001072:	628a      	str	r2, [r1, #40]	; 0x28
 8001074:	1c78      	adds	r0, r7, #1
 8001076:	d165      	bne.n	8001144 <HAL_I2C_Mem_Write+0x184>
 8001078:	698b      	ldr	r3, [r1, #24]
 800107a:	061a      	lsls	r2, r3, #24
 800107c:	d5fc      	bpl.n	8001078 <HAL_I2C_Mem_Write+0xb8>
 800107e:	8d63      	ldrh	r3, [r4, #42]	; 0x2a
 8001080:	b29b      	uxth	r3, r3
 8001082:	2bff      	cmp	r3, #255	; 0xff
 8001084:	d86a      	bhi.n	800115c <HAL_I2C_Mem_Write+0x19c>
 8001086:	8d62      	ldrh	r2, [r4, #42]	; 0x2a
 8001088:	4860      	ldr	r0, [pc, #384]	; (800120c <HAL_I2C_Mem_Write+0x24c>)
 800108a:	684b      	ldr	r3, [r1, #4]
 800108c:	b292      	uxth	r2, r2
 800108e:	4003      	ands	r3, r0
 8001090:	432b      	orrs	r3, r5
 8001092:	b2d0      	uxtb	r0, r2
 8001094:	ea43 4300 	orr.w	r3, r3, r0, lsl #16
 8001098:	f043 7300 	orr.w	r3, r3, #33554432	; 0x2000000
 800109c:	8522      	strh	r2, [r4, #40]	; 0x28
 800109e:	604b      	str	r3, [r1, #4]
 80010a0:	f8df 8168 	ldr.w	r8, [pc, #360]	; 800120c <HAL_I2C_Mem_Write+0x24c>
 80010a4:	f8df a170 	ldr.w	sl, [pc, #368]	; 8001218 <HAL_I2C_Mem_Write+0x258>
 80010a8:	f04f 09ff 	mov.w	r9, #255	; 0xff
 80010ac:	e004      	b.n	80010b8 <HAL_I2C_Mem_Write+0xf8>
 80010ae:	8d63      	ldrh	r3, [r4, #42]	; 0x2a
 80010b0:	b29b      	uxth	r3, r3
 80010b2:	2b00      	cmp	r3, #0
 80010b4:	f000 808b 	beq.w	80011ce <HAL_I2C_Mem_Write+0x20e>
 80010b8:	4632      	mov	r2, r6
 80010ba:	4639      	mov	r1, r7
 80010bc:	4620      	mov	r0, r4
 80010be:	f7ff fe81 	bl	8000dc4 <I2C_WaitOnTXISFlagUntilTimeout>
 80010c2:	2800      	cmp	r0, #0
 80010c4:	f040 8081 	bne.w	80011ca <HAL_I2C_Mem_Write+0x20a>
 80010c8:	6a61      	ldr	r1, [r4, #36]	; 0x24
 80010ca:	6822      	ldr	r2, [r4, #0]
 80010cc:	f811 3b01 	ldrb.w	r3, [r1], #1
 80010d0:	6293      	str	r3, [r2, #40]	; 0x28
 80010d2:	8d63      	ldrh	r3, [r4, #42]	; 0x2a
 80010d4:	6261      	str	r1, [r4, #36]	; 0x24
 80010d6:	3b01      	subs	r3, #1
 80010d8:	b29b      	uxth	r3, r3
 80010da:	8563      	strh	r3, [r4, #42]	; 0x2a
 80010dc:	8d23      	ldrh	r3, [r4, #40]	; 0x28
 80010de:	8d61      	ldrh	r1, [r4, #42]	; 0x2a
 80010e0:	3b01      	subs	r3, #1
 80010e2:	b29b      	uxth	r3, r3
 80010e4:	b289      	uxth	r1, r1
 80010e6:	8523      	strh	r3, [r4, #40]	; 0x28
 80010e8:	2900      	cmp	r1, #0
 80010ea:	d0e0      	beq.n	80010ae <HAL_I2C_Mem_Write+0xee>
 80010ec:	2b00      	cmp	r3, #0
 80010ee:	d1de      	bne.n	80010ae <HAL_I2C_Mem_Write+0xee>
 80010f0:	1c78      	adds	r0, r7, #1
 80010f2:	d150      	bne.n	8001196 <HAL_I2C_Mem_Write+0x1d6>
 80010f4:	6993      	ldr	r3, [r2, #24]
 80010f6:	0619      	lsls	r1, r3, #24
 80010f8:	d5fc      	bpl.n	80010f4 <HAL_I2C_Mem_Write+0x134>
 80010fa:	8d63      	ldrh	r3, [r4, #42]	; 0x2a
 80010fc:	b29b      	uxth	r3, r3
 80010fe:	2bff      	cmp	r3, #255	; 0xff
 8001100:	d955      	bls.n	80011ae <HAL_I2C_Mem_Write+0x1ee>
 8001102:	6853      	ldr	r3, [r2, #4]
 8001104:	f8a4 9028 	strh.w	r9, [r4, #40]	; 0x28
 8001108:	ea03 0308 	and.w	r3, r3, r8
 800110c:	432b      	orrs	r3, r5
 800110e:	ea43 030a 	orr.w	r3, r3, sl
 8001112:	6053      	str	r3, [r2, #4]
 8001114:	e7cb      	b.n	80010ae <HAL_I2C_Mem_Write+0xee>
 8001116:	f44f 7300 	mov.w	r3, #512	; 0x200
 800111a:	6463      	str	r3, [r4, #68]	; 0x44
 800111c:	2001      	movs	r0, #1
 800111e:	e8bd 87f0 	ldmia.w	sp!, {r4, r5, r6, r7, r8, r9, sl, pc}
 8001122:	2002      	movs	r0, #2
 8001124:	e8bd 87f0 	ldmia.w	sp!, {r4, r5, r6, r7, r8, r9, sl, pc}
 8001128:	6c63      	ldr	r3, [r4, #68]	; 0x44
 800112a:	2120      	movs	r1, #32
 800112c:	2200      	movs	r2, #0
 800112e:	430b      	orrs	r3, r1
 8001130:	6463      	str	r3, [r4, #68]	; 0x44
 8001132:	f884 2040 	strb.w	r2, [r4, #64]	; 0x40
 8001136:	f884 1041 	strb.w	r1, [r4, #65]	; 0x41
 800113a:	f884 2042 	strb.w	r2, [r4, #66]	; 0x42
 800113e:	2001      	movs	r0, #1
 8001140:	e8bd 87f0 	ldmia.w	sp!, {r4, r5, r6, r7, r8, r9, sl, pc}
 8001144:	698b      	ldr	r3, [r1, #24]
 8001146:	061b      	lsls	r3, r3, #24
 8001148:	d499      	bmi.n	800107e <HAL_I2C_Mem_Write+0xbe>
 800114a:	f7ff fb29 	bl	80007a0 <HAL_GetTick>
 800114e:	1b80      	subs	r0, r0, r6
 8001150:	4287      	cmp	r7, r0
 8001152:	d351      	bcc.n	80011f8 <HAL_I2C_Mem_Write+0x238>
 8001154:	2f00      	cmp	r7, #0
 8001156:	d04f      	beq.n	80011f8 <HAL_I2C_Mem_Write+0x238>
 8001158:	6821      	ldr	r1, [r4, #0]
 800115a:	e78b      	b.n	8001074 <HAL_I2C_Mem_Write+0xb4>
 800115c:	684b      	ldr	r3, [r1, #4]
 800115e:	4a2b      	ldr	r2, [pc, #172]	; (800120c <HAL_I2C_Mem_Write+0x24c>)
 8001160:	4013      	ands	r3, r2
 8001162:	432b      	orrs	r3, r5
 8001164:	f043 73ff 	orr.w	r3, r3, #33423360	; 0x1fe0000
 8001168:	f443 3380 	orr.w	r3, r3, #65536	; 0x10000
 800116c:	22ff      	movs	r2, #255	; 0xff
 800116e:	8522      	strh	r2, [r4, #40]	; 0x28
 8001170:	604b      	str	r3, [r1, #4]
 8001172:	e795      	b.n	80010a0 <HAL_I2C_Mem_Write+0xe0>
 8001174:	6823      	ldr	r3, [r4, #0]
 8001176:	ea4f 2218 	mov.w	r2, r8, lsr #8
 800117a:	629a      	str	r2, [r3, #40]	; 0x28
 800117c:	4639      	mov	r1, r7
 800117e:	4632      	mov	r2, r6
 8001180:	4620      	mov	r0, r4
 8001182:	f7ff fe1f 	bl	8000dc4 <I2C_WaitOnTXISFlagUntilTimeout>
 8001186:	2800      	cmp	r0, #0
 8001188:	f43f af70 	beq.w	800106c <HAL_I2C_Mem_Write+0xac>
 800118c:	2300      	movs	r3, #0
 800118e:	f884 3040 	strb.w	r3, [r4, #64]	; 0x40
 8001192:	2001      	movs	r0, #1
 8001194:	e7c3      	b.n	800111e <HAL_I2C_Mem_Write+0x15e>
 8001196:	6993      	ldr	r3, [r2, #24]
 8001198:	061b      	lsls	r3, r3, #24
 800119a:	d4ae      	bmi.n	80010fa <HAL_I2C_Mem_Write+0x13a>
 800119c:	f7ff fb00 	bl	80007a0 <HAL_GetTick>
 80011a0:	1b80      	subs	r0, r0, r6
 80011a2:	4287      	cmp	r7, r0
 80011a4:	d3c0      	bcc.n	8001128 <HAL_I2C_Mem_Write+0x168>
 80011a6:	2f00      	cmp	r7, #0
 80011a8:	d0be      	beq.n	8001128 <HAL_I2C_Mem_Write+0x168>
 80011aa:	6822      	ldr	r2, [r4, #0]
 80011ac:	e7a0      	b.n	80010f0 <HAL_I2C_Mem_Write+0x130>
 80011ae:	8d61      	ldrh	r1, [r4, #42]	; 0x2a
 80011b0:	6853      	ldr	r3, [r2, #4]
 80011b2:	b289      	uxth	r1, r1
 80011b4:	ea03 0308 	and.w	r3, r3, r8
 80011b8:	432b      	orrs	r3, r5
 80011ba:	b2c8      	uxtb	r0, r1
 80011bc:	ea43 4300 	orr.w	r3, r3, r0, lsl #16
 80011c0:	f043 7300 	orr.w	r3, r3, #33554432	; 0x2000000
 80011c4:	8521      	strh	r1, [r4, #40]	; 0x28
 80011c6:	6053      	str	r3, [r2, #4]
 80011c8:	e771      	b.n	80010ae <HAL_I2C_Mem_Write+0xee>
 80011ca:	2001      	movs	r0, #1
 80011cc:	e7a7      	b.n	800111e <HAL_I2C_Mem_Write+0x15e>
 80011ce:	4632      	mov	r2, r6
 80011d0:	4639      	mov	r1, r7
 80011d2:	4620      	mov	r0, r4
 80011d4:	f7ff fe4a 	bl	8000e6c <I2C_WaitOnSTOPFlagUntilTimeout>
 80011d8:	2800      	cmp	r0, #0
 80011da:	d1f6      	bne.n	80011ca <HAL_I2C_Mem_Write+0x20a>
 80011dc:	6823      	ldr	r3, [r4, #0]
 80011de:	4d0c      	ldr	r5, [pc, #48]	; (8001210 <HAL_I2C_Mem_Write+0x250>)
 80011e0:	2120      	movs	r1, #32
 80011e2:	61d9      	str	r1, [r3, #28]
 80011e4:	685a      	ldr	r2, [r3, #4]
 80011e6:	402a      	ands	r2, r5
 80011e8:	605a      	str	r2, [r3, #4]
 80011ea:	f884 1041 	strb.w	r1, [r4, #65]	; 0x41
 80011ee:	f884 0040 	strb.w	r0, [r4, #64]	; 0x40
 80011f2:	f884 0042 	strb.w	r0, [r4, #66]	; 0x42
 80011f6:	e792      	b.n	800111e <HAL_I2C_Mem_Write+0x15e>
 80011f8:	6c63      	ldr	r3, [r4, #68]	; 0x44
 80011fa:	2120      	movs	r1, #32
 80011fc:	430b      	orrs	r3, r1
 80011fe:	2200      	movs	r2, #0
 8001200:	6463      	str	r3, [r4, #68]	; 0x44
 8001202:	f884 1041 	strb.w	r1, [r4, #65]	; 0x41
 8001206:	f884 2042 	strb.w	r2, [r4, #66]	; 0x42
 800120a:	e7bf      	b.n	800118c <HAL_I2C_Mem_Write+0x1cc>
 800120c:	fc009c00 	.word	0xfc009c00
 8001210:	fe00e800 	.word	0xfe00e800
 8001214:	fc009800 	.word	0xfc009800
 8001218:	01ff0000 	.word	0x01ff0000

0800121c <HAL_I2CEx_ConfigAnalogFilter>:
 800121c:	f890 2041 	ldrb.w	r2, [r0, #65]	; 0x41
 8001220:	2a20      	cmp	r2, #32
 8001222:	d121      	bne.n	8001268 <HAL_I2CEx_ConfigAnalogFilter+0x4c>
 8001224:	b430      	push	{r4, r5}
 8001226:	b2d4      	uxtb	r4, r2
 8001228:	f890 2040 	ldrb.w	r2, [r0, #64]	; 0x40
 800122c:	2a01      	cmp	r2, #1
 800122e:	4603      	mov	r3, r0
 8001230:	d01c      	beq.n	800126c <HAL_I2CEx_ConfigAnalogFilter+0x50>
 8001232:	681a      	ldr	r2, [r3, #0]
 8001234:	2024      	movs	r0, #36	; 0x24
 8001236:	f883 0041 	strb.w	r0, [r3, #65]	; 0x41
 800123a:	6810      	ldr	r0, [r2, #0]
 800123c:	f020 0001 	bic.w	r0, r0, #1
 8001240:	6010      	str	r0, [r2, #0]
 8001242:	6810      	ldr	r0, [r2, #0]
 8001244:	f420 5080 	bic.w	r0, r0, #4096	; 0x1000
 8001248:	6010      	str	r0, [r2, #0]
 800124a:	6810      	ldr	r0, [r2, #0]
 800124c:	4301      	orrs	r1, r0
 800124e:	6011      	str	r1, [r2, #0]
 8001250:	6811      	ldr	r1, [r2, #0]
 8001252:	2500      	movs	r5, #0
 8001254:	f041 0101 	orr.w	r1, r1, #1
 8001258:	6011      	str	r1, [r2, #0]
 800125a:	f883 4041 	strb.w	r4, [r3, #65]	; 0x41
 800125e:	f883 5040 	strb.w	r5, [r3, #64]	; 0x40
 8001262:	4628      	mov	r0, r5
 8001264:	bc30      	pop	{r4, r5}
 8001266:	4770      	bx	lr
 8001268:	2002      	movs	r0, #2
 800126a:	4770      	bx	lr
 800126c:	2002      	movs	r0, #2
 800126e:	bc30      	pop	{r4, r5}
 8001270:	4770      	bx	lr
 8001272:	bf00      	nop

08001274 <HAL_I2CEx_ConfigDigitalFilter>:
 8001274:	f890 2041 	ldrb.w	r2, [r0, #65]	; 0x41
 8001278:	2a20      	cmp	r2, #32
 800127a:	d120      	bne.n	80012be <HAL_I2CEx_ConfigDigitalFilter+0x4a>
 800127c:	b430      	push	{r4, r5}
 800127e:	b2d5      	uxtb	r5, r2
 8001280:	f890 2040 	ldrb.w	r2, [r0, #64]	; 0x40
 8001284:	2a01      	cmp	r2, #1
 8001286:	4603      	mov	r3, r0
 8001288:	d01b      	beq.n	80012c2 <HAL_I2CEx_ConfigDigitalFilter+0x4e>
 800128a:	681a      	ldr	r2, [r3, #0]
 800128c:	2024      	movs	r0, #36	; 0x24
 800128e:	f883 0041 	strb.w	r0, [r3, #65]	; 0x41
 8001292:	6810      	ldr	r0, [r2, #0]
 8001294:	f020 0001 	bic.w	r0, r0, #1
 8001298:	6010      	str	r0, [r2, #0]
 800129a:	6810      	ldr	r0, [r2, #0]
 800129c:	f420 6070 	bic.w	r0, r0, #3840	; 0xf00
 80012a0:	ea40 2101 	orr.w	r1, r0, r1, lsl #8
 80012a4:	6011      	str	r1, [r2, #0]
 80012a6:	6811      	ldr	r1, [r2, #0]
 80012a8:	2400      	movs	r4, #0
 80012aa:	f041 0101 	orr.w	r1, r1, #1
 80012ae:	6011      	str	r1, [r2, #0]
 80012b0:	f883 5041 	strb.w	r5, [r3, #65]	; 0x41
 80012b4:	f883 4040 	strb.w	r4, [r3, #64]	; 0x40
 80012b8:	4620      	mov	r0, r4
 80012ba:	bc30      	pop	{r4, r5}
 80012bc:	4770      	bx	lr
 80012be:	2002      	movs	r0, #2
 80012c0:	4770      	bx	lr
 80012c2:	2002      	movs	r0, #2
 80012c4:	bc30      	pop	{r4, r5}
 80012c6:	4770      	bx	lr

080012c8 <HAL_IWDG_Init>:
 80012c8:	b310      	cbz	r0, 8001310 <HAL_IWDG_Init+0x48>
 80012ca:	b538      	push	{r3, r4, r5, lr}
 80012cc:	e9d0 3100 	ldrd	r3, r1, [r0]
 80012d0:	6882      	ldr	r2, [r0, #8]
 80012d2:	f64c 45cc 	movw	r5, #52428	; 0xcccc
 80012d6:	4604      	mov	r4, r0
 80012d8:	f245 5055 	movw	r0, #21845	; 0x5555
 80012dc:	601d      	str	r5, [r3, #0]
 80012de:	6018      	str	r0, [r3, #0]
 80012e0:	6059      	str	r1, [r3, #4]
 80012e2:	609a      	str	r2, [r3, #8]
 80012e4:	f7ff fa5c 	bl	80007a0 <HAL_GetTick>
 80012e8:	4605      	mov	r5, r0
 80012ea:	e004      	b.n	80012f6 <HAL_IWDG_Init+0x2e>
 80012ec:	f7ff fa58 	bl	80007a0 <HAL_GetTick>
 80012f0:	1b43      	subs	r3, r0, r5
 80012f2:	2b30      	cmp	r3, #48	; 0x30
 80012f4:	d80a      	bhi.n	800130c <HAL_IWDG_Init+0x44>
 80012f6:	6822      	ldr	r2, [r4, #0]
 80012f8:	68d3      	ldr	r3, [r2, #12]
 80012fa:	2b00      	cmp	r3, #0
 80012fc:	d1f6      	bne.n	80012ec <HAL_IWDG_Init+0x24>
 80012fe:	68e1      	ldr	r1, [r4, #12]
 8001300:	6910      	ldr	r0, [r2, #16]
 8001302:	4288      	cmp	r0, r1
 8001304:	d006      	beq.n	8001314 <HAL_IWDG_Init+0x4c>
 8001306:	6111      	str	r1, [r2, #16]
 8001308:	4618      	mov	r0, r3
 800130a:	bd38      	pop	{r3, r4, r5, pc}
 800130c:	2003      	movs	r0, #3
 800130e:	bd38      	pop	{r3, r4, r5, pc}
 8001310:	2001      	movs	r0, #1
 8001312:	4770      	bx	lr
 8001314:	f64a 21aa 	movw	r1, #43690	; 0xaaaa
 8001318:	4618      	mov	r0, r3
 800131a:	6011      	str	r1, [r2, #0]
 800131c:	bd38      	pop	{r3, r4, r5, pc}
 800131e:	bf00      	nop

08001320 <HAL_IWDG_Refresh>:
 8001320:	6803      	ldr	r3, [r0, #0]
 8001322:	f64a 22aa 	movw	r2, #43690	; 0xaaaa
 8001326:	2000      	movs	r0, #0
 8001328:	601a      	str	r2, [r3, #0]
 800132a:	4770      	bx	lr

0800132c <HAL_PWR_EnableBkUpAccess>:
 800132c:	4a02      	ldr	r2, [pc, #8]	; (8001338 <HAL_PWR_EnableBkUpAccess+0xc>)
 800132e:	6813      	ldr	r3, [r2, #0]
 8001330:	f443 7380 	orr.w	r3, r3, #256	; 0x100
 8001334:	6013      	str	r3, [r2, #0]
 8001336:	4770      	bx	lr
 8001338:	40007000 	.word	0x40007000

0800133c <HAL_RCC_OscConfig>:
 800133c:	2800      	cmp	r0, #0
 800133e:	f000 8290 	beq.w	8001862 <HAL_RCC_OscConfig+0x526>
 8001342:	e92d 43f0 	stmdb	sp!, {r4, r5, r6, r7, r8, r9, lr}
 8001346:	6803      	ldr	r3, [r0, #0]
 8001348:	07d9      	lsls	r1, r3, #31
 800134a:	b083      	sub	sp, #12
 800134c:	4604      	mov	r4, r0
 800134e:	d54f      	bpl.n	80013f0 <HAL_RCC_OscConfig+0xb4>
 8001350:	49b6      	ldr	r1, [pc, #728]	; (800162c <HAL_RCC_OscConfig+0x2f0>)
 8001352:	684a      	ldr	r2, [r1, #4]
 8001354:	f002 020c 	and.w	r2, r2, #12
 8001358:	2a04      	cmp	r2, #4
 800135a:	f000 8171 	beq.w	8001640 <HAL_RCC_OscConfig+0x304>
 800135e:	684a      	ldr	r2, [r1, #4]
 8001360:	f002 020c 	and.w	r2, r2, #12
 8001364:	2a08      	cmp	r2, #8
 8001366:	f000 8167 	beq.w	8001638 <HAL_RCC_OscConfig+0x2fc>
 800136a:	6863      	ldr	r3, [r4, #4]
 800136c:	f5b3 3f80 	cmp.w	r3, #65536	; 0x10000
 8001370:	d017      	beq.n	80013a2 <HAL_RCC_OscConfig+0x66>
 8001372:	2b00      	cmp	r3, #0
 8001374:	f000 81a0 	beq.w	80016b8 <HAL_RCC_OscConfig+0x37c>
 8001378:	f5b3 2fa0 	cmp.w	r3, #327680	; 0x50000
 800137c:	f000 825c 	beq.w	8001838 <HAL_RCC_OscConfig+0x4fc>
 8001380:	4baa      	ldr	r3, [pc, #680]	; (800162c <HAL_RCC_OscConfig+0x2f0>)
 8001382:	681a      	ldr	r2, [r3, #0]
 8001384:	f422 3280 	bic.w	r2, r2, #65536	; 0x10000
 8001388:	601a      	str	r2, [r3, #0]
 800138a:	681a      	ldr	r2, [r3, #0]
 800138c:	f422 2280 	bic.w	r2, r2, #262144	; 0x40000
 8001390:	601a      	str	r2, [r3, #0]
 8001392:	4aa6      	ldr	r2, [pc, #664]	; (800162c <HAL_RCC_OscConfig+0x2f0>)
 8001394:	68a1      	ldr	r1, [r4, #8]
 8001396:	6ad3      	ldr	r3, [r2, #44]	; 0x2c
 8001398:	f023 030f 	bic.w	r3, r3, #15
 800139c:	430b      	orrs	r3, r1
 800139e:	62d3      	str	r3, [r2, #44]	; 0x2c
 80013a0:	e00a      	b.n	80013b8 <HAL_RCC_OscConfig+0x7c>
 80013a2:	4aa2      	ldr	r2, [pc, #648]	; (800162c <HAL_RCC_OscConfig+0x2f0>)
 80013a4:	6813      	ldr	r3, [r2, #0]
 80013a6:	f443 3380 	orr.w	r3, r3, #65536	; 0x10000
 80013aa:	6013      	str	r3, [r2, #0]
 80013ac:	6ad3      	ldr	r3, [r2, #44]	; 0x2c
 80013ae:	68a1      	ldr	r1, [r4, #8]
 80013b0:	f023 030f 	bic.w	r3, r3, #15
 80013b4:	430b      	orrs	r3, r1
 80013b6:	62d3      	str	r3, [r2, #44]	; 0x2c
 80013b8:	f7ff f9f2 	bl	80007a0 <HAL_GetTick>
 80013bc:	4f9b      	ldr	r7, [pc, #620]	; (800162c <HAL_RCC_OscConfig+0x2f0>)
 80013be:	4605      	mov	r5, r0
 80013c0:	f44f 3800 	mov.w	r8, #131072	; 0x20000
 80013c4:	2601      	movs	r6, #1
 80013c6:	e005      	b.n	80013d4 <HAL_RCC_OscConfig+0x98>
 80013c8:	f7ff f9ea 	bl	80007a0 <HAL_GetTick>
 80013cc:	1b40      	subs	r0, r0, r5
 80013ce:	2864      	cmp	r0, #100	; 0x64
 80013d0:	f200 816e 	bhi.w	80016b0 <HAL_RCC_OscConfig+0x374>
 80013d4:	fa98 f3a8 	rbit	r3, r8
 80013d8:	683a      	ldr	r2, [r7, #0]
 80013da:	fa98 f3a8 	rbit	r3, r8
 80013de:	fab3 f383 	clz	r3, r3
 80013e2:	f003 031f 	and.w	r3, r3, #31
 80013e6:	fa06 f303 	lsl.w	r3, r6, r3
 80013ea:	4213      	tst	r3, r2
 80013ec:	d0ec      	beq.n	80013c8 <HAL_RCC_OscConfig+0x8c>
 80013ee:	6823      	ldr	r3, [r4, #0]
 80013f0:	079f      	lsls	r7, r3, #30
 80013f2:	d542      	bpl.n	800147a <HAL_RCC_OscConfig+0x13e>
 80013f4:	4a8d      	ldr	r2, [pc, #564]	; (800162c <HAL_RCC_OscConfig+0x2f0>)
 80013f6:	6851      	ldr	r1, [r2, #4]
 80013f8:	f011 0f0c 	tst.w	r1, #12
 80013fc:	f000 80cb 	beq.w	8001596 <HAL_RCC_OscConfig+0x25a>
 8001400:	6851      	ldr	r1, [r2, #4]
 8001402:	f001 010c 	and.w	r1, r1, #12
 8001406:	2908      	cmp	r1, #8
 8001408:	f000 80c1 	beq.w	800158e <HAL_RCC_OscConfig+0x252>
 800140c:	6922      	ldr	r2, [r4, #16]
 800140e:	2a00      	cmp	r2, #0
 8001410:	f000 81b1 	beq.w	8001776 <HAL_RCC_OscConfig+0x43a>
 8001414:	2201      	movs	r2, #1
 8001416:	fa92 f3a2 	rbit	r3, r2
 800141a:	fab3 f383 	clz	r3, r3
 800141e:	f103 5384 	add.w	r3, r3, #276824064	; 0x10800000
 8001422:	f503 1384 	add.w	r3, r3, #1081344	; 0x108000
 8001426:	009b      	lsls	r3, r3, #2
 8001428:	4617      	mov	r7, r2
 800142a:	601a      	str	r2, [r3, #0]
 800142c:	f7ff f9b8 	bl	80007a0 <HAL_GetTick>
 8001430:	4e7e      	ldr	r6, [pc, #504]	; (800162c <HAL_RCC_OscConfig+0x2f0>)
 8001432:	4605      	mov	r5, r0
 8001434:	f04f 0802 	mov.w	r8, #2
 8001438:	e005      	b.n	8001446 <HAL_RCC_OscConfig+0x10a>
 800143a:	f7ff f9b1 	bl	80007a0 <HAL_GetTick>
 800143e:	1b40      	subs	r0, r0, r5
 8001440:	2802      	cmp	r0, #2
 8001442:	f200 8135 	bhi.w	80016b0 <HAL_RCC_OscConfig+0x374>
 8001446:	fa98 f3a8 	rbit	r3, r8
 800144a:	6832      	ldr	r2, [r6, #0]
 800144c:	fa98 f3a8 	rbit	r3, r8
 8001450:	fab3 f383 	clz	r3, r3
 8001454:	f003 031f 	and.w	r3, r3, #31
 8001458:	fa07 f303 	lsl.w	r3, r7, r3
 800145c:	4213      	tst	r3, r2
 800145e:	d0ec      	beq.n	800143a <HAL_RCC_OscConfig+0xfe>
 8001460:	6831      	ldr	r1, [r6, #0]
 8001462:	22f8      	movs	r2, #248	; 0xf8
 8001464:	fa92 f2a2 	rbit	r2, r2
 8001468:	6963      	ldr	r3, [r4, #20]
 800146a:	fab2 f282 	clz	r2, r2
 800146e:	f021 01f8 	bic.w	r1, r1, #248	; 0xf8
 8001472:	4093      	lsls	r3, r2
 8001474:	430b      	orrs	r3, r1
 8001476:	6033      	str	r3, [r6, #0]
 8001478:	6823      	ldr	r3, [r4, #0]
 800147a:	071d      	lsls	r5, r3, #28
 800147c:	d421      	bmi.n	80014c2 <HAL_RCC_OscConfig+0x186>
 800147e:	0758      	lsls	r0, r3, #29
 8001480:	d54d      	bpl.n	800151e <HAL_RCC_OscConfig+0x1e2>
 8001482:	4b6a      	ldr	r3, [pc, #424]	; (800162c <HAL_RCC_OscConfig+0x2f0>)
 8001484:	69da      	ldr	r2, [r3, #28]
 8001486:	00d1      	lsls	r1, r2, #3
 8001488:	f140 80c3 	bpl.w	8001612 <HAL_RCC_OscConfig+0x2d6>
 800148c:	f04f 0800 	mov.w	r8, #0
 8001490:	4d67      	ldr	r5, [pc, #412]	; (8001630 <HAL_RCC_OscConfig+0x2f4>)
 8001492:	682b      	ldr	r3, [r5, #0]
 8001494:	05da      	lsls	r2, r3, #23
 8001496:	f140 80fb 	bpl.w	8001690 <HAL_RCC_OscConfig+0x354>
 800149a:	68e3      	ldr	r3, [r4, #12]
 800149c:	2b01      	cmp	r3, #1
 800149e:	f000 8190 	beq.w	80017c2 <HAL_RCC_OscConfig+0x486>
 80014a2:	2b00      	cmp	r3, #0
 80014a4:	f000 8131 	beq.w	800170a <HAL_RCC_OscConfig+0x3ce>
 80014a8:	2b05      	cmp	r3, #5
 80014aa:	4b60      	ldr	r3, [pc, #384]	; (800162c <HAL_RCC_OscConfig+0x2f0>)
 80014ac:	6a1a      	ldr	r2, [r3, #32]
 80014ae:	f000 81d0 	beq.w	8001852 <HAL_RCC_OscConfig+0x516>
 80014b2:	f022 0201 	bic.w	r2, r2, #1
 80014b6:	621a      	str	r2, [r3, #32]
 80014b8:	6a1a      	ldr	r2, [r3, #32]
 80014ba:	f022 0204 	bic.w	r2, r2, #4
 80014be:	621a      	str	r2, [r3, #32]
 80014c0:	e184      	b.n	80017cc <HAL_RCC_OscConfig+0x490>
 80014c2:	69a2      	ldr	r2, [r4, #24]
 80014c4:	2a00      	cmp	r2, #0
 80014c6:	d07d      	beq.n	80015c4 <HAL_RCC_OscConfig+0x288>
 80014c8:	2201      	movs	r2, #1
 80014ca:	fa92 f1a2 	rbit	r1, r2
 80014ce:	4b59      	ldr	r3, [pc, #356]	; (8001634 <HAL_RCC_OscConfig+0x2f8>)
 80014d0:	4f56      	ldr	r7, [pc, #344]	; (800162c <HAL_RCC_OscConfig+0x2f0>)
 80014d2:	fab1 f181 	clz	r1, r1
 80014d6:	440b      	add	r3, r1
 80014d8:	009b      	lsls	r3, r3, #2
 80014da:	4616      	mov	r6, r2
 80014dc:	601a      	str	r2, [r3, #0]
 80014de:	f7ff f95f 	bl	80007a0 <HAL_GetTick>
 80014e2:	f04f 0802 	mov.w	r8, #2
 80014e6:	4605      	mov	r5, r0
 80014e8:	e005      	b.n	80014f6 <HAL_RCC_OscConfig+0x1ba>
 80014ea:	f7ff f959 	bl	80007a0 <HAL_GetTick>
 80014ee:	1b40      	subs	r0, r0, r5
 80014f0:	2802      	cmp	r0, #2
 80014f2:	f200 80dd 	bhi.w	80016b0 <HAL_RCC_OscConfig+0x374>
 80014f6:	fa98 f3a8 	rbit	r3, r8
 80014fa:	fa98 f3a8 	rbit	r3, r8
 80014fe:	fa98 f3a8 	rbit	r3, r8
 8001502:	6a7a      	ldr	r2, [r7, #36]	; 0x24
 8001504:	fa98 f3a8 	rbit	r3, r8
 8001508:	fab3 f383 	clz	r3, r3
 800150c:	f003 031f 	and.w	r3, r3, #31
 8001510:	fa06 f303 	lsl.w	r3, r6, r3
 8001514:	4213      	tst	r3, r2
 8001516:	d0e8      	beq.n	80014ea <HAL_RCC_OscConfig+0x1ae>
 8001518:	6823      	ldr	r3, [r4, #0]
 800151a:	0758      	lsls	r0, r3, #29
 800151c:	d4b1      	bmi.n	8001482 <HAL_RCC_OscConfig+0x146>
 800151e:	69e0      	ldr	r0, [r4, #28]
 8001520:	b388      	cbz	r0, 8001586 <HAL_RCC_OscConfig+0x24a>
 8001522:	4d42      	ldr	r5, [pc, #264]	; (800162c <HAL_RCC_OscConfig+0x2f0>)
 8001524:	686b      	ldr	r3, [r5, #4]
 8001526:	f003 030c 	and.w	r3, r3, #12
 800152a:	2b08      	cmp	r3, #8
 800152c:	f000 8173 	beq.w	8001816 <HAL_RCC_OscConfig+0x4da>
 8001530:	2802      	cmp	r0, #2
 8001532:	f04f 7380 	mov.w	r3, #16777216	; 0x1000000
 8001536:	f000 8196 	beq.w	8001866 <HAL_RCC_OscConfig+0x52a>
 800153a:	fa93 f3a3 	rbit	r3, r3
 800153e:	fab3 f383 	clz	r3, r3
 8001542:	f103 5384 	add.w	r3, r3, #276824064	; 0x10800000
 8001546:	f503 1384 	add.w	r3, r3, #1081344	; 0x108000
 800154a:	009b      	lsls	r3, r3, #2
 800154c:	2200      	movs	r2, #0
 800154e:	601a      	str	r2, [r3, #0]
 8001550:	f7ff f926 	bl	80007a0 <HAL_GetTick>
 8001554:	462c      	mov	r4, r5
 8001556:	f04f 7700 	mov.w	r7, #33554432	; 0x2000000
 800155a:	4605      	mov	r5, r0
 800155c:	2601      	movs	r6, #1
 800155e:	e005      	b.n	800156c <HAL_RCC_OscConfig+0x230>
 8001560:	f7ff f91e 	bl	80007a0 <HAL_GetTick>
 8001564:	1b40      	subs	r0, r0, r5
 8001566:	2802      	cmp	r0, #2
 8001568:	f200 80a2 	bhi.w	80016b0 <HAL_RCC_OscConfig+0x374>
 800156c:	fa97 f3a7 	rbit	r3, r7
 8001570:	6822      	ldr	r2, [r4, #0]
 8001572:	fa97 f3a7 	rbit	r3, r7
 8001576:	fab3 f383 	clz	r3, r3
 800157a:	f003 031f 	and.w	r3, r3, #31
 800157e:	fa06 f303 	lsl.w	r3, r6, r3
 8001582:	4213      	tst	r3, r2
 8001584:	d1ec      	bne.n	8001560 <HAL_RCC_OscConfig+0x224>
 8001586:	2000      	movs	r0, #0
 8001588:	b003      	add	sp, #12
 800158a:	e8bd 83f0 	ldmia.w	sp!, {r4, r5, r6, r7, r8, r9, pc}
 800158e:	6852      	ldr	r2, [r2, #4]
 8001590:	03d6      	lsls	r6, r2, #15
 8001592:	f53f af3b 	bmi.w	800140c <HAL_RCC_OscConfig+0xd0>
 8001596:	2202      	movs	r2, #2
 8001598:	fa92 f1a2 	rbit	r1, r2
 800159c:	4923      	ldr	r1, [pc, #140]	; (800162c <HAL_RCC_OscConfig+0x2f0>)
 800159e:	6808      	ldr	r0, [r1, #0]
 80015a0:	fa92 f2a2 	rbit	r2, r2
 80015a4:	fab2 f282 	clz	r2, r2
 80015a8:	f002 021f 	and.w	r2, r2, #31
 80015ac:	2101      	movs	r1, #1
 80015ae:	fa01 f202 	lsl.w	r2, r1, r2
 80015b2:	4202      	tst	r2, r0
 80015b4:	d05b      	beq.n	800166e <HAL_RCC_OscConfig+0x332>
 80015b6:	6922      	ldr	r2, [r4, #16]
 80015b8:	428a      	cmp	r2, r1
 80015ba:	d058      	beq.n	800166e <HAL_RCC_OscConfig+0x332>
 80015bc:	2001      	movs	r0, #1
 80015be:	b003      	add	sp, #12
 80015c0:	e8bd 83f0 	ldmia.w	sp!, {r4, r5, r6, r7, r8, r9, pc}
 80015c4:	2501      	movs	r5, #1
 80015c6:	fa95 f1a5 	rbit	r1, r5
 80015ca:	4b1a      	ldr	r3, [pc, #104]	; (8001634 <HAL_RCC_OscConfig+0x2f8>)
 80015cc:	4f17      	ldr	r7, [pc, #92]	; (800162c <HAL_RCC_OscConfig+0x2f0>)
 80015ce:	fab1 f181 	clz	r1, r1
 80015d2:	440b      	add	r3, r1
 80015d4:	009b      	lsls	r3, r3, #2
 80015d6:	f04f 0802 	mov.w	r8, #2
 80015da:	601a      	str	r2, [r3, #0]
 80015dc:	f7ff f8e0 	bl	80007a0 <HAL_GetTick>
 80015e0:	4606      	mov	r6, r0
 80015e2:	e004      	b.n	80015ee <HAL_RCC_OscConfig+0x2b2>
 80015e4:	f7ff f8dc 	bl	80007a0 <HAL_GetTick>
 80015e8:	1b80      	subs	r0, r0, r6
 80015ea:	2802      	cmp	r0, #2
 80015ec:	d860      	bhi.n	80016b0 <HAL_RCC_OscConfig+0x374>
 80015ee:	fa98 f3a8 	rbit	r3, r8
 80015f2:	fa98 f3a8 	rbit	r3, r8
 80015f6:	fa98 f3a8 	rbit	r3, r8
 80015fa:	6a7a      	ldr	r2, [r7, #36]	; 0x24
 80015fc:	fa98 f3a8 	rbit	r3, r8
 8001600:	fab3 f383 	clz	r3, r3
 8001604:	f003 031f 	and.w	r3, r3, #31
 8001608:	fa05 f303 	lsl.w	r3, r5, r3
 800160c:	4213      	tst	r3, r2
 800160e:	d1e9      	bne.n	80015e4 <HAL_RCC_OscConfig+0x2a8>
 8001610:	e782      	b.n	8001518 <HAL_RCC_OscConfig+0x1dc>
 8001612:	69da      	ldr	r2, [r3, #28]
 8001614:	f042 5280 	orr.w	r2, r2, #268435456	; 0x10000000
 8001618:	61da      	str	r2, [r3, #28]
 800161a:	69db      	ldr	r3, [r3, #28]
 800161c:	f003 5380 	and.w	r3, r3, #268435456	; 0x10000000
 8001620:	9301      	str	r3, [sp, #4]
 8001622:	9b01      	ldr	r3, [sp, #4]
 8001624:	f04f 0801 	mov.w	r8, #1
 8001628:	e732      	b.n	8001490 <HAL_RCC_OscConfig+0x154>
 800162a:	bf00      	nop
 800162c:	40021000 	.word	0x40021000
 8001630:	40007000 	.word	0x40007000
 8001634:	10908120 	.word	0x10908120
 8001638:	684a      	ldr	r2, [r1, #4]
 800163a:	03d2      	lsls	r2, r2, #15
 800163c:	f57f ae95 	bpl.w	800136a <HAL_RCC_OscConfig+0x2e>
 8001640:	f44f 3200 	mov.w	r2, #131072	; 0x20000
 8001644:	fa92 f1a2 	rbit	r1, r2
 8001648:	49b1      	ldr	r1, [pc, #708]	; (8001910 <HAL_RCC_OscConfig+0x5d4>)
 800164a:	6808      	ldr	r0, [r1, #0]
 800164c:	fa92 f2a2 	rbit	r2, r2
 8001650:	fab2 f282 	clz	r2, r2
 8001654:	f002 021f 	and.w	r2, r2, #31
 8001658:	2101      	movs	r1, #1
 800165a:	fa01 f202 	lsl.w	r2, r1, r2
 800165e:	4202      	tst	r2, r0
 8001660:	f43f aec6 	beq.w	80013f0 <HAL_RCC_OscConfig+0xb4>
 8001664:	6862      	ldr	r2, [r4, #4]
 8001666:	2a00      	cmp	r2, #0
 8001668:	f47f aec2 	bne.w	80013f0 <HAL_RCC_OscConfig+0xb4>
 800166c:	e7a6      	b.n	80015bc <HAL_RCC_OscConfig+0x280>
 800166e:	4da8      	ldr	r5, [pc, #672]	; (8001910 <HAL_RCC_OscConfig+0x5d4>)
 8001670:	21f8      	movs	r1, #248	; 0xf8
 8001672:	6828      	ldr	r0, [r5, #0]
 8001674:	fa91 f1a1 	rbit	r1, r1
 8001678:	6962      	ldr	r2, [r4, #20]
 800167a:	fab1 f181 	clz	r1, r1
 800167e:	f020 00f8 	bic.w	r0, r0, #248	; 0xf8
 8001682:	408a      	lsls	r2, r1
 8001684:	4302      	orrs	r2, r0
 8001686:	602a      	str	r2, [r5, #0]
 8001688:	071d      	lsls	r5, r3, #28
 800168a:	f57f aef8 	bpl.w	800147e <HAL_RCC_OscConfig+0x142>
 800168e:	e718      	b.n	80014c2 <HAL_RCC_OscConfig+0x186>
 8001690:	682b      	ldr	r3, [r5, #0]
 8001692:	f443 7380 	orr.w	r3, r3, #256	; 0x100
 8001696:	602b      	str	r3, [r5, #0]
 8001698:	f7ff f882 	bl	80007a0 <HAL_GetTick>
 800169c:	4606      	mov	r6, r0
 800169e:	682b      	ldr	r3, [r5, #0]
 80016a0:	05db      	lsls	r3, r3, #23
 80016a2:	f53f aefa 	bmi.w	800149a <HAL_RCC_OscConfig+0x15e>
 80016a6:	f7ff f87b 	bl	80007a0 <HAL_GetTick>
 80016aa:	1b80      	subs	r0, r0, r6
 80016ac:	2864      	cmp	r0, #100	; 0x64
 80016ae:	d9f6      	bls.n	800169e <HAL_RCC_OscConfig+0x362>
 80016b0:	2003      	movs	r0, #3
 80016b2:	b003      	add	sp, #12
 80016b4:	e8bd 83f0 	ldmia.w	sp!, {r4, r5, r6, r7, r8, r9, pc}
 80016b8:	4d95      	ldr	r5, [pc, #596]	; (8001910 <HAL_RCC_OscConfig+0x5d4>)
 80016ba:	682b      	ldr	r3, [r5, #0]
 80016bc:	f423 3380 	bic.w	r3, r3, #65536	; 0x10000
 80016c0:	602b      	str	r3, [r5, #0]
 80016c2:	682b      	ldr	r3, [r5, #0]
 80016c4:	f423 2380 	bic.w	r3, r3, #262144	; 0x40000
 80016c8:	602b      	str	r3, [r5, #0]
 80016ca:	6aeb      	ldr	r3, [r5, #44]	; 0x2c
 80016cc:	68a2      	ldr	r2, [r4, #8]
 80016ce:	f023 030f 	bic.w	r3, r3, #15
 80016d2:	4313      	orrs	r3, r2
 80016d4:	62eb      	str	r3, [r5, #44]	; 0x2c
 80016d6:	f7ff f863 	bl	80007a0 <HAL_GetTick>
 80016da:	f44f 3800 	mov.w	r8, #131072	; 0x20000
 80016de:	4606      	mov	r6, r0
 80016e0:	2701      	movs	r7, #1
 80016e2:	e004      	b.n	80016ee <HAL_RCC_OscConfig+0x3b2>
 80016e4:	f7ff f85c 	bl	80007a0 <HAL_GetTick>
 80016e8:	1b80      	subs	r0, r0, r6
 80016ea:	2864      	cmp	r0, #100	; 0x64
 80016ec:	d8e0      	bhi.n	80016b0 <HAL_RCC_OscConfig+0x374>
 80016ee:	fa98 f3a8 	rbit	r3, r8
 80016f2:	682a      	ldr	r2, [r5, #0]
 80016f4:	fa98 f3a8 	rbit	r3, r8
 80016f8:	fab3 f383 	clz	r3, r3
 80016fc:	f003 031f 	and.w	r3, r3, #31
 8001700:	fa07 f303 	lsl.w	r3, r7, r3
 8001704:	4213      	tst	r3, r2
 8001706:	d1ed      	bne.n	80016e4 <HAL_RCC_OscConfig+0x3a8>
 8001708:	e671      	b.n	80013ee <HAL_RCC_OscConfig+0xb2>
 800170a:	4d81      	ldr	r5, [pc, #516]	; (8001910 <HAL_RCC_OscConfig+0x5d4>)
 800170c:	6a2b      	ldr	r3, [r5, #32]
 800170e:	f023 0301 	bic.w	r3, r3, #1
 8001712:	622b      	str	r3, [r5, #32]
 8001714:	6a2b      	ldr	r3, [r5, #32]
 8001716:	f023 0304 	bic.w	r3, r3, #4
 800171a:	622b      	str	r3, [r5, #32]
 800171c:	f7ff f840 	bl	80007a0 <HAL_GetTick>
 8001720:	f04f 0902 	mov.w	r9, #2
 8001724:	4606      	mov	r6, r0
 8001726:	2701      	movs	r7, #1
 8001728:	e013      	b.n	8001752 <HAL_RCC_OscConfig+0x416>
 800172a:	fa99 f3a9 	rbit	r3, r9
 800172e:	6a6a      	ldr	r2, [r5, #36]	; 0x24
 8001730:	fa99 f3a9 	rbit	r3, r9
 8001734:	fab3 f383 	clz	r3, r3
 8001738:	f003 031f 	and.w	r3, r3, #31
 800173c:	fa07 f303 	lsl.w	r3, r7, r3
 8001740:	4213      	tst	r3, r2
 8001742:	d00e      	beq.n	8001762 <HAL_RCC_OscConfig+0x426>
 8001744:	f7ff f82c 	bl	80007a0 <HAL_GetTick>
 8001748:	f241 3388 	movw	r3, #5000	; 0x1388
 800174c:	1b80      	subs	r0, r0, r6
 800174e:	4298      	cmp	r0, r3
 8001750:	d8ae      	bhi.n	80016b0 <HAL_RCC_OscConfig+0x374>
 8001752:	fa99 f3a9 	rbit	r3, r9
 8001756:	fa99 f3a9 	rbit	r3, r9
 800175a:	2b00      	cmp	r3, #0
 800175c:	d0e5      	beq.n	800172a <HAL_RCC_OscConfig+0x3ee>
 800175e:	6a2a      	ldr	r2, [r5, #32]
 8001760:	e7e6      	b.n	8001730 <HAL_RCC_OscConfig+0x3f4>
 8001762:	f1b8 0f00 	cmp.w	r8, #0
 8001766:	f43f aeda 	beq.w	800151e <HAL_RCC_OscConfig+0x1e2>
 800176a:	4a69      	ldr	r2, [pc, #420]	; (8001910 <HAL_RCC_OscConfig+0x5d4>)
 800176c:	69d3      	ldr	r3, [r2, #28]
 800176e:	f023 5380 	bic.w	r3, r3, #268435456	; 0x10000000
 8001772:	61d3      	str	r3, [r2, #28]
 8001774:	e6d3      	b.n	800151e <HAL_RCC_OscConfig+0x1e2>
 8001776:	2501      	movs	r5, #1
 8001778:	fa95 f3a5 	rbit	r3, r5
 800177c:	fab3 f383 	clz	r3, r3
 8001780:	f103 5384 	add.w	r3, r3, #276824064	; 0x10800000
 8001784:	f503 1384 	add.w	r3, r3, #1081344	; 0x108000
 8001788:	009b      	lsls	r3, r3, #2
 800178a:	4f61      	ldr	r7, [pc, #388]	; (8001910 <HAL_RCC_OscConfig+0x5d4>)
 800178c:	601a      	str	r2, [r3, #0]
 800178e:	f7ff f807 	bl	80007a0 <HAL_GetTick>
 8001792:	f04f 0802 	mov.w	r8, #2
 8001796:	4606      	mov	r6, r0
 8001798:	e004      	b.n	80017a4 <HAL_RCC_OscConfig+0x468>
 800179a:	f7ff f801 	bl	80007a0 <HAL_GetTick>
 800179e:	1b80      	subs	r0, r0, r6
 80017a0:	2802      	cmp	r0, #2
 80017a2:	d885      	bhi.n	80016b0 <HAL_RCC_OscConfig+0x374>
 80017a4:	fa98 f3a8 	rbit	r3, r8
 80017a8:	683a      	ldr	r2, [r7, #0]
 80017aa:	fa98 f3a8 	rbit	r3, r8
 80017ae:	fab3 f383 	clz	r3, r3
 80017b2:	f003 031f 	and.w	r3, r3, #31
 80017b6:	fa05 f303 	lsl.w	r3, r5, r3
 80017ba:	4213      	tst	r3, r2
 80017bc:	d1ed      	bne.n	800179a <HAL_RCC_OscConfig+0x45e>
 80017be:	6823      	ldr	r3, [r4, #0]
 80017c0:	e65b      	b.n	800147a <HAL_RCC_OscConfig+0x13e>
 80017c2:	4a53      	ldr	r2, [pc, #332]	; (8001910 <HAL_RCC_OscConfig+0x5d4>)
 80017c4:	6a13      	ldr	r3, [r2, #32]
 80017c6:	f043 0301 	orr.w	r3, r3, #1
 80017ca:	6213      	str	r3, [r2, #32]
 80017cc:	f7fe ffe8 	bl	80007a0 <HAL_GetTick>
 80017d0:	4f4f      	ldr	r7, [pc, #316]	; (8001910 <HAL_RCC_OscConfig+0x5d4>)
 80017d2:	4605      	mov	r5, r0
 80017d4:	f04f 0902 	mov.w	r9, #2
 80017d8:	2601      	movs	r6, #1
 80017da:	e014      	b.n	8001806 <HAL_RCC_OscConfig+0x4ca>
 80017dc:	fa99 f3a9 	rbit	r3, r9
 80017e0:	6a7a      	ldr	r2, [r7, #36]	; 0x24
 80017e2:	fa99 f3a9 	rbit	r3, r9
 80017e6:	fab3 f383 	clz	r3, r3
 80017ea:	f003 031f 	and.w	r3, r3, #31
 80017ee:	fa06 f303 	lsl.w	r3, r6, r3
 80017f2:	4213      	tst	r3, r2
 80017f4:	d1b5      	bne.n	8001762 <HAL_RCC_OscConfig+0x426>
 80017f6:	f7fe ffd3 	bl	80007a0 <HAL_GetTick>
 80017fa:	f241 3388 	movw	r3, #5000	; 0x1388
 80017fe:	1b40      	subs	r0, r0, r5
 8001800:	4298      	cmp	r0, r3
 8001802:	f63f af55 	bhi.w	80016b0 <HAL_RCC_OscConfig+0x374>
 8001806:	fa99 f3a9 	rbit	r3, r9
 800180a:	fa99 f3a9 	rbit	r3, r9
 800180e:	2b00      	cmp	r3, #0
 8001810:	d0e4      	beq.n	80017dc <HAL_RCC_OscConfig+0x4a0>
 8001812:	6a3a      	ldr	r2, [r7, #32]
 8001814:	e7e5      	b.n	80017e2 <HAL_RCC_OscConfig+0x4a6>
 8001816:	2801      	cmp	r0, #1
 8001818:	f43f aeb6 	beq.w	8001588 <HAL_RCC_OscConfig+0x24c>
 800181c:	686b      	ldr	r3, [r5, #4]
 800181e:	6a22      	ldr	r2, [r4, #32]
 8001820:	f403 3180 	and.w	r1, r3, #65536	; 0x10000
 8001824:	4291      	cmp	r1, r2
 8001826:	f47f aec9 	bne.w	80015bc <HAL_RCC_OscConfig+0x280>
 800182a:	6a60      	ldr	r0, [r4, #36]	; 0x24
 800182c:	f403 1370 	and.w	r3, r3, #3932160	; 0x3c0000
 8001830:	1a18      	subs	r0, r3, r0
 8001832:	bf18      	it	ne
 8001834:	2001      	movne	r0, #1
 8001836:	e6a7      	b.n	8001588 <HAL_RCC_OscConfig+0x24c>
 8001838:	f103 4380 	add.w	r3, r3, #1073741824	; 0x40000000
 800183c:	f5a3 333c 	sub.w	r3, r3, #192512	; 0x2f000
 8001840:	681a      	ldr	r2, [r3, #0]
 8001842:	f442 2280 	orr.w	r2, r2, #262144	; 0x40000
 8001846:	601a      	str	r2, [r3, #0]
 8001848:	681a      	ldr	r2, [r3, #0]
 800184a:	f442 3280 	orr.w	r2, r2, #65536	; 0x10000
 800184e:	601a      	str	r2, [r3, #0]
 8001850:	e59f      	b.n	8001392 <HAL_RCC_OscConfig+0x56>
 8001852:	f042 0204 	orr.w	r2, r2, #4
 8001856:	621a      	str	r2, [r3, #32]
 8001858:	6a1a      	ldr	r2, [r3, #32]
 800185a:	f042 0201 	orr.w	r2, r2, #1
 800185e:	621a      	str	r2, [r3, #32]
 8001860:	e7b4      	b.n	80017cc <HAL_RCC_OscConfig+0x490>
 8001862:	2001      	movs	r0, #1
 8001864:	4770      	bx	lr
 8001866:	fa93 f3a3 	rbit	r3, r3
 800186a:	fab3 f383 	clz	r3, r3
 800186e:	f103 5384 	add.w	r3, r3, #276824064	; 0x10800000
 8001872:	f503 1384 	add.w	r3, r3, #1081344	; 0x108000
 8001876:	009b      	lsls	r3, r3, #2
 8001878:	2200      	movs	r2, #0
 800187a:	601a      	str	r2, [r3, #0]
 800187c:	f7fe ff90 	bl	80007a0 <HAL_GetTick>
 8001880:	f04f 7800 	mov.w	r8, #33554432	; 0x2000000
 8001884:	4606      	mov	r6, r0
 8001886:	2701      	movs	r7, #1
 8001888:	e005      	b.n	8001896 <HAL_RCC_OscConfig+0x55a>
 800188a:	f7fe ff89 	bl	80007a0 <HAL_GetTick>
 800188e:	1b80      	subs	r0, r0, r6
 8001890:	2802      	cmp	r0, #2
 8001892:	f63f af0d 	bhi.w	80016b0 <HAL_RCC_OscConfig+0x374>
 8001896:	fa98 f3a8 	rbit	r3, r8
 800189a:	682a      	ldr	r2, [r5, #0]
 800189c:	fa98 f3a8 	rbit	r3, r8
 80018a0:	fab3 f383 	clz	r3, r3
 80018a4:	f003 031f 	and.w	r3, r3, #31
 80018a8:	fa07 f303 	lsl.w	r3, r7, r3
 80018ac:	4213      	tst	r3, r2
 80018ae:	d1ec      	bne.n	800188a <HAL_RCC_OscConfig+0x54e>
 80018b0:	e9d4 1308 	ldrd	r1, r3, [r4, #32]
 80018b4:	686a      	ldr	r2, [r5, #4]
 80018b6:	430b      	orrs	r3, r1
 80018b8:	f422 1274 	bic.w	r2, r2, #3997696	; 0x3d0000
 80018bc:	4313      	orrs	r3, r2
 80018be:	606b      	str	r3, [r5, #4]
 80018c0:	f04f 7380 	mov.w	r3, #16777216	; 0x1000000
 80018c4:	fa93 f3a3 	rbit	r3, r3
 80018c8:	fab3 f383 	clz	r3, r3
 80018cc:	f103 5384 	add.w	r3, r3, #276824064	; 0x10800000
 80018d0:	f503 1384 	add.w	r3, r3, #1081344	; 0x108000
 80018d4:	009b      	lsls	r3, r3, #2
 80018d6:	4e0e      	ldr	r6, [pc, #56]	; (8001910 <HAL_RCC_OscConfig+0x5d4>)
 80018d8:	601f      	str	r7, [r3, #0]
 80018da:	f7fe ff61 	bl	80007a0 <HAL_GetTick>
 80018de:	f04f 7800 	mov.w	r8, #33554432	; 0x2000000
 80018e2:	4604      	mov	r4, r0
 80018e4:	2501      	movs	r5, #1
 80018e6:	e005      	b.n	80018f4 <HAL_RCC_OscConfig+0x5b8>
 80018e8:	f7fe ff5a 	bl	80007a0 <HAL_GetTick>
 80018ec:	1b00      	subs	r0, r0, r4
 80018ee:	2802      	cmp	r0, #2
 80018f0:	f63f aede 	bhi.w	80016b0 <HAL_RCC_OscConfig+0x374>
 80018f4:	fa98 f3a8 	rbit	r3, r8
 80018f8:	6832      	ldr	r2, [r6, #0]
 80018fa:	fa98 f3a8 	rbit	r3, r8
 80018fe:	fab3 f383 	clz	r3, r3
 8001902:	f003 031f 	and.w	r3, r3, #31
 8001906:	fa05 f303 	lsl.w	r3, r5, r3
 800190a:	4213      	tst	r3, r2
 800190c:	d0ec      	beq.n	80018e8 <HAL_RCC_OscConfig+0x5ac>
 800190e:	e63a      	b.n	8001586 <HAL_RCC_OscConfig+0x24a>
 8001910:	40021000 	.word	0x40021000

08001914 <HAL_RCC_ClockConfig>:
 8001914:	2800      	cmp	r0, #0
 8001916:	f000 80c8 	beq.w	8001aaa <HAL_RCC_ClockConfig+0x196>
 800191a:	4a6f      	ldr	r2, [pc, #444]	; (8001ad8 <HAL_RCC_ClockConfig+0x1c4>)
 800191c:	6813      	ldr	r3, [r2, #0]
 800191e:	f003 0307 	and.w	r3, r3, #7
 8001922:	428b      	cmp	r3, r1
 8001924:	e92d 41f0 	stmdb	sp!, {r4, r5, r6, r7, r8, lr}
 8001928:	460d      	mov	r5, r1
 800192a:	4604      	mov	r4, r0
 800192c:	d20c      	bcs.n	8001948 <HAL_RCC_ClockConfig+0x34>
 800192e:	6813      	ldr	r3, [r2, #0]
 8001930:	f023 0307 	bic.w	r3, r3, #7
 8001934:	430b      	orrs	r3, r1
 8001936:	6013      	str	r3, [r2, #0]
 8001938:	6813      	ldr	r3, [r2, #0]
 800193a:	f003 0307 	and.w	r3, r3, #7
 800193e:	428b      	cmp	r3, r1
 8001940:	d002      	beq.n	8001948 <HAL_RCC_ClockConfig+0x34>
 8001942:	2001      	movs	r0, #1
 8001944:	e8bd 81f0 	ldmia.w	sp!, {r4, r5, r6, r7, r8, pc}
 8001948:	6823      	ldr	r3, [r4, #0]
 800194a:	079f      	lsls	r7, r3, #30
 800194c:	d506      	bpl.n	800195c <HAL_RCC_ClockConfig+0x48>
 800194e:	4963      	ldr	r1, [pc, #396]	; (8001adc <HAL_RCC_ClockConfig+0x1c8>)
 8001950:	68a0      	ldr	r0, [r4, #8]
 8001952:	684a      	ldr	r2, [r1, #4]
 8001954:	f022 02f0 	bic.w	r2, r2, #240	; 0xf0
 8001958:	4302      	orrs	r2, r0
 800195a:	604a      	str	r2, [r1, #4]
 800195c:	07de      	lsls	r6, r3, #31
 800195e:	d52f      	bpl.n	80019c0 <HAL_RCC_ClockConfig+0xac>
 8001960:	6861      	ldr	r1, [r4, #4]
 8001962:	2901      	cmp	r1, #1
 8001964:	f000 80a3 	beq.w	8001aae <HAL_RCC_ClockConfig+0x19a>
 8001968:	2902      	cmp	r1, #2
 800196a:	f000 808b 	beq.w	8001a84 <HAL_RCC_ClockConfig+0x170>
 800196e:	2202      	movs	r2, #2
 8001970:	fa92 f3a2 	rbit	r3, r2
 8001974:	4b59      	ldr	r3, [pc, #356]	; (8001adc <HAL_RCC_ClockConfig+0x1c8>)
 8001976:	6818      	ldr	r0, [r3, #0]
 8001978:	fa92 f2a2 	rbit	r2, r2
 800197c:	fab2 f282 	clz	r2, r2
 8001980:	f002 021f 	and.w	r2, r2, #31
 8001984:	2301      	movs	r3, #1
 8001986:	fa03 f202 	lsl.w	r2, r3, r2
 800198a:	4202      	tst	r2, r0
 800198c:	d0d9      	beq.n	8001942 <HAL_RCC_ClockConfig+0x2e>
 800198e:	4e53      	ldr	r6, [pc, #332]	; (8001adc <HAL_RCC_ClockConfig+0x1c8>)
 8001990:	6873      	ldr	r3, [r6, #4]
 8001992:	f023 0303 	bic.w	r3, r3, #3
 8001996:	430b      	orrs	r3, r1
 8001998:	6073      	str	r3, [r6, #4]
 800199a:	f7fe ff01 	bl	80007a0 <HAL_GetTick>
 800199e:	f241 3888 	movw	r8, #5000	; 0x1388
 80019a2:	4607      	mov	r7, r0
 80019a4:	e005      	b.n	80019b2 <HAL_RCC_ClockConfig+0x9e>
 80019a6:	f7fe fefb 	bl	80007a0 <HAL_GetTick>
 80019aa:	1bc0      	subs	r0, r0, r7
 80019ac:	4540      	cmp	r0, r8
 80019ae:	f200 8090 	bhi.w	8001ad2 <HAL_RCC_ClockConfig+0x1be>
 80019b2:	6873      	ldr	r3, [r6, #4]
 80019b4:	6862      	ldr	r2, [r4, #4]
 80019b6:	f003 030c 	and.w	r3, r3, #12
 80019ba:	ebb3 0f82 	cmp.w	r3, r2, lsl #2
 80019be:	d1f2      	bne.n	80019a6 <HAL_RCC_ClockConfig+0x92>
 80019c0:	4a45      	ldr	r2, [pc, #276]	; (8001ad8 <HAL_RCC_ClockConfig+0x1c4>)
 80019c2:	6813      	ldr	r3, [r2, #0]
 80019c4:	f003 0307 	and.w	r3, r3, #7
 80019c8:	42ab      	cmp	r3, r5
 80019ca:	d909      	bls.n	80019e0 <HAL_RCC_ClockConfig+0xcc>
 80019cc:	6813      	ldr	r3, [r2, #0]
 80019ce:	f023 0307 	bic.w	r3, r3, #7
 80019d2:	432b      	orrs	r3, r5
 80019d4:	6013      	str	r3, [r2, #0]
 80019d6:	6813      	ldr	r3, [r2, #0]
 80019d8:	f003 0307 	and.w	r3, r3, #7
 80019dc:	42ab      	cmp	r3, r5
 80019de:	d1b0      	bne.n	8001942 <HAL_RCC_ClockConfig+0x2e>
 80019e0:	6823      	ldr	r3, [r4, #0]
 80019e2:	0758      	lsls	r0, r3, #29
 80019e4:	d506      	bpl.n	80019f4 <HAL_RCC_ClockConfig+0xe0>
 80019e6:	493d      	ldr	r1, [pc, #244]	; (8001adc <HAL_RCC_ClockConfig+0x1c8>)
 80019e8:	68e0      	ldr	r0, [r4, #12]
 80019ea:	684a      	ldr	r2, [r1, #4]
 80019ec:	f422 62e0 	bic.w	r2, r2, #1792	; 0x700
 80019f0:	4302      	orrs	r2, r0
 80019f2:	604a      	str	r2, [r1, #4]
 80019f4:	0719      	lsls	r1, r3, #28
 80019f6:	d507      	bpl.n	8001a08 <HAL_RCC_ClockConfig+0xf4>
 80019f8:	4a38      	ldr	r2, [pc, #224]	; (8001adc <HAL_RCC_ClockConfig+0x1c8>)
 80019fa:	6921      	ldr	r1, [r4, #16]
 80019fc:	6853      	ldr	r3, [r2, #4]
 80019fe:	f423 5360 	bic.w	r3, r3, #14336	; 0x3800
 8001a02:	ea43 03c1 	orr.w	r3, r3, r1, lsl #3
 8001a06:	6053      	str	r3, [r2, #4]
 8001a08:	4934      	ldr	r1, [pc, #208]	; (8001adc <HAL_RCC_ClockConfig+0x1c8>)
 8001a0a:	684a      	ldr	r2, [r1, #4]
 8001a0c:	f002 030c 	and.w	r3, r2, #12
 8001a10:	2b08      	cmp	r3, #8
 8001a12:	d017      	beq.n	8001a44 <HAL_RCC_ClockConfig+0x130>
 8001a14:	4932      	ldr	r1, [pc, #200]	; (8001ae0 <HAL_RCC_ClockConfig+0x1cc>)
 8001a16:	4b31      	ldr	r3, [pc, #196]	; (8001adc <HAL_RCC_ClockConfig+0x1c8>)
 8001a18:	22f0      	movs	r2, #240	; 0xf0
 8001a1a:	685b      	ldr	r3, [r3, #4]
 8001a1c:	fa92 f2a2 	rbit	r2, r2
 8001a20:	fab2 f282 	clz	r2, r2
 8001a24:	f003 03f0 	and.w	r3, r3, #240	; 0xf0
 8001a28:	40d3      	lsrs	r3, r2
 8001a2a:	4a2e      	ldr	r2, [pc, #184]	; (8001ae4 <HAL_RCC_ClockConfig+0x1d0>)
 8001a2c:	482e      	ldr	r0, [pc, #184]	; (8001ae8 <HAL_RCC_ClockConfig+0x1d4>)
 8001a2e:	5cd3      	ldrb	r3, [r2, r3]
 8001a30:	4a2e      	ldr	r2, [pc, #184]	; (8001aec <HAL_RCC_ClockConfig+0x1d8>)
 8001a32:	6800      	ldr	r0, [r0, #0]
 8001a34:	fa21 f303 	lsr.w	r3, r1, r3
 8001a38:	6013      	str	r3, [r2, #0]
 8001a3a:	f003 fad7 	bl	8004fec <HAL_InitTick>
 8001a3e:	2000      	movs	r0, #0
 8001a40:	e8bd 81f0 	ldmia.w	sp!, {r4, r5, r6, r7, r8, pc}
 8001a44:	f44f 1370 	mov.w	r3, #3932160	; 0x3c0000
 8001a48:	fa93 f3a3 	rbit	r3, r3
 8001a4c:	f402 1070 	and.w	r0, r2, #3932160	; 0x3c0000
 8001a50:	fab3 f383 	clz	r3, r3
 8001a54:	fa20 f303 	lsr.w	r3, r0, r3
 8001a58:	4825      	ldr	r0, [pc, #148]	; (8001af0 <HAL_RCC_ClockConfig+0x1dc>)
 8001a5a:	6ac9      	ldr	r1, [r1, #44]	; 0x2c
 8001a5c:	5cc3      	ldrb	r3, [r0, r3]
 8001a5e:	200f      	movs	r0, #15
 8001a60:	fa90 f0a0 	rbit	r0, r0
 8001a64:	fab0 f080 	clz	r0, r0
 8001a68:	f001 010f 	and.w	r1, r1, #15
 8001a6c:	40c1      	lsrs	r1, r0
 8001a6e:	4821      	ldr	r0, [pc, #132]	; (8001af4 <HAL_RCC_ClockConfig+0x1e0>)
 8001a70:	03d2      	lsls	r2, r2, #15
 8001a72:	5c40      	ldrb	r0, [r0, r1]
 8001a74:	bf4a      	itet	mi
 8001a76:	491a      	ldrmi	r1, [pc, #104]	; (8001ae0 <HAL_RCC_ClockConfig+0x1cc>)
 8001a78:	491f      	ldrpl	r1, [pc, #124]	; (8001af8 <HAL_RCC_ClockConfig+0x1e4>)
 8001a7a:	fbb1 f1f0 	udivmi	r1, r1, r0
 8001a7e:	fb01 f103 	mul.w	r1, r1, r3
 8001a82:	e7c8      	b.n	8001a16 <HAL_RCC_ClockConfig+0x102>
 8001a84:	f04f 7300 	mov.w	r3, #33554432	; 0x2000000
 8001a88:	fa93 f2a3 	rbit	r2, r3
 8001a8c:	4a13      	ldr	r2, [pc, #76]	; (8001adc <HAL_RCC_ClockConfig+0x1c8>)
 8001a8e:	6810      	ldr	r0, [r2, #0]
 8001a90:	fa93 f3a3 	rbit	r3, r3
 8001a94:	fab3 f383 	clz	r3, r3
 8001a98:	f003 031f 	and.w	r3, r3, #31
 8001a9c:	2201      	movs	r2, #1
 8001a9e:	fa02 f303 	lsl.w	r3, r2, r3
 8001aa2:	4203      	tst	r3, r0
 8001aa4:	f47f af73 	bne.w	800198e <HAL_RCC_ClockConfig+0x7a>
 8001aa8:	e74b      	b.n	8001942 <HAL_RCC_ClockConfig+0x2e>
 8001aaa:	2001      	movs	r0, #1
 8001aac:	4770      	bx	lr
 8001aae:	f44f 3200 	mov.w	r2, #131072	; 0x20000
 8001ab2:	fa92 f3a2 	rbit	r3, r2
 8001ab6:	4b09      	ldr	r3, [pc, #36]	; (8001adc <HAL_RCC_ClockConfig+0x1c8>)
 8001ab8:	681b      	ldr	r3, [r3, #0]
 8001aba:	fa92 f2a2 	rbit	r2, r2
 8001abe:	fab2 f282 	clz	r2, r2
 8001ac2:	f002 021f 	and.w	r2, r2, #31
 8001ac6:	fa01 f202 	lsl.w	r2, r1, r2
 8001aca:	421a      	tst	r2, r3
 8001acc:	f47f af5f 	bne.w	800198e <HAL_RCC_ClockConfig+0x7a>
 8001ad0:	e737      	b.n	8001942 <HAL_RCC_ClockConfig+0x2e>
 8001ad2:	2003      	movs	r0, #3
 8001ad4:	e736      	b.n	8001944 <HAL_RCC_ClockConfig+0x30>
 8001ad6:	bf00      	nop
 8001ad8:	40022000 	.word	0x40022000
 8001adc:	40021000 	.word	0x40021000
 8001ae0:	007a1200 	.word	0x007a1200
 8001ae4:	08008654 	.word	0x08008654
 8001ae8:	20000004 	.word	0x20000004
 8001aec:	2000000c 	.word	0x2000000c
 8001af0:	08008588 	.word	0x08008588
 8001af4:	08008598 	.word	0x08008598
 8001af8:	003d0900 	.word	0x003d0900

08001afc <HAL_RCC_GetPCLK2Freq>:
 8001afc:	4b08      	ldr	r3, [pc, #32]	; (8001b20 <HAL_RCC_GetPCLK2Freq+0x24>)
 8001afe:	f44f 5260 	mov.w	r2, #14336	; 0x3800
 8001b02:	685b      	ldr	r3, [r3, #4]
 8001b04:	fa92 f2a2 	rbit	r2, r2
 8001b08:	fab2 f282 	clz	r2, r2
 8001b0c:	f403 5360 	and.w	r3, r3, #14336	; 0x3800
 8001b10:	4904      	ldr	r1, [pc, #16]	; (8001b24 <HAL_RCC_GetPCLK2Freq+0x28>)
 8001b12:	40d3      	lsrs	r3, r2
 8001b14:	4a04      	ldr	r2, [pc, #16]	; (8001b28 <HAL_RCC_GetPCLK2Freq+0x2c>)
 8001b16:	5ccb      	ldrb	r3, [r1, r3]
 8001b18:	6810      	ldr	r0, [r2, #0]
 8001b1a:	40d8      	lsrs	r0, r3
 8001b1c:	4770      	bx	lr
 8001b1e:	bf00      	nop
 8001b20:	40021000 	.word	0x40021000
 8001b24:	08008664 	.word	0x08008664
 8001b28:	2000000c 	.word	0x2000000c

08001b2c <HAL_RCC_GetClockConfig>:
 8001b2c:	4b0e      	ldr	r3, [pc, #56]	; (8001b68 <HAL_RCC_GetClockConfig+0x3c>)
 8001b2e:	220f      	movs	r2, #15
 8001b30:	6002      	str	r2, [r0, #0]
 8001b32:	685a      	ldr	r2, [r3, #4]
 8001b34:	f002 0203 	and.w	r2, r2, #3
 8001b38:	6042      	str	r2, [r0, #4]
 8001b3a:	685a      	ldr	r2, [r3, #4]
 8001b3c:	f002 02f0 	and.w	r2, r2, #240	; 0xf0
 8001b40:	6082      	str	r2, [r0, #8]
 8001b42:	685a      	ldr	r2, [r3, #4]
 8001b44:	f402 62e0 	and.w	r2, r2, #1792	; 0x700
 8001b48:	60c2      	str	r2, [r0, #12]
 8001b4a:	685b      	ldr	r3, [r3, #4]
 8001b4c:	08db      	lsrs	r3, r3, #3
 8001b4e:	b410      	push	{r4}
 8001b50:	f403 63e0 	and.w	r3, r3, #1792	; 0x700
 8001b54:	4c05      	ldr	r4, [pc, #20]	; (8001b6c <HAL_RCC_GetClockConfig+0x40>)
 8001b56:	6103      	str	r3, [r0, #16]
 8001b58:	6823      	ldr	r3, [r4, #0]
 8001b5a:	f85d 4b04 	ldr.w	r4, [sp], #4
 8001b5e:	f003 0307 	and.w	r3, r3, #7
 8001b62:	600b      	str	r3, [r1, #0]
 8001b64:	4770      	bx	lr
 8001b66:	bf00      	nop
 8001b68:	40021000 	.word	0x40021000
 8001b6c:	40022000 	.word	0x40022000

08001b70 <HAL_RCCEx_PeriphCLKConfig>:
 8001b70:	e92d 43f0 	stmdb	sp!, {r4, r5, r6, r7, r8, r9, lr}
 8001b74:	6803      	ldr	r3, [r0, #0]
 8001b76:	03dd      	lsls	r5, r3, #15
 8001b78:	b083      	sub	sp, #12
 8001b7a:	4604      	mov	r4, r0
 8001b7c:	d53d      	bpl.n	8001bfa <HAL_RCCEx_PeriphCLKConfig+0x8a>
 8001b7e:	4b82      	ldr	r3, [pc, #520]	; (8001d88 <HAL_RCCEx_PeriphCLKConfig+0x218>)
 8001b80:	69da      	ldr	r2, [r3, #28]
 8001b82:	00d0      	lsls	r0, r2, #3
 8001b84:	f140 80b7 	bpl.w	8001cf6 <HAL_RCCEx_PeriphCLKConfig+0x186>
 8001b88:	4d80      	ldr	r5, [pc, #512]	; (8001d8c <HAL_RCCEx_PeriphCLKConfig+0x21c>)
 8001b8a:	682b      	ldr	r3, [r5, #0]
 8001b8c:	05d9      	lsls	r1, r3, #23
 8001b8e:	f04f 0600 	mov.w	r6, #0
 8001b92:	f140 80c0 	bpl.w	8001d16 <HAL_RCCEx_PeriphCLKConfig+0x1a6>
 8001b96:	4d7c      	ldr	r5, [pc, #496]	; (8001d88 <HAL_RCCEx_PeriphCLKConfig+0x218>)
 8001b98:	6a2b      	ldr	r3, [r5, #32]
 8001b9a:	f413 7340 	ands.w	r3, r3, #768	; 0x300
 8001b9e:	d01f      	beq.n	8001be0 <HAL_RCCEx_PeriphCLKConfig+0x70>
 8001ba0:	6861      	ldr	r1, [r4, #4]
 8001ba2:	f401 7240 	and.w	r2, r1, #768	; 0x300
 8001ba6:	429a      	cmp	r2, r3
 8001ba8:	d01b      	beq.n	8001be2 <HAL_RCCEx_PeriphCLKConfig+0x72>
 8001baa:	6a29      	ldr	r1, [r5, #32]
 8001bac:	f44f 3380 	mov.w	r3, #65536	; 0x10000
 8001bb0:	f421 7040 	bic.w	r0, r1, #768	; 0x300
 8001bb4:	fa93 f2a3 	rbit	r2, r3
 8001bb8:	f8df c1d4 	ldr.w	ip, [pc, #468]	; 8001d90 <HAL_RCCEx_PeriphCLKConfig+0x220>
 8001bbc:	fab2 f282 	clz	r2, r2
 8001bc0:	4462      	add	r2, ip
 8001bc2:	0092      	lsls	r2, r2, #2
 8001bc4:	2701      	movs	r7, #1
 8001bc6:	6017      	str	r7, [r2, #0]
 8001bc8:	fa93 f3a3 	rbit	r3, r3
 8001bcc:	fab3 f383 	clz	r3, r3
 8001bd0:	4463      	add	r3, ip
 8001bd2:	009b      	lsls	r3, r3, #2
 8001bd4:	2200      	movs	r2, #0
 8001bd6:	601a      	str	r2, [r3, #0]
 8001bd8:	07cb      	lsls	r3, r1, #31
 8001bda:	6228      	str	r0, [r5, #32]
 8001bdc:	f100 80af 	bmi.w	8001d3e <HAL_RCCEx_PeriphCLKConfig+0x1ce>
 8001be0:	6861      	ldr	r1, [r4, #4]
 8001be2:	4a69      	ldr	r2, [pc, #420]	; (8001d88 <HAL_RCCEx_PeriphCLKConfig+0x218>)
 8001be4:	6a13      	ldr	r3, [r2, #32]
 8001be6:	f423 7340 	bic.w	r3, r3, #768	; 0x300
 8001bea:	430b      	orrs	r3, r1
 8001bec:	6213      	str	r3, [r2, #32]
 8001bee:	b11e      	cbz	r6, 8001bf8 <HAL_RCCEx_PeriphCLKConfig+0x88>
 8001bf0:	69d3      	ldr	r3, [r2, #28]
 8001bf2:	f023 5380 	bic.w	r3, r3, #268435456	; 0x10000000
 8001bf6:	61d3      	str	r3, [r2, #28]
 8001bf8:	6823      	ldr	r3, [r4, #0]
 8001bfa:	07df      	lsls	r7, r3, #31
 8001bfc:	d506      	bpl.n	8001c0c <HAL_RCCEx_PeriphCLKConfig+0x9c>
 8001bfe:	4962      	ldr	r1, [pc, #392]	; (8001d88 <HAL_RCCEx_PeriphCLKConfig+0x218>)
 8001c00:	68a0      	ldr	r0, [r4, #8]
 8001c02:	6b0a      	ldr	r2, [r1, #48]	; 0x30
 8001c04:	f022 0203 	bic.w	r2, r2, #3
 8001c08:	4302      	orrs	r2, r0
 8001c0a:	630a      	str	r2, [r1, #48]	; 0x30
 8001c0c:	079e      	lsls	r6, r3, #30
 8001c0e:	d506      	bpl.n	8001c1e <HAL_RCCEx_PeriphCLKConfig+0xae>
 8001c10:	495d      	ldr	r1, [pc, #372]	; (8001d88 <HAL_RCCEx_PeriphCLKConfig+0x218>)
 8001c12:	68e0      	ldr	r0, [r4, #12]
 8001c14:	6b0a      	ldr	r2, [r1, #48]	; 0x30
 8001c16:	f422 3240 	bic.w	r2, r2, #196608	; 0x30000
 8001c1a:	4302      	orrs	r2, r0
 8001c1c:	630a      	str	r2, [r1, #48]	; 0x30
 8001c1e:	075d      	lsls	r5, r3, #29
 8001c20:	d506      	bpl.n	8001c30 <HAL_RCCEx_PeriphCLKConfig+0xc0>
 8001c22:	4959      	ldr	r1, [pc, #356]	; (8001d88 <HAL_RCCEx_PeriphCLKConfig+0x218>)
 8001c24:	6920      	ldr	r0, [r4, #16]
 8001c26:	6b0a      	ldr	r2, [r1, #48]	; 0x30
 8001c28:	f422 2240 	bic.w	r2, r2, #786432	; 0xc0000
 8001c2c:	4302      	orrs	r2, r0
 8001c2e:	630a      	str	r2, [r1, #48]	; 0x30
 8001c30:	0698      	lsls	r0, r3, #26
 8001c32:	d506      	bpl.n	8001c42 <HAL_RCCEx_PeriphCLKConfig+0xd2>
 8001c34:	4954      	ldr	r1, [pc, #336]	; (8001d88 <HAL_RCCEx_PeriphCLKConfig+0x218>)
 8001c36:	69e0      	ldr	r0, [r4, #28]
 8001c38:	6b0a      	ldr	r2, [r1, #48]	; 0x30
 8001c3a:	f022 0210 	bic.w	r2, r2, #16
 8001c3e:	4302      	orrs	r2, r0
 8001c40:	630a      	str	r2, [r1, #48]	; 0x30
 8001c42:	0399      	lsls	r1, r3, #14
 8001c44:	d506      	bpl.n	8001c54 <HAL_RCCEx_PeriphCLKConfig+0xe4>
 8001c46:	4950      	ldr	r1, [pc, #320]	; (8001d88 <HAL_RCCEx_PeriphCLKConfig+0x218>)
 8001c48:	6ba0      	ldr	r0, [r4, #56]	; 0x38
 8001c4a:	684a      	ldr	r2, [r1, #4]
 8001c4c:	f422 0280 	bic.w	r2, r2, #4194304	; 0x400000
 8001c50:	4302      	orrs	r2, r0
 8001c52:	604a      	str	r2, [r1, #4]
 8001c54:	065a      	lsls	r2, r3, #25
 8001c56:	d506      	bpl.n	8001c66 <HAL_RCCEx_PeriphCLKConfig+0xf6>
 8001c58:	494b      	ldr	r1, [pc, #300]	; (8001d88 <HAL_RCCEx_PeriphCLKConfig+0x218>)
 8001c5a:	6a20      	ldr	r0, [r4, #32]
 8001c5c:	6b0a      	ldr	r2, [r1, #48]	; 0x30
 8001c5e:	f022 0220 	bic.w	r2, r2, #32
 8001c62:	4302      	orrs	r2, r0
 8001c64:	630a      	str	r2, [r1, #48]	; 0x30
 8001c66:	071f      	lsls	r7, r3, #28
 8001c68:	d506      	bpl.n	8001c78 <HAL_RCCEx_PeriphCLKConfig+0x108>
 8001c6a:	4947      	ldr	r1, [pc, #284]	; (8001d88 <HAL_RCCEx_PeriphCLKConfig+0x218>)
 8001c6c:	6960      	ldr	r0, [r4, #20]
 8001c6e:	6b0a      	ldr	r2, [r1, #48]	; 0x30
 8001c70:	f422 1240 	bic.w	r2, r2, #3145728	; 0x300000
 8001c74:	4302      	orrs	r2, r0
 8001c76:	630a      	str	r2, [r1, #48]	; 0x30
 8001c78:	06de      	lsls	r6, r3, #27
 8001c7a:	d506      	bpl.n	8001c8a <HAL_RCCEx_PeriphCLKConfig+0x11a>
 8001c7c:	4942      	ldr	r1, [pc, #264]	; (8001d88 <HAL_RCCEx_PeriphCLKConfig+0x218>)
 8001c7e:	69a0      	ldr	r0, [r4, #24]
 8001c80:	6b0a      	ldr	r2, [r1, #48]	; 0x30
 8001c82:	f422 0240 	bic.w	r2, r2, #12582912	; 0xc00000
 8001c86:	4302      	orrs	r2, r0
 8001c88:	630a      	str	r2, [r1, #48]	; 0x30
 8001c8a:	059d      	lsls	r5, r3, #22
 8001c8c:	d506      	bpl.n	8001c9c <HAL_RCCEx_PeriphCLKConfig+0x12c>
 8001c8e:	493e      	ldr	r1, [pc, #248]	; (8001d88 <HAL_RCCEx_PeriphCLKConfig+0x218>)
 8001c90:	6ae0      	ldr	r0, [r4, #44]	; 0x2c
 8001c92:	684a      	ldr	r2, [r1, #4]
 8001c94:	f422 0200 	bic.w	r2, r2, #8388608	; 0x800000
 8001c98:	4302      	orrs	r2, r0
 8001c9a:	604a      	str	r2, [r1, #4]
 8001c9c:	0618      	lsls	r0, r3, #24
 8001c9e:	d506      	bpl.n	8001cae <HAL_RCCEx_PeriphCLKConfig+0x13e>
 8001ca0:	4939      	ldr	r1, [pc, #228]	; (8001d88 <HAL_RCCEx_PeriphCLKConfig+0x218>)
 8001ca2:	6a60      	ldr	r0, [r4, #36]	; 0x24
 8001ca4:	6aca      	ldr	r2, [r1, #44]	; 0x2c
 8001ca6:	f422 72f8 	bic.w	r2, r2, #496	; 0x1f0
 8001caa:	4302      	orrs	r2, r0
 8001cac:	62ca      	str	r2, [r1, #44]	; 0x2c
 8001cae:	05d9      	lsls	r1, r3, #23
 8001cb0:	d506      	bpl.n	8001cc0 <HAL_RCCEx_PeriphCLKConfig+0x150>
 8001cb2:	4935      	ldr	r1, [pc, #212]	; (8001d88 <HAL_RCCEx_PeriphCLKConfig+0x218>)
 8001cb4:	6aa0      	ldr	r0, [r4, #40]	; 0x28
 8001cb6:	6aca      	ldr	r2, [r1, #44]	; 0x2c
 8001cb8:	f422 5278 	bic.w	r2, r2, #15872	; 0x3e00
 8001cbc:	4302      	orrs	r2, r0
 8001cbe:	62ca      	str	r2, [r1, #44]	; 0x2c
 8001cc0:	04da      	lsls	r2, r3, #19
 8001cc2:	d506      	bpl.n	8001cd2 <HAL_RCCEx_PeriphCLKConfig+0x162>
 8001cc4:	4930      	ldr	r1, [pc, #192]	; (8001d88 <HAL_RCCEx_PeriphCLKConfig+0x218>)
 8001cc6:	6b20      	ldr	r0, [r4, #48]	; 0x30
 8001cc8:	6b0a      	ldr	r2, [r1, #48]	; 0x30
 8001cca:	f422 7280 	bic.w	r2, r2, #256	; 0x100
 8001cce:	4302      	orrs	r2, r0
 8001cd0:	630a      	str	r2, [r1, #48]	; 0x30
 8001cd2:	f413 5300 	ands.w	r3, r3, #8192	; 0x2000
 8001cd6:	d103      	bne.n	8001ce0 <HAL_RCCEx_PeriphCLKConfig+0x170>
 8001cd8:	4618      	mov	r0, r3
 8001cda:	b003      	add	sp, #12
 8001cdc:	e8bd 83f0 	ldmia.w	sp!, {r4, r5, r6, r7, r8, r9, pc}
 8001ce0:	4a29      	ldr	r2, [pc, #164]	; (8001d88 <HAL_RCCEx_PeriphCLKConfig+0x218>)
 8001ce2:	6b61      	ldr	r1, [r4, #52]	; 0x34
 8001ce4:	6b13      	ldr	r3, [r2, #48]	; 0x30
 8001ce6:	f423 7300 	bic.w	r3, r3, #512	; 0x200
 8001cea:	430b      	orrs	r3, r1
 8001cec:	2000      	movs	r0, #0
 8001cee:	6313      	str	r3, [r2, #48]	; 0x30
 8001cf0:	b003      	add	sp, #12
 8001cf2:	e8bd 83f0 	ldmia.w	sp!, {r4, r5, r6, r7, r8, r9, pc}
 8001cf6:	69da      	ldr	r2, [r3, #28]
 8001cf8:	4d24      	ldr	r5, [pc, #144]	; (8001d8c <HAL_RCCEx_PeriphCLKConfig+0x21c>)
 8001cfa:	f042 5280 	orr.w	r2, r2, #268435456	; 0x10000000
 8001cfe:	61da      	str	r2, [r3, #28]
 8001d00:	69db      	ldr	r3, [r3, #28]
 8001d02:	f003 5380 	and.w	r3, r3, #268435456	; 0x10000000
 8001d06:	9301      	str	r3, [sp, #4]
 8001d08:	9b01      	ldr	r3, [sp, #4]
 8001d0a:	682b      	ldr	r3, [r5, #0]
 8001d0c:	05d9      	lsls	r1, r3, #23
 8001d0e:	f04f 0601 	mov.w	r6, #1
 8001d12:	f53f af40 	bmi.w	8001b96 <HAL_RCCEx_PeriphCLKConfig+0x26>
 8001d16:	682b      	ldr	r3, [r5, #0]
 8001d18:	f443 7380 	orr.w	r3, r3, #256	; 0x100
 8001d1c:	602b      	str	r3, [r5, #0]
 8001d1e:	f7fe fd3f 	bl	80007a0 <HAL_GetTick>
 8001d22:	4607      	mov	r7, r0
 8001d24:	682b      	ldr	r3, [r5, #0]
 8001d26:	05da      	lsls	r2, r3, #23
 8001d28:	f53f af35 	bmi.w	8001b96 <HAL_RCCEx_PeriphCLKConfig+0x26>
 8001d2c:	f7fe fd38 	bl	80007a0 <HAL_GetTick>
 8001d30:	1bc0      	subs	r0, r0, r7
 8001d32:	2864      	cmp	r0, #100	; 0x64
 8001d34:	d9f6      	bls.n	8001d24 <HAL_RCCEx_PeriphCLKConfig+0x1b4>
 8001d36:	2003      	movs	r0, #3
 8001d38:	b003      	add	sp, #12
 8001d3a:	e8bd 83f0 	ldmia.w	sp!, {r4, r5, r6, r7, r8, r9, pc}
 8001d3e:	f7fe fd2f 	bl	80007a0 <HAL_GetTick>
 8001d42:	f04f 0902 	mov.w	r9, #2
 8001d46:	4680      	mov	r8, r0
 8001d48:	e015      	b.n	8001d76 <HAL_RCCEx_PeriphCLKConfig+0x206>
 8001d4a:	fa99 f3a9 	rbit	r3, r9
 8001d4e:	6a6a      	ldr	r2, [r5, #36]	; 0x24
 8001d50:	fa99 f3a9 	rbit	r3, r9
 8001d54:	fab3 f383 	clz	r3, r3
 8001d58:	f003 031f 	and.w	r3, r3, #31
 8001d5c:	fa07 f303 	lsl.w	r3, r7, r3
 8001d60:	4213      	tst	r3, r2
 8001d62:	f47f af3d 	bne.w	8001be0 <HAL_RCCEx_PeriphCLKConfig+0x70>
 8001d66:	f7fe fd1b 	bl	80007a0 <HAL_GetTick>
 8001d6a:	f241 3388 	movw	r3, #5000	; 0x1388
 8001d6e:	eba0 0008 	sub.w	r0, r0, r8
 8001d72:	4298      	cmp	r0, r3
 8001d74:	d8df      	bhi.n	8001d36 <HAL_RCCEx_PeriphCLKConfig+0x1c6>
 8001d76:	fa99 f3a9 	rbit	r3, r9
 8001d7a:	fa99 f3a9 	rbit	r3, r9
 8001d7e:	2b00      	cmp	r3, #0
 8001d80:	d0e3      	beq.n	8001d4a <HAL_RCCEx_PeriphCLKConfig+0x1da>
 8001d82:	6a2a      	ldr	r2, [r5, #32]
 8001d84:	e7e4      	b.n	8001d50 <HAL_RCCEx_PeriphCLKConfig+0x1e0>
 8001d86:	bf00      	nop
 8001d88:	40021000 	.word	0x40021000
 8001d8c:	40007000 	.word	0x40007000
 8001d90:	10908100 	.word	0x10908100

08001d94 <HAL_RTC_Init>:
 8001d94:	2800      	cmp	r0, #0
 8001d96:	d068      	beq.n	8001e6a <HAL_RTC_Init+0xd6>
 8001d98:	b538      	push	{r3, r4, r5, lr}
 8001d9a:	7f43      	ldrb	r3, [r0, #29]
 8001d9c:	4604      	mov	r4, r0
 8001d9e:	f003 02ff 	and.w	r2, r3, #255	; 0xff
 8001da2:	2b00      	cmp	r3, #0
 8001da4:	d05d      	beq.n	8001e62 <HAL_RTC_Init+0xce>
 8001da6:	6823      	ldr	r3, [r4, #0]
 8001da8:	2253      	movs	r2, #83	; 0x53
 8001daa:	2002      	movs	r0, #2
 8001dac:	21ca      	movs	r1, #202	; 0xca
 8001dae:	7760      	strb	r0, [r4, #29]
 8001db0:	6259      	str	r1, [r3, #36]	; 0x24
 8001db2:	625a      	str	r2, [r3, #36]	; 0x24
 8001db4:	68da      	ldr	r2, [r3, #12]
 8001db6:	0655      	lsls	r5, r2, #25
 8001db8:	d53c      	bpl.n	8001e34 <HAL_RTC_Init+0xa0>
 8001dba:	6899      	ldr	r1, [r3, #8]
 8001dbc:	6862      	ldr	r2, [r4, #4]
 8001dbe:	e9d4 5004 	ldrd	r5, r0, [r4, #16]
 8001dc2:	f421 01e0 	bic.w	r1, r1, #7340032	; 0x700000
 8001dc6:	f021 0140 	bic.w	r1, r1, #64	; 0x40
 8001dca:	6099      	str	r1, [r3, #8]
 8001dcc:	6899      	ldr	r1, [r3, #8]
 8001dce:	432a      	orrs	r2, r5
 8001dd0:	4302      	orrs	r2, r0
 8001dd2:	430a      	orrs	r2, r1
 8001dd4:	68e1      	ldr	r1, [r4, #12]
 8001dd6:	609a      	str	r2, [r3, #8]
 8001dd8:	6119      	str	r1, [r3, #16]
 8001dda:	691a      	ldr	r2, [r3, #16]
 8001ddc:	68a1      	ldr	r1, [r4, #8]
 8001dde:	ea42 4201 	orr.w	r2, r2, r1, lsl #16
 8001de2:	611a      	str	r2, [r3, #16]
 8001de4:	68da      	ldr	r2, [r3, #12]
 8001de6:	f022 0280 	bic.w	r2, r2, #128	; 0x80
 8001dea:	60da      	str	r2, [r3, #12]
 8001dec:	689a      	ldr	r2, [r3, #8]
 8001dee:	0691      	lsls	r1, r2, #26
 8001df0:	d50d      	bpl.n	8001e0e <HAL_RTC_Init+0x7a>
 8001df2:	6c19      	ldr	r1, [r3, #64]	; 0x40
 8001df4:	69a0      	ldr	r0, [r4, #24]
 8001df6:	f421 2180 	bic.w	r1, r1, #262144	; 0x40000
 8001dfa:	6419      	str	r1, [r3, #64]	; 0x40
 8001dfc:	6c1a      	ldr	r2, [r3, #64]	; 0x40
 8001dfe:	25ff      	movs	r5, #255	; 0xff
 8001e00:	4302      	orrs	r2, r0
 8001e02:	2101      	movs	r1, #1
 8001e04:	641a      	str	r2, [r3, #64]	; 0x40
 8001e06:	625d      	str	r5, [r3, #36]	; 0x24
 8001e08:	7761      	strb	r1, [r4, #29]
 8001e0a:	2000      	movs	r0, #0
 8001e0c:	bd38      	pop	{r3, r4, r5, pc}
 8001e0e:	68da      	ldr	r2, [r3, #12]
 8001e10:	f022 02a0 	bic.w	r2, r2, #160	; 0xa0
 8001e14:	60da      	str	r2, [r3, #12]
 8001e16:	f7fe fcc3 	bl	80007a0 <HAL_GetTick>
 8001e1a:	4605      	mov	r5, r0
 8001e1c:	e005      	b.n	8001e2a <HAL_RTC_Init+0x96>
 8001e1e:	f7fe fcbf 	bl	80007a0 <HAL_GetTick>
 8001e22:	1b43      	subs	r3, r0, r5
 8001e24:	f5b3 7f7a 	cmp.w	r3, #1000	; 0x3e8
 8001e28:	d814      	bhi.n	8001e54 <HAL_RTC_Init+0xc0>
 8001e2a:	6823      	ldr	r3, [r4, #0]
 8001e2c:	68da      	ldr	r2, [r3, #12]
 8001e2e:	0692      	lsls	r2, r2, #26
 8001e30:	d5f5      	bpl.n	8001e1e <HAL_RTC_Init+0x8a>
 8001e32:	e7de      	b.n	8001df2 <HAL_RTC_Init+0x5e>
 8001e34:	f04f 32ff 	mov.w	r2, #4294967295
 8001e38:	60da      	str	r2, [r3, #12]
 8001e3a:	f7fe fcb1 	bl	80007a0 <HAL_GetTick>
 8001e3e:	4605      	mov	r5, r0
 8001e40:	6823      	ldr	r3, [r4, #0]
 8001e42:	68da      	ldr	r2, [r3, #12]
 8001e44:	0650      	lsls	r0, r2, #25
 8001e46:	d4b8      	bmi.n	8001dba <HAL_RTC_Init+0x26>
 8001e48:	f7fe fcaa 	bl	80007a0 <HAL_GetTick>
 8001e4c:	1b43      	subs	r3, r0, r5
 8001e4e:	f5b3 7f7a 	cmp.w	r3, #1000	; 0x3e8
 8001e52:	d9f5      	bls.n	8001e40 <HAL_RTC_Init+0xac>
 8001e54:	6822      	ldr	r2, [r4, #0]
 8001e56:	21ff      	movs	r1, #255	; 0xff
 8001e58:	2304      	movs	r3, #4
 8001e5a:	6251      	str	r1, [r2, #36]	; 0x24
 8001e5c:	7763      	strb	r3, [r4, #29]
 8001e5e:	2001      	movs	r0, #1
 8001e60:	bd38      	pop	{r3, r4, r5, pc}
 8001e62:	7702      	strb	r2, [r0, #28]
 8001e64:	f003 f884 	bl	8004f70 <HAL_RTC_MspInit>
 8001e68:	e79d      	b.n	8001da6 <HAL_RTC_Init+0x12>
 8001e6a:	2001      	movs	r0, #1
 8001e6c:	4770      	bx	lr
 8001e6e:	bf00      	nop

08001e70 <HAL_RTC_SetTime>:
 8001e70:	e92d 43f8 	stmdb	sp!, {r3, r4, r5, r6, r7, r8, r9, lr}
 8001e74:	7f03      	ldrb	r3, [r0, #28]
 8001e76:	2b01      	cmp	r3, #1
 8001e78:	f000 80af 	beq.w	8001fda <HAL_RTC_SetTime+0x16a>
 8001e7c:	460d      	mov	r5, r1
 8001e7e:	2302      	movs	r3, #2
 8001e80:	2101      	movs	r1, #1
 8001e82:	6807      	ldr	r7, [r0, #0]
 8001e84:	7701      	strb	r1, [r0, #28]
 8001e86:	4606      	mov	r6, r0
 8001e88:	7743      	strb	r3, [r0, #29]
 8001e8a:	2a00      	cmp	r2, #0
 8001e8c:	d047      	beq.n	8001f1e <HAL_RTC_SetTime+0xae>
 8001e8e:	68bb      	ldr	r3, [r7, #8]
 8001e90:	7829      	ldrb	r1, [r5, #0]
 8001e92:	78aa      	ldrb	r2, [r5, #2]
 8001e94:	f013 0340 	ands.w	r3, r3, #64	; 0x40
 8001e98:	bf16      	itet	ne
 8001e9a:	78ec      	ldrbne	r4, [r5, #3]
 8001e9c:	70eb      	strbeq	r3, [r5, #3]
 8001e9e:	0423      	lslne	r3, r4, #16
 8001ea0:	786c      	ldrb	r4, [r5, #1]
 8001ea2:	0224      	lsls	r4, r4, #8
 8001ea4:	ea44 4401 	orr.w	r4, r4, r1, lsl #16
 8001ea8:	4314      	orrs	r4, r2
 8001eaa:	431c      	orrs	r4, r3
 8001eac:	22ca      	movs	r2, #202	; 0xca
 8001eae:	2353      	movs	r3, #83	; 0x53
 8001eb0:	627a      	str	r2, [r7, #36]	; 0x24
 8001eb2:	627b      	str	r3, [r7, #36]	; 0x24
 8001eb4:	68fb      	ldr	r3, [r7, #12]
 8001eb6:	065a      	lsls	r2, r3, #25
 8001eb8:	d56a      	bpl.n	8001f90 <HAL_RTC_SetTime+0x120>
 8001eba:	f004 347f 	and.w	r4, r4, #2139062143	; 0x7f7f7f7f
 8001ebe:	f024 44fe 	bic.w	r4, r4, #2130706432	; 0x7f000000
 8001ec2:	603c      	str	r4, [r7, #0]
 8001ec4:	68ba      	ldr	r2, [r7, #8]
 8001ec6:	e9d5 3103 	ldrd	r3, r1, [r5, #12]
 8001eca:	f422 2280 	bic.w	r2, r2, #262144	; 0x40000
 8001ece:	60ba      	str	r2, [r7, #8]
 8001ed0:	68ba      	ldr	r2, [r7, #8]
 8001ed2:	430b      	orrs	r3, r1
 8001ed4:	4313      	orrs	r3, r2
 8001ed6:	60bb      	str	r3, [r7, #8]
 8001ed8:	68fb      	ldr	r3, [r7, #12]
 8001eda:	f023 0380 	bic.w	r3, r3, #128	; 0x80
 8001ede:	60fb      	str	r3, [r7, #12]
 8001ee0:	68bb      	ldr	r3, [r7, #8]
 8001ee2:	069b      	lsls	r3, r3, #26
 8001ee4:	d412      	bmi.n	8001f0c <HAL_RTC_SetTime+0x9c>
 8001ee6:	68fb      	ldr	r3, [r7, #12]
 8001ee8:	f023 03a0 	bic.w	r3, r3, #160	; 0xa0
 8001eec:	60fb      	str	r3, [r7, #12]
 8001eee:	f7fe fc57 	bl	80007a0 <HAL_GetTick>
 8001ef2:	4605      	mov	r5, r0
 8001ef4:	e005      	b.n	8001f02 <HAL_RTC_SetTime+0x92>
 8001ef6:	f7fe fc53 	bl	80007a0 <HAL_GetTick>
 8001efa:	1b40      	subs	r0, r0, r5
 8001efc:	f5b0 7f7a 	cmp.w	r0, #1000	; 0x3e8
 8001f00:	d862      	bhi.n	8001fc8 <HAL_RTC_SetTime+0x158>
 8001f02:	6837      	ldr	r7, [r6, #0]
 8001f04:	68fc      	ldr	r4, [r7, #12]
 8001f06:	f014 0420 	ands.w	r4, r4, #32
 8001f0a:	d0f4      	beq.n	8001ef6 <HAL_RTC_SetTime+0x86>
 8001f0c:	2300      	movs	r3, #0
 8001f0e:	21ff      	movs	r1, #255	; 0xff
 8001f10:	2201      	movs	r2, #1
 8001f12:	6279      	str	r1, [r7, #36]	; 0x24
 8001f14:	7772      	strb	r2, [r6, #29]
 8001f16:	7733      	strb	r3, [r6, #28]
 8001f18:	4618      	mov	r0, r3
 8001f1a:	e8bd 83f8 	ldmia.w	sp!, {r3, r4, r5, r6, r7, r8, r9, pc}
 8001f1e:	68bc      	ldr	r4, [r7, #8]
 8001f20:	782b      	ldrb	r3, [r5, #0]
 8001f22:	f014 0c40 	ands.w	ip, r4, #64	; 0x40
 8001f26:	bf16      	itet	ne
 8001f28:	78ec      	ldrbne	r4, [r5, #3]
 8001f2a:	f885 c003 	strbeq.w	ip, [r5, #3]
 8001f2e:	ea4f 4c04 	movne.w	ip, r4, lsl #16
 8001f32:	2b09      	cmp	r3, #9
 8001f34:	d909      	bls.n	8001f4a <HAL_RTC_SetTime+0xda>
 8001f36:	2100      	movs	r1, #0
 8001f38:	3b0a      	subs	r3, #10
 8001f3a:	b2db      	uxtb	r3, r3
 8001f3c:	2b09      	cmp	r3, #9
 8001f3e:	f101 0101 	add.w	r1, r1, #1
 8001f42:	d8f9      	bhi.n	8001f38 <HAL_RTC_SetTime+0xc8>
 8001f44:	ea43 1301 	orr.w	r3, r3, r1, lsl #4
 8001f48:	b2db      	uxtb	r3, r3
 8001f4a:	7869      	ldrb	r1, [r5, #1]
 8001f4c:	2909      	cmp	r1, #9
 8001f4e:	ea4f 4303 	mov.w	r3, r3, lsl #16
 8001f52:	d909      	bls.n	8001f68 <HAL_RTC_SetTime+0xf8>
 8001f54:	2400      	movs	r4, #0
 8001f56:	390a      	subs	r1, #10
 8001f58:	b2c9      	uxtb	r1, r1
 8001f5a:	2909      	cmp	r1, #9
 8001f5c:	f104 0401 	add.w	r4, r4, #1
 8001f60:	d8f9      	bhi.n	8001f56 <HAL_RTC_SetTime+0xe6>
 8001f62:	ea41 1104 	orr.w	r1, r1, r4, lsl #4
 8001f66:	b2c9      	uxtb	r1, r1
 8001f68:	78a8      	ldrb	r0, [r5, #2]
 8001f6a:	2809      	cmp	r0, #9
 8001f6c:	ea4f 2101 	mov.w	r1, r1, lsl #8
 8001f70:	d909      	bls.n	8001f86 <HAL_RTC_SetTime+0x116>
 8001f72:	f1a0 040a 	sub.w	r4, r0, #10
 8001f76:	b2e0      	uxtb	r0, r4
 8001f78:	2809      	cmp	r0, #9
 8001f7a:	f102 0201 	add.w	r2, r2, #1
 8001f7e:	d8f8      	bhi.n	8001f72 <HAL_RTC_SetTime+0x102>
 8001f80:	ea40 1402 	orr.w	r4, r0, r2, lsl #4
 8001f84:	b2e0      	uxtb	r0, r4
 8001f86:	ea43 040c 	orr.w	r4, r3, ip
 8001f8a:	430c      	orrs	r4, r1
 8001f8c:	4304      	orrs	r4, r0
 8001f8e:	e78d      	b.n	8001eac <HAL_RTC_SetTime+0x3c>
 8001f90:	f04f 33ff 	mov.w	r3, #4294967295
 8001f94:	60fb      	str	r3, [r7, #12]
 8001f96:	f7fe fc03 	bl	80007a0 <HAL_GetTick>
 8001f9a:	4680      	mov	r8, r0
 8001f9c:	6837      	ldr	r7, [r6, #0]
 8001f9e:	68fb      	ldr	r3, [r7, #12]
 8001fa0:	f013 0940 	ands.w	r9, r3, #64	; 0x40
 8001fa4:	d189      	bne.n	8001eba <HAL_RTC_SetTime+0x4a>
 8001fa6:	f7fe fbfb 	bl	80007a0 <HAL_GetTick>
 8001faa:	eba0 0008 	sub.w	r0, r0, r8
 8001fae:	f5b0 7f7a 	cmp.w	r0, #1000	; 0x3e8
 8001fb2:	d9f3      	bls.n	8001f9c <HAL_RTC_SetTime+0x12c>
 8001fb4:	6832      	ldr	r2, [r6, #0]
 8001fb6:	21ff      	movs	r1, #255	; 0xff
 8001fb8:	2304      	movs	r3, #4
 8001fba:	6251      	str	r1, [r2, #36]	; 0x24
 8001fbc:	f886 901c 	strb.w	r9, [r6, #28]
 8001fc0:	7773      	strb	r3, [r6, #29]
 8001fc2:	2001      	movs	r0, #1
 8001fc4:	e8bd 83f8 	ldmia.w	sp!, {r3, r4, r5, r6, r7, r8, r9, pc}
 8001fc8:	6832      	ldr	r2, [r6, #0]
 8001fca:	21ff      	movs	r1, #255	; 0xff
 8001fcc:	2304      	movs	r3, #4
 8001fce:	6251      	str	r1, [r2, #36]	; 0x24
 8001fd0:	7734      	strb	r4, [r6, #28]
 8001fd2:	7773      	strb	r3, [r6, #29]
 8001fd4:	2001      	movs	r0, #1
 8001fd6:	e8bd 83f8 	ldmia.w	sp!, {r3, r4, r5, r6, r7, r8, r9, pc}
 8001fda:	2002      	movs	r0, #2
 8001fdc:	e8bd 83f8 	ldmia.w	sp!, {r3, r4, r5, r6, r7, r8, r9, pc}

08001fe0 <HAL_RTC_GetTime>:
 8001fe0:	6803      	ldr	r3, [r0, #0]
 8001fe2:	b470      	push	{r4, r5, r6}
 8001fe4:	6a9c      	ldr	r4, [r3, #40]	; 0x28
 8001fe6:	6918      	ldr	r0, [r3, #16]
 8001fe8:	681b      	ldr	r3, [r3, #0]
 8001fea:	604c      	str	r4, [r1, #4]
 8001fec:	f3c3 4506 	ubfx	r5, r3, #16, #7
 8001ff0:	f3c0 000e 	ubfx	r0, r0, #0, #15
 8001ff4:	f3c3 4405 	ubfx	r4, r3, #16, #6
 8001ff8:	f005 0640 	and.w	r6, r5, #64	; 0x40
 8001ffc:	6088      	str	r0, [r1, #8]
 8001ffe:	f3c3 2006 	ubfx	r0, r3, #8, #7
 8002002:	f003 037f 	and.w	r3, r3, #127	; 0x7f
 8002006:	70ce      	strb	r6, [r1, #3]
 8002008:	700c      	strb	r4, [r1, #0]
 800200a:	7048      	strb	r0, [r1, #1]
 800200c:	708b      	strb	r3, [r1, #2]
 800200e:	b9ba      	cbnz	r2, 8002040 <HAL_RTC_GetTime+0x60>
 8002010:	0902      	lsrs	r2, r0, #4
 8002012:	eb02 0682 	add.w	r6, r2, r2, lsl #2
 8002016:	0924      	lsrs	r4, r4, #4
 8002018:	091a      	lsrs	r2, r3, #4
 800201a:	eb04 0484 	add.w	r4, r4, r4, lsl #2
 800201e:	f005 050f 	and.w	r5, r5, #15
 8002022:	f000 000f 	and.w	r0, r0, #15
 8002026:	eb02 0282 	add.w	r2, r2, r2, lsl #2
 800202a:	f003 030f 	and.w	r3, r3, #15
 800202e:	eb05 0444 	add.w	r4, r5, r4, lsl #1
 8002032:	eb00 0046 	add.w	r0, r0, r6, lsl #1
 8002036:	eb03 0342 	add.w	r3, r3, r2, lsl #1
 800203a:	700c      	strb	r4, [r1, #0]
 800203c:	7048      	strb	r0, [r1, #1]
 800203e:	708b      	strb	r3, [r1, #2]
 8002040:	2000      	movs	r0, #0
 8002042:	bc70      	pop	{r4, r5, r6}
 8002044:	4770      	bx	lr
 8002046:	bf00      	nop

08002048 <HAL_RTC_SetDate>:
 8002048:	b5f8      	push	{r3, r4, r5, r6, r7, lr}
 800204a:	7f03      	ldrb	r3, [r0, #28]
 800204c:	2b01      	cmp	r3, #1
 800204e:	f000 809e 	beq.w	800218e <HAL_RTC_SetDate+0x146>
 8002052:	4605      	mov	r5, r0
 8002054:	2302      	movs	r3, #2
 8002056:	2001      	movs	r0, #1
 8002058:	7728      	strb	r0, [r5, #28]
 800205a:	776b      	strb	r3, [r5, #29]
 800205c:	2a00      	cmp	r2, #0
 800205e:	d038      	beq.n	80020d2 <HAL_RTC_SetDate+0x8a>
 8002060:	784c      	ldrb	r4, [r1, #1]
 8002062:	78c8      	ldrb	r0, [r1, #3]
 8002064:	788a      	ldrb	r2, [r1, #2]
 8002066:	780b      	ldrb	r3, [r1, #0]
 8002068:	0224      	lsls	r4, r4, #8
 800206a:	ea44 4400 	orr.w	r4, r4, r0, lsl #16
 800206e:	4314      	orrs	r4, r2
 8002070:	ea44 3443 	orr.w	r4, r4, r3, lsl #13
 8002074:	682a      	ldr	r2, [r5, #0]
 8002076:	21ca      	movs	r1, #202	; 0xca
 8002078:	2353      	movs	r3, #83	; 0x53
 800207a:	6251      	str	r1, [r2, #36]	; 0x24
 800207c:	6253      	str	r3, [r2, #36]	; 0x24
 800207e:	68d3      	ldr	r3, [r2, #12]
 8002080:	0659      	lsls	r1, r3, #25
 8002082:	d55f      	bpl.n	8002144 <HAL_RTC_SetDate+0xfc>
 8002084:	f024 447f 	bic.w	r4, r4, #4278190080	; 0xff000000
 8002088:	f024 04c0 	bic.w	r4, r4, #192	; 0xc0
 800208c:	6054      	str	r4, [r2, #4]
 800208e:	68d3      	ldr	r3, [r2, #12]
 8002090:	f023 0380 	bic.w	r3, r3, #128	; 0x80
 8002094:	60d3      	str	r3, [r2, #12]
 8002096:	6893      	ldr	r3, [r2, #8]
 8002098:	069b      	lsls	r3, r3, #26
 800209a:	d412      	bmi.n	80020c2 <HAL_RTC_SetDate+0x7a>
 800209c:	68d3      	ldr	r3, [r2, #12]
 800209e:	f023 03a0 	bic.w	r3, r3, #160	; 0xa0
 80020a2:	60d3      	str	r3, [r2, #12]
 80020a4:	f7fe fb7c 	bl	80007a0 <HAL_GetTick>
 80020a8:	4606      	mov	r6, r0
 80020aa:	e005      	b.n	80020b8 <HAL_RTC_SetDate+0x70>
 80020ac:	f7fe fb78 	bl	80007a0 <HAL_GetTick>
 80020b0:	1b80      	subs	r0, r0, r6
 80020b2:	f5b0 7f7a 	cmp.w	r0, #1000	; 0x3e8
 80020b6:	d862      	bhi.n	800217e <HAL_RTC_SetDate+0x136>
 80020b8:	682a      	ldr	r2, [r5, #0]
 80020ba:	68d4      	ldr	r4, [r2, #12]
 80020bc:	f014 0420 	ands.w	r4, r4, #32
 80020c0:	d0f4      	beq.n	80020ac <HAL_RTC_SetDate+0x64>
 80020c2:	2300      	movs	r3, #0
 80020c4:	20ff      	movs	r0, #255	; 0xff
 80020c6:	2101      	movs	r1, #1
 80020c8:	6250      	str	r0, [r2, #36]	; 0x24
 80020ca:	7769      	strb	r1, [r5, #29]
 80020cc:	772b      	strb	r3, [r5, #28]
 80020ce:	4618      	mov	r0, r3
 80020d0:	bdf8      	pop	{r3, r4, r5, r6, r7, pc}
 80020d2:	784b      	ldrb	r3, [r1, #1]
 80020d4:	06d8      	lsls	r0, r3, #27
 80020d6:	d54e      	bpl.n	8002176 <HAL_RTC_SetDate+0x12e>
 80020d8:	78cc      	ldrb	r4, [r1, #3]
 80020da:	f023 0310 	bic.w	r3, r3, #16
 80020de:	330a      	adds	r3, #10
 80020e0:	b2db      	uxtb	r3, r3
 80020e2:	2c09      	cmp	r4, #9
 80020e4:	704b      	strb	r3, [r1, #1]
 80020e6:	d954      	bls.n	8002192 <HAL_RTC_SetDate+0x14a>
 80020e8:	2000      	movs	r0, #0
 80020ea:	3c0a      	subs	r4, #10
 80020ec:	b2e4      	uxtb	r4, r4
 80020ee:	2c09      	cmp	r4, #9
 80020f0:	f100 0001 	add.w	r0, r0, #1
 80020f4:	d8f9      	bhi.n	80020ea <HAL_RTC_SetDate+0xa2>
 80020f6:	ea44 1400 	orr.w	r4, r4, r0, lsl #4
 80020fa:	b2e4      	uxtb	r4, r4
 80020fc:	2b09      	cmp	r3, #9
 80020fe:	ea4f 4004 	mov.w	r0, r4, lsl #16
 8002102:	d909      	bls.n	8002118 <HAL_RTC_SetDate+0xd0>
 8002104:	2400      	movs	r4, #0
 8002106:	3b0a      	subs	r3, #10
 8002108:	b2db      	uxtb	r3, r3
 800210a:	2b09      	cmp	r3, #9
 800210c:	f104 0401 	add.w	r4, r4, #1
 8002110:	d8f9      	bhi.n	8002106 <HAL_RTC_SetDate+0xbe>
 8002112:	ea43 1304 	orr.w	r3, r3, r4, lsl #4
 8002116:	b2db      	uxtb	r3, r3
 8002118:	788e      	ldrb	r6, [r1, #2]
 800211a:	2e09      	cmp	r6, #9
 800211c:	ea4f 2303 	mov.w	r3, r3, lsl #8
 8002120:	d909      	bls.n	8002136 <HAL_RTC_SetDate+0xee>
 8002122:	f1a6 040a 	sub.w	r4, r6, #10
 8002126:	b2e6      	uxtb	r6, r4
 8002128:	2e09      	cmp	r6, #9
 800212a:	f102 0201 	add.w	r2, r2, #1
 800212e:	d8f8      	bhi.n	8002122 <HAL_RTC_SetDate+0xda>
 8002130:	ea46 1402 	orr.w	r4, r6, r2, lsl #4
 8002134:	b2e6      	uxtb	r6, r4
 8002136:	780c      	ldrb	r4, [r1, #0]
 8002138:	ea40 3444 	orr.w	r4, r0, r4, lsl #13
 800213c:	4323      	orrs	r3, r4
 800213e:	ea43 0406 	orr.w	r4, r3, r6
 8002142:	e797      	b.n	8002074 <HAL_RTC_SetDate+0x2c>
 8002144:	f04f 33ff 	mov.w	r3, #4294967295
 8002148:	60d3      	str	r3, [r2, #12]
 800214a:	f7fe fb29 	bl	80007a0 <HAL_GetTick>
 800214e:	4607      	mov	r7, r0
 8002150:	682a      	ldr	r2, [r5, #0]
 8002152:	68d6      	ldr	r6, [r2, #12]
 8002154:	f016 0640 	ands.w	r6, r6, #64	; 0x40
 8002158:	d194      	bne.n	8002084 <HAL_RTC_SetDate+0x3c>
 800215a:	f7fe fb21 	bl	80007a0 <HAL_GetTick>
 800215e:	1bc0      	subs	r0, r0, r7
 8002160:	f5b0 7f7a 	cmp.w	r0, #1000	; 0x3e8
 8002164:	d9f4      	bls.n	8002150 <HAL_RTC_SetDate+0x108>
 8002166:	682a      	ldr	r2, [r5, #0]
 8002168:	21ff      	movs	r1, #255	; 0xff
 800216a:	2304      	movs	r3, #4
 800216c:	6251      	str	r1, [r2, #36]	; 0x24
 800216e:	772e      	strb	r6, [r5, #28]
 8002170:	776b      	strb	r3, [r5, #29]
 8002172:	2001      	movs	r0, #1
 8002174:	bdf8      	pop	{r3, r4, r5, r6, r7, pc}
 8002176:	78cc      	ldrb	r4, [r1, #3]
 8002178:	2c09      	cmp	r4, #9
 800217a:	d8b5      	bhi.n	80020e8 <HAL_RTC_SetDate+0xa0>
 800217c:	e7be      	b.n	80020fc <HAL_RTC_SetDate+0xb4>
 800217e:	682a      	ldr	r2, [r5, #0]
 8002180:	21ff      	movs	r1, #255	; 0xff
 8002182:	2304      	movs	r3, #4
 8002184:	6251      	str	r1, [r2, #36]	; 0x24
 8002186:	772c      	strb	r4, [r5, #28]
 8002188:	776b      	strb	r3, [r5, #29]
 800218a:	2001      	movs	r0, #1
 800218c:	bdf8      	pop	{r3, r4, r5, r6, r7, pc}
 800218e:	2002      	movs	r0, #2
 8002190:	bdf8      	pop	{r3, r4, r5, r6, r7, pc}
 8002192:	0420      	lsls	r0, r4, #16
 8002194:	e7b6      	b.n	8002104 <HAL_RTC_SetDate+0xbc>
 8002196:	bf00      	nop

08002198 <HAL_RTC_GetDate>:
 8002198:	6803      	ldr	r3, [r0, #0]
 800219a:	685b      	ldr	r3, [r3, #4]
 800219c:	b470      	push	{r4, r5, r6}
 800219e:	f003 003f 	and.w	r0, r3, #63	; 0x3f
 80021a2:	f3c3 3642 	ubfx	r6, r3, #13, #3
 80021a6:	f3c3 4407 	ubfx	r4, r3, #16, #8
 80021aa:	f3c3 2504 	ubfx	r5, r3, #8, #5
 80021ae:	700e      	strb	r6, [r1, #0]
 80021b0:	70cc      	strb	r4, [r1, #3]
 80021b2:	704d      	strb	r5, [r1, #1]
 80021b4:	7088      	strb	r0, [r1, #2]
 80021b6:	f3c3 2307 	ubfx	r3, r3, #8, #8
 80021ba:	b9ba      	cbnz	r2, 80021ec <HAL_RTC_GetDate+0x54>
 80021bc:	092d      	lsrs	r5, r5, #4
 80021be:	00aa      	lsls	r2, r5, #2
 80021c0:	0926      	lsrs	r6, r4, #4
 80021c2:	4415      	add	r5, r2
 80021c4:	0902      	lsrs	r2, r0, #4
 80021c6:	f003 030f 	and.w	r3, r3, #15
 80021ca:	eb06 0686 	add.w	r6, r6, r6, lsl #2
 80021ce:	f004 040f 	and.w	r4, r4, #15
 80021d2:	eb02 0282 	add.w	r2, r2, r2, lsl #2
 80021d6:	f000 000f 	and.w	r0, r0, #15
 80021da:	eb03 0345 	add.w	r3, r3, r5, lsl #1
 80021de:	eb04 0446 	add.w	r4, r4, r6, lsl #1
 80021e2:	eb00 0042 	add.w	r0, r0, r2, lsl #1
 80021e6:	704b      	strb	r3, [r1, #1]
 80021e8:	70cc      	strb	r4, [r1, #3]
 80021ea:	7088      	strb	r0, [r1, #2]
 80021ec:	2000      	movs	r0, #0
 80021ee:	bc70      	pop	{r4, r5, r6}
 80021f0:	4770      	bx	lr
 80021f2:	bf00      	nop

080021f4 <HAL_RTC_SetAlarm_IT>:
 80021f4:	7f03      	ldrb	r3, [r0, #28]
 80021f6:	2b01      	cmp	r3, #1
 80021f8:	f000 80e7 	beq.w	80023ca <HAL_RTC_SetAlarm_IT+0x1d6>
 80021fc:	e92d 41f0 	stmdb	sp!, {r4, r5, r6, r7, r8, lr}
 8002200:	4605      	mov	r5, r0
 8002202:	2302      	movs	r3, #2
 8002204:	2001      	movs	r0, #1
 8002206:	682e      	ldr	r6, [r5, #0]
 8002208:	7728      	strb	r0, [r5, #28]
 800220a:	776b      	strb	r3, [r5, #29]
 800220c:	2a00      	cmp	r2, #0
 800220e:	d056      	beq.n	80022be <HAL_RTC_SetAlarm_IT+0xca>
 8002210:	68b2      	ldr	r2, [r6, #8]
 8002212:	6a0b      	ldr	r3, [r1, #32]
 8002214:	7888      	ldrb	r0, [r1, #2]
 8002216:	f012 0240 	ands.w	r2, r2, #64	; 0x40
 800221a:	bf16      	itet	ne
 800221c:	78cc      	ldrbne	r4, [r1, #3]
 800221e:	70ca      	strbeq	r2, [r1, #3]
 8002220:	0422      	lslne	r2, r4, #16
 8002222:	698c      	ldr	r4, [r1, #24]
 8002224:	431c      	orrs	r4, r3
 8002226:	780b      	ldrb	r3, [r1, #0]
 8002228:	4304      	orrs	r4, r0
 800222a:	7848      	ldrb	r0, [r1, #1]
 800222c:	ea44 4403 	orr.w	r4, r4, r3, lsl #16
 8002230:	f891 3024 	ldrb.w	r3, [r1, #36]	; 0x24
 8002234:	ea44 2400 	orr.w	r4, r4, r0, lsl #8
 8002238:	ea44 6403 	orr.w	r4, r4, r3, lsl #24
 800223c:	4314      	orrs	r4, r2
 800223e:	69ca      	ldr	r2, [r1, #28]
 8002240:	684f      	ldr	r7, [r1, #4]
 8002242:	6a8b      	ldr	r3, [r1, #40]	; 0x28
 8002244:	4317      	orrs	r7, r2
 8002246:	21ca      	movs	r1, #202	; 0xca
 8002248:	2253      	movs	r2, #83	; 0x53
 800224a:	6271      	str	r1, [r6, #36]	; 0x24
 800224c:	f5b3 7f80 	cmp.w	r3, #256	; 0x100
 8002250:	6272      	str	r2, [r6, #36]	; 0x24
 8002252:	68b3      	ldr	r3, [r6, #8]
 8002254:	f000 8097 	beq.w	8002386 <HAL_RTC_SetAlarm_IT+0x192>
 8002258:	f423 7300 	bic.w	r3, r3, #512	; 0x200
 800225c:	60b3      	str	r3, [r6, #8]
 800225e:	68f3      	ldr	r3, [r6, #12]
 8002260:	b2db      	uxtb	r3, r3
 8002262:	f463 7320 	orn	r3, r3, #640	; 0x280
 8002266:	60f3      	str	r3, [r6, #12]
 8002268:	f7fe fa9a 	bl	80007a0 <HAL_GetTick>
 800226c:	4606      	mov	r6, r0
 800226e:	e005      	b.n	800227c <HAL_RTC_SetAlarm_IT+0x88>
 8002270:	f7fe fa96 	bl	80007a0 <HAL_GetTick>
 8002274:	1b83      	subs	r3, r0, r6
 8002276:	f5b3 7f7a 	cmp.w	r3, #1000	; 0x3e8
 800227a:	d87a      	bhi.n	8002372 <HAL_RTC_SetAlarm_IT+0x17e>
 800227c:	682b      	ldr	r3, [r5, #0]
 800227e:	68da      	ldr	r2, [r3, #12]
 8002280:	f012 0802 	ands.w	r8, r2, #2
 8002284:	d0f4      	beq.n	8002270 <HAL_RTC_SetAlarm_IT+0x7c>
 8002286:	621c      	str	r4, [r3, #32]
 8002288:	649f      	str	r7, [r3, #72]	; 0x48
 800228a:	689a      	ldr	r2, [r3, #8]
 800228c:	f442 7200 	orr.w	r2, r2, #512	; 0x200
 8002290:	609a      	str	r2, [r3, #8]
 8002292:	689a      	ldr	r2, [r3, #8]
 8002294:	f442 5200 	orr.w	r2, r2, #8192	; 0x2000
 8002298:	609a      	str	r2, [r3, #8]
 800229a:	4a4d      	ldr	r2, [pc, #308]	; (80023d0 <HAL_RTC_SetAlarm_IT+0x1dc>)
 800229c:	6811      	ldr	r1, [r2, #0]
 800229e:	f441 3100 	orr.w	r1, r1, #131072	; 0x20000
 80022a2:	6011      	str	r1, [r2, #0]
 80022a4:	6891      	ldr	r1, [r2, #8]
 80022a6:	f441 3100 	orr.w	r1, r1, #131072	; 0x20000
 80022aa:	6091      	str	r1, [r2, #8]
 80022ac:	20ff      	movs	r0, #255	; 0xff
 80022ae:	2200      	movs	r2, #0
 80022b0:	2401      	movs	r4, #1
 80022b2:	6258      	str	r0, [r3, #36]	; 0x24
 80022b4:	776c      	strb	r4, [r5, #29]
 80022b6:	772a      	strb	r2, [r5, #28]
 80022b8:	4610      	mov	r0, r2
 80022ba:	e8bd 81f0 	ldmia.w	sp!, {r4, r5, r6, r7, r8, pc}
 80022be:	68b0      	ldr	r0, [r6, #8]
 80022c0:	780c      	ldrb	r4, [r1, #0]
 80022c2:	6a0f      	ldr	r7, [r1, #32]
 80022c4:	f010 0c40 	ands.w	ip, r0, #64	; 0x40
 80022c8:	bf16      	itet	ne
 80022ca:	f891 c003 	ldrbne.w	ip, [r1, #3]
 80022ce:	f881 c003 	strbeq.w	ip, [r1, #3]
 80022d2:	ea4f 4c0c 	movne.w	ip, ip, lsl #16
 80022d6:	2c09      	cmp	r4, #9
 80022d8:	d909      	bls.n	80022ee <HAL_RTC_SetAlarm_IT+0xfa>
 80022da:	2300      	movs	r3, #0
 80022dc:	3c0a      	subs	r4, #10
 80022de:	b2e4      	uxtb	r4, r4
 80022e0:	2c09      	cmp	r4, #9
 80022e2:	f103 0301 	add.w	r3, r3, #1
 80022e6:	d8f9      	bhi.n	80022dc <HAL_RTC_SetAlarm_IT+0xe8>
 80022e8:	ea44 1403 	orr.w	r4, r4, r3, lsl #4
 80022ec:	b2e4      	uxtb	r4, r4
 80022ee:	784b      	ldrb	r3, [r1, #1]
 80022f0:	2b09      	cmp	r3, #9
 80022f2:	ea4f 4004 	mov.w	r0, r4, lsl #16
 80022f6:	d909      	bls.n	800230c <HAL_RTC_SetAlarm_IT+0x118>
 80022f8:	2400      	movs	r4, #0
 80022fa:	3b0a      	subs	r3, #10
 80022fc:	b2db      	uxtb	r3, r3
 80022fe:	2b09      	cmp	r3, #9
 8002300:	f104 0401 	add.w	r4, r4, #1
 8002304:	d8f9      	bhi.n	80022fa <HAL_RTC_SetAlarm_IT+0x106>
 8002306:	ea43 1304 	orr.w	r3, r3, r4, lsl #4
 800230a:	b2db      	uxtb	r3, r3
 800230c:	f891 8002 	ldrb.w	r8, [r1, #2]
 8002310:	f1b8 0f09 	cmp.w	r8, #9
 8002314:	ea4f 2303 	mov.w	r3, r3, lsl #8
 8002318:	d90e      	bls.n	8002338 <HAL_RTC_SetAlarm_IT+0x144>
 800231a:	f04f 0e00 	mov.w	lr, #0
 800231e:	f1a8 080a 	sub.w	r8, r8, #10
 8002322:	fa5f f888 	uxtb.w	r8, r8
 8002326:	f1b8 0f09 	cmp.w	r8, #9
 800232a:	f10e 0e01 	add.w	lr, lr, #1
 800232e:	d8f6      	bhi.n	800231e <HAL_RTC_SetAlarm_IT+0x12a>
 8002330:	ea48 180e 	orr.w	r8, r8, lr, lsl #4
 8002334:	fa5f f888 	uxtb.w	r8, r8
 8002338:	f891 e024 	ldrb.w	lr, [r1, #36]	; 0x24
 800233c:	f1be 0f09 	cmp.w	lr, #9
 8002340:	d90c      	bls.n	800235c <HAL_RTC_SetAlarm_IT+0x168>
 8002342:	f1ae 040a 	sub.w	r4, lr, #10
 8002346:	fa5f fe84 	uxtb.w	lr, r4
 800234a:	f1be 0f09 	cmp.w	lr, #9
 800234e:	f102 0201 	add.w	r2, r2, #1
 8002352:	d8f6      	bhi.n	8002342 <HAL_RTC_SetAlarm_IT+0x14e>
 8002354:	ea4e 1402 	orr.w	r4, lr, r2, lsl #4
 8002358:	fa5f fe84 	uxtb.w	lr, r4
 800235c:	698c      	ldr	r4, [r1, #24]
 800235e:	433c      	orrs	r4, r7
 8002360:	ea44 040c 	orr.w	r4, r4, ip
 8002364:	4304      	orrs	r4, r0
 8002366:	4323      	orrs	r3, r4
 8002368:	ea43 0408 	orr.w	r4, r3, r8
 800236c:	ea44 640e 	orr.w	r4, r4, lr, lsl #24
 8002370:	e765      	b.n	800223e <HAL_RTC_SetAlarm_IT+0x4a>
 8002372:	682a      	ldr	r2, [r5, #0]
 8002374:	2303      	movs	r3, #3
 8002376:	21ff      	movs	r1, #255	; 0xff
 8002378:	6251      	str	r1, [r2, #36]	; 0x24
 800237a:	f885 801c 	strb.w	r8, [r5, #28]
 800237e:	776b      	strb	r3, [r5, #29]
 8002380:	4618      	mov	r0, r3
 8002382:	e8bd 81f0 	ldmia.w	sp!, {r4, r5, r6, r7, r8, pc}
 8002386:	f423 7380 	bic.w	r3, r3, #256	; 0x100
 800238a:	60b3      	str	r3, [r6, #8]
 800238c:	68f3      	ldr	r3, [r6, #12]
 800238e:	b2db      	uxtb	r3, r3
 8002390:	f463 73c0 	orn	r3, r3, #384	; 0x180
 8002394:	60f3      	str	r3, [r6, #12]
 8002396:	f7fe fa03 	bl	80007a0 <HAL_GetTick>
 800239a:	4606      	mov	r6, r0
 800239c:	e005      	b.n	80023aa <HAL_RTC_SetAlarm_IT+0x1b6>
 800239e:	f7fe f9ff 	bl	80007a0 <HAL_GetTick>
 80023a2:	1b80      	subs	r0, r0, r6
 80023a4:	f5b0 7f7a 	cmp.w	r0, #1000	; 0x3e8
 80023a8:	d8e3      	bhi.n	8002372 <HAL_RTC_SetAlarm_IT+0x17e>
 80023aa:	682b      	ldr	r3, [r5, #0]
 80023ac:	68da      	ldr	r2, [r3, #12]
 80023ae:	f012 0801 	ands.w	r8, r2, #1
 80023b2:	d0f4      	beq.n	800239e <HAL_RTC_SetAlarm_IT+0x1aa>
 80023b4:	61dc      	str	r4, [r3, #28]
 80023b6:	645f      	str	r7, [r3, #68]	; 0x44
 80023b8:	689a      	ldr	r2, [r3, #8]
 80023ba:	f442 7280 	orr.w	r2, r2, #256	; 0x100
 80023be:	609a      	str	r2, [r3, #8]
 80023c0:	689a      	ldr	r2, [r3, #8]
 80023c2:	f442 5280 	orr.w	r2, r2, #4096	; 0x1000
 80023c6:	609a      	str	r2, [r3, #8]
 80023c8:	e767      	b.n	800229a <HAL_RTC_SetAlarm_IT+0xa6>
 80023ca:	2002      	movs	r0, #2
 80023cc:	4770      	bx	lr
 80023ce:	bf00      	nop
 80023d0:	40010400 	.word	0x40010400

080023d4 <HAL_RTC_AlarmIRQHandler>:
 80023d4:	6803      	ldr	r3, [r0, #0]
 80023d6:	689a      	ldr	r2, [r3, #8]
 80023d8:	04d2      	lsls	r2, r2, #19
 80023da:	b510      	push	{r4, lr}
 80023dc:	4604      	mov	r4, r0
 80023de:	d502      	bpl.n	80023e6 <HAL_RTC_AlarmIRQHandler+0x12>
 80023e0:	68da      	ldr	r2, [r3, #12]
 80023e2:	05d1      	lsls	r1, r2, #23
 80023e4:	d416      	bmi.n	8002414 <HAL_RTC_AlarmIRQHandler+0x40>
 80023e6:	689a      	ldr	r2, [r3, #8]
 80023e8:	0492      	lsls	r2, r2, #18
 80023ea:	d502      	bpl.n	80023f2 <HAL_RTC_AlarmIRQHandler+0x1e>
 80023ec:	68db      	ldr	r3, [r3, #12]
 80023ee:	059b      	lsls	r3, r3, #22
 80023f0:	d406      	bmi.n	8002400 <HAL_RTC_AlarmIRQHandler+0x2c>
 80023f2:	4a0d      	ldr	r2, [pc, #52]	; (8002428 <HAL_RTC_AlarmIRQHandler+0x54>)
 80023f4:	f44f 3100 	mov.w	r1, #131072	; 0x20000
 80023f8:	2301      	movs	r3, #1
 80023fa:	6151      	str	r1, [r2, #20]
 80023fc:	7763      	strb	r3, [r4, #29]
 80023fe:	bd10      	pop	{r4, pc}
 8002400:	4620      	mov	r0, r4
 8002402:	f000 f813 	bl	800242c <HAL_RTCEx_AlarmBEventCallback>
 8002406:	6822      	ldr	r2, [r4, #0]
 8002408:	68d3      	ldr	r3, [r2, #12]
 800240a:	b2db      	uxtb	r3, r3
 800240c:	f463 7320 	orn	r3, r3, #640	; 0x280
 8002410:	60d3      	str	r3, [r2, #12]
 8002412:	e7ee      	b.n	80023f2 <HAL_RTC_AlarmIRQHandler+0x1e>
 8002414:	f001 f988 	bl	8003728 <HAL_RTC_AlarmAEventCallback>
 8002418:	6823      	ldr	r3, [r4, #0]
 800241a:	68da      	ldr	r2, [r3, #12]
 800241c:	b2d2      	uxtb	r2, r2
 800241e:	f462 72c0 	orn	r2, r2, #384	; 0x180
 8002422:	60da      	str	r2, [r3, #12]
 8002424:	e7df      	b.n	80023e6 <HAL_RTC_AlarmIRQHandler+0x12>
 8002426:	bf00      	nop
 8002428:	40010400 	.word	0x40010400

0800242c <HAL_RTCEx_AlarmBEventCallback>:
 800242c:	4770      	bx	lr
 800242e:	bf00      	nop

08002430 <TIM_OC1_SetConfig>:
 8002430:	6a03      	ldr	r3, [r0, #32]
 8002432:	f023 0301 	bic.w	r3, r3, #1
 8002436:	6203      	str	r3, [r0, #32]
 8002438:	b4f0      	push	{r4, r5, r6, r7}
 800243a:	6a03      	ldr	r3, [r0, #32]
 800243c:	6846      	ldr	r6, [r0, #4]
 800243e:	6982      	ldr	r2, [r0, #24]
 8002440:	4f18      	ldr	r7, [pc, #96]	; (80024a4 <TIM_OC1_SetConfig+0x74>)
 8002442:	688d      	ldr	r5, [r1, #8]
 8002444:	680c      	ldr	r4, [r1, #0]
 8002446:	f422 3280 	bic.w	r2, r2, #65536	; 0x10000
 800244a:	f023 0302 	bic.w	r3, r3, #2
 800244e:	f022 0273 	bic.w	r2, r2, #115	; 0x73
 8002452:	42b8      	cmp	r0, r7
 8002454:	ea43 0305 	orr.w	r3, r3, r5
 8002458:	ea42 0204 	orr.w	r2, r2, r4
 800245c:	d00e      	beq.n	800247c <TIM_OC1_SetConfig+0x4c>
 800245e:	4c12      	ldr	r4, [pc, #72]	; (80024a8 <TIM_OC1_SetConfig+0x78>)
 8002460:	42a0      	cmp	r0, r4
 8002462:	d00b      	beq.n	800247c <TIM_OC1_SetConfig+0x4c>
 8002464:	f504 6440 	add.w	r4, r4, #3072	; 0xc00
 8002468:	42a0      	cmp	r0, r4
 800246a:	d007      	beq.n	800247c <TIM_OC1_SetConfig+0x4c>
 800246c:	f504 6480 	add.w	r4, r4, #1024	; 0x400
 8002470:	42a0      	cmp	r0, r4
 8002472:	d003      	beq.n	800247c <TIM_OC1_SetConfig+0x4c>
 8002474:	f504 6480 	add.w	r4, r4, #1024	; 0x400
 8002478:	42a0      	cmp	r0, r4
 800247a:	d10b      	bne.n	8002494 <TIM_OC1_SetConfig+0x64>
 800247c:	68cc      	ldr	r4, [r1, #12]
 800247e:	f023 0308 	bic.w	r3, r3, #8
 8002482:	4323      	orrs	r3, r4
 8002484:	e9d1 4505 	ldrd	r4, r5, [r1, #20]
 8002488:	f426 7640 	bic.w	r6, r6, #768	; 0x300
 800248c:	432c      	orrs	r4, r5
 800248e:	f023 0304 	bic.w	r3, r3, #4
 8002492:	4326      	orrs	r6, r4
 8002494:	6849      	ldr	r1, [r1, #4]
 8002496:	6046      	str	r6, [r0, #4]
 8002498:	6182      	str	r2, [r0, #24]
 800249a:	bcf0      	pop	{r4, r5, r6, r7}
 800249c:	6341      	str	r1, [r0, #52]	; 0x34
 800249e:	6203      	str	r3, [r0, #32]
 80024a0:	4770      	bx	lr
 80024a2:	bf00      	nop
 80024a4:	40012c00 	.word	0x40012c00
 80024a8:	40013400 	.word	0x40013400

080024ac <TIM_OC3_SetConfig>:
 80024ac:	6a03      	ldr	r3, [r0, #32]
 80024ae:	f423 7380 	bic.w	r3, r3, #256	; 0x100
 80024b2:	6203      	str	r3, [r0, #32]
 80024b4:	b4f0      	push	{r4, r5, r6, r7}
 80024b6:	6a03      	ldr	r3, [r0, #32]
 80024b8:	6846      	ldr	r6, [r0, #4]
 80024ba:	69c2      	ldr	r2, [r0, #28]
 80024bc:	4f19      	ldr	r7, [pc, #100]	; (8002524 <TIM_OC3_SetConfig+0x78>)
 80024be:	688d      	ldr	r5, [r1, #8]
 80024c0:	680c      	ldr	r4, [r1, #0]
 80024c2:	f422 3280 	bic.w	r2, r2, #65536	; 0x10000
 80024c6:	f423 7300 	bic.w	r3, r3, #512	; 0x200
 80024ca:	f022 0273 	bic.w	r2, r2, #115	; 0x73
 80024ce:	42b8      	cmp	r0, r7
 80024d0:	ea43 2305 	orr.w	r3, r3, r5, lsl #8
 80024d4:	ea42 0204 	orr.w	r2, r2, r4
 80024d8:	d00f      	beq.n	80024fa <TIM_OC3_SetConfig+0x4e>
 80024da:	4c13      	ldr	r4, [pc, #76]	; (8002528 <TIM_OC3_SetConfig+0x7c>)
 80024dc:	42a0      	cmp	r0, r4
 80024de:	d00c      	beq.n	80024fa <TIM_OC3_SetConfig+0x4e>
 80024e0:	f504 6440 	add.w	r4, r4, #3072	; 0xc00
 80024e4:	42a0      	cmp	r0, r4
 80024e6:	d00f      	beq.n	8002508 <TIM_OC3_SetConfig+0x5c>
 80024e8:	f504 6480 	add.w	r4, r4, #1024	; 0x400
 80024ec:	42a0      	cmp	r0, r4
 80024ee:	d00b      	beq.n	8002508 <TIM_OC3_SetConfig+0x5c>
 80024f0:	f504 6480 	add.w	r4, r4, #1024	; 0x400
 80024f4:	42a0      	cmp	r0, r4
 80024f6:	d10e      	bne.n	8002516 <TIM_OC3_SetConfig+0x6a>
 80024f8:	e006      	b.n	8002508 <TIM_OC3_SetConfig+0x5c>
 80024fa:	68cc      	ldr	r4, [r1, #12]
 80024fc:	f423 6300 	bic.w	r3, r3, #2048	; 0x800
 8002500:	ea43 2304 	orr.w	r3, r3, r4, lsl #8
 8002504:	f423 6380 	bic.w	r3, r3, #1024	; 0x400
 8002508:	e9d1 4505 	ldrd	r4, r5, [r1, #20]
 800250c:	f426 5640 	bic.w	r6, r6, #12288	; 0x3000
 8002510:	432c      	orrs	r4, r5
 8002512:	ea46 1604 	orr.w	r6, r6, r4, lsl #4
 8002516:	6849      	ldr	r1, [r1, #4]
 8002518:	6046      	str	r6, [r0, #4]
 800251a:	61c2      	str	r2, [r0, #28]
 800251c:	bcf0      	pop	{r4, r5, r6, r7}
 800251e:	63c1      	str	r1, [r0, #60]	; 0x3c
 8002520:	6203      	str	r3, [r0, #32]
 8002522:	4770      	bx	lr
 8002524:	40012c00 	.word	0x40012c00
 8002528:	40013400 	.word	0x40013400

0800252c <HAL_TIM_Base_Init>:
 800252c:	2800      	cmp	r0, #0
 800252e:	d067      	beq.n	8002600 <HAL_TIM_Base_Init+0xd4>
 8002530:	b538      	push	{r3, r4, r5, lr}
 8002532:	f890 303d 	ldrb.w	r3, [r0, #61]	; 0x3d
 8002536:	4604      	mov	r4, r0
 8002538:	f003 02ff 	and.w	r2, r3, #255	; 0xff
 800253c:	2b00      	cmp	r3, #0
 800253e:	d057      	beq.n	80025f0 <HAL_TIM_Base_Init+0xc4>
 8002540:	6821      	ldr	r1, [r4, #0]
 8002542:	4a30      	ldr	r2, [pc, #192]	; (8002604 <HAL_TIM_Base_Init+0xd8>)
 8002544:	2302      	movs	r3, #2
 8002546:	f884 303d 	strb.w	r3, [r4, #61]	; 0x3d
 800254a:	4291      	cmp	r1, r2
 800254c:	680b      	ldr	r3, [r1, #0]
 800254e:	d03b      	beq.n	80025c8 <HAL_TIM_Base_Init+0x9c>
 8002550:	f1b1 4f80 	cmp.w	r1, #1073741824	; 0x40000000
 8002554:	d021      	beq.n	800259a <HAL_TIM_Base_Init+0x6e>
 8002556:	f5a2 3294 	sub.w	r2, r2, #75776	; 0x12800
 800255a:	4291      	cmp	r1, r2
 800255c:	d01d      	beq.n	800259a <HAL_TIM_Base_Init+0x6e>
 800255e:	f502 6280 	add.w	r2, r2, #1024	; 0x400
 8002562:	4291      	cmp	r1, r2
 8002564:	d019      	beq.n	800259a <HAL_TIM_Base_Init+0x6e>
 8002566:	f502 3296 	add.w	r2, r2, #76800	; 0x12c00
 800256a:	4291      	cmp	r1, r2
 800256c:	d02c      	beq.n	80025c8 <HAL_TIM_Base_Init+0x9c>
 800256e:	f502 6240 	add.w	r2, r2, #3072	; 0xc00
 8002572:	4291      	cmp	r1, r2
 8002574:	d041      	beq.n	80025fa <HAL_TIM_Base_Init+0xce>
 8002576:	f502 6280 	add.w	r2, r2, #1024	; 0x400
 800257a:	4291      	cmp	r1, r2
 800257c:	d03d      	beq.n	80025fa <HAL_TIM_Base_Init+0xce>
 800257e:	f502 6280 	add.w	r2, r2, #1024	; 0x400
 8002582:	4291      	cmp	r1, r2
 8002584:	d039      	beq.n	80025fa <HAL_TIM_Base_Init+0xce>
 8002586:	69a5      	ldr	r5, [r4, #24]
 8002588:	68e0      	ldr	r0, [r4, #12]
 800258a:	6862      	ldr	r2, [r4, #4]
 800258c:	f023 0380 	bic.w	r3, r3, #128	; 0x80
 8002590:	432b      	orrs	r3, r5
 8002592:	600b      	str	r3, [r1, #0]
 8002594:	62c8      	str	r0, [r1, #44]	; 0x2c
 8002596:	628a      	str	r2, [r1, #40]	; 0x28
 8002598:	e010      	b.n	80025bc <HAL_TIM_Base_Init+0x90>
 800259a:	68a2      	ldr	r2, [r4, #8]
 800259c:	6925      	ldr	r5, [r4, #16]
 800259e:	68e0      	ldr	r0, [r4, #12]
 80025a0:	f023 0370 	bic.w	r3, r3, #112	; 0x70
 80025a4:	4313      	orrs	r3, r2
 80025a6:	f423 7340 	bic.w	r3, r3, #768	; 0x300
 80025aa:	69a2      	ldr	r2, [r4, #24]
 80025ac:	432b      	orrs	r3, r5
 80025ae:	f023 0380 	bic.w	r3, r3, #128	; 0x80
 80025b2:	4313      	orrs	r3, r2
 80025b4:	6862      	ldr	r2, [r4, #4]
 80025b6:	600b      	str	r3, [r1, #0]
 80025b8:	62c8      	str	r0, [r1, #44]	; 0x2c
 80025ba:	628a      	str	r2, [r1, #40]	; 0x28
 80025bc:	2301      	movs	r3, #1
 80025be:	614b      	str	r3, [r1, #20]
 80025c0:	f884 303d 	strb.w	r3, [r4, #61]	; 0x3d
 80025c4:	2000      	movs	r0, #0
 80025c6:	bd38      	pop	{r3, r4, r5, pc}
 80025c8:	68a5      	ldr	r5, [r4, #8]
 80025ca:	6920      	ldr	r0, [r4, #16]
 80025cc:	69a2      	ldr	r2, [r4, #24]
 80025ce:	f023 0370 	bic.w	r3, r3, #112	; 0x70
 80025d2:	432b      	orrs	r3, r5
 80025d4:	f423 7340 	bic.w	r3, r3, #768	; 0x300
 80025d8:	4303      	orrs	r3, r0
 80025da:	f023 0380 	bic.w	r3, r3, #128	; 0x80
 80025de:	4313      	orrs	r3, r2
 80025e0:	600b      	str	r3, [r1, #0]
 80025e2:	68e3      	ldr	r3, [r4, #12]
 80025e4:	62cb      	str	r3, [r1, #44]	; 0x2c
 80025e6:	6863      	ldr	r3, [r4, #4]
 80025e8:	628b      	str	r3, [r1, #40]	; 0x28
 80025ea:	6963      	ldr	r3, [r4, #20]
 80025ec:	630b      	str	r3, [r1, #48]	; 0x30
 80025ee:	e7e5      	b.n	80025bc <HAL_TIM_Base_Init+0x90>
 80025f0:	f880 203c 	strb.w	r2, [r0, #60]	; 0x3c
 80025f4:	f002 feac 	bl	8005350 <HAL_TIM_Base_MspInit>
 80025f8:	e7a2      	b.n	8002540 <HAL_TIM_Base_Init+0x14>
 80025fa:	6920      	ldr	r0, [r4, #16]
 80025fc:	69a2      	ldr	r2, [r4, #24]
 80025fe:	e7e9      	b.n	80025d4 <HAL_TIM_Base_Init+0xa8>
 8002600:	2001      	movs	r0, #1
 8002602:	4770      	bx	lr
 8002604:	40012c00 	.word	0x40012c00

08002608 <HAL_TIM_Base_Start_IT>:
 8002608:	6803      	ldr	r3, [r0, #0]
 800260a:	4a09      	ldr	r2, [pc, #36]	; (8002630 <HAL_TIM_Base_Start_IT+0x28>)
 800260c:	68d9      	ldr	r1, [r3, #12]
 800260e:	f041 0101 	orr.w	r1, r1, #1
 8002612:	60d9      	str	r1, [r3, #12]
 8002614:	6899      	ldr	r1, [r3, #8]
 8002616:	400a      	ands	r2, r1
 8002618:	2a06      	cmp	r2, #6
 800261a:	d006      	beq.n	800262a <HAL_TIM_Base_Start_IT+0x22>
 800261c:	f5b2 3f80 	cmp.w	r2, #65536	; 0x10000
 8002620:	d003      	beq.n	800262a <HAL_TIM_Base_Start_IT+0x22>
 8002622:	681a      	ldr	r2, [r3, #0]
 8002624:	f042 0201 	orr.w	r2, r2, #1
 8002628:	601a      	str	r2, [r3, #0]
 800262a:	2000      	movs	r0, #0
 800262c:	4770      	bx	lr
 800262e:	bf00      	nop
 8002630:	00010007 	.word	0x00010007

08002634 <HAL_TIM_PWM_Init>:
 8002634:	2800      	cmp	r0, #0
 8002636:	d067      	beq.n	8002708 <HAL_TIM_PWM_Init+0xd4>
 8002638:	b538      	push	{r3, r4, r5, lr}
 800263a:	f890 303d 	ldrb.w	r3, [r0, #61]	; 0x3d
 800263e:	4604      	mov	r4, r0
 8002640:	f003 02ff 	and.w	r2, r3, #255	; 0xff
 8002644:	2b00      	cmp	r3, #0
 8002646:	d057      	beq.n	80026f8 <HAL_TIM_PWM_Init+0xc4>
 8002648:	6821      	ldr	r1, [r4, #0]
 800264a:	4a30      	ldr	r2, [pc, #192]	; (800270c <HAL_TIM_PWM_Init+0xd8>)
 800264c:	2302      	movs	r3, #2
 800264e:	f884 303d 	strb.w	r3, [r4, #61]	; 0x3d
 8002652:	4291      	cmp	r1, r2
 8002654:	680b      	ldr	r3, [r1, #0]
 8002656:	d03b      	beq.n	80026d0 <HAL_TIM_PWM_Init+0x9c>
 8002658:	f1b1 4f80 	cmp.w	r1, #1073741824	; 0x40000000
 800265c:	d021      	beq.n	80026a2 <HAL_TIM_PWM_Init+0x6e>
 800265e:	f5a2 3294 	sub.w	r2, r2, #75776	; 0x12800
 8002662:	4291      	cmp	r1, r2
 8002664:	d01d      	beq.n	80026a2 <HAL_TIM_PWM_Init+0x6e>
 8002666:	f502 6280 	add.w	r2, r2, #1024	; 0x400
 800266a:	4291      	cmp	r1, r2
 800266c:	d019      	beq.n	80026a2 <HAL_TIM_PWM_Init+0x6e>
 800266e:	f502 3296 	add.w	r2, r2, #76800	; 0x12c00
 8002672:	4291      	cmp	r1, r2
 8002674:	d02c      	beq.n	80026d0 <HAL_TIM_PWM_Init+0x9c>
 8002676:	f502 6240 	add.w	r2, r2, #3072	; 0xc00
 800267a:	4291      	cmp	r1, r2
 800267c:	d041      	beq.n	8002702 <HAL_TIM_PWM_Init+0xce>
 800267e:	f502 6280 	add.w	r2, r2, #1024	; 0x400
 8002682:	4291      	cmp	r1, r2
 8002684:	d03d      	beq.n	8002702 <HAL_TIM_PWM_Init+0xce>
 8002686:	f502 6280 	add.w	r2, r2, #1024	; 0x400
 800268a:	4291      	cmp	r1, r2
 800268c:	d039      	beq.n	8002702 <HAL_TIM_PWM_Init+0xce>
 800268e:	69a5      	ldr	r5, [r4, #24]
 8002690:	68e0      	ldr	r0, [r4, #12]
 8002692:	6862      	ldr	r2, [r4, #4]
 8002694:	f023 0380 	bic.w	r3, r3, #128	; 0x80
 8002698:	432b      	orrs	r3, r5
 800269a:	600b      	str	r3, [r1, #0]
 800269c:	62c8      	str	r0, [r1, #44]	; 0x2c
 800269e:	628a      	str	r2, [r1, #40]	; 0x28
 80026a0:	e010      	b.n	80026c4 <HAL_TIM_PWM_Init+0x90>
 80026a2:	68a2      	ldr	r2, [r4, #8]
 80026a4:	6925      	ldr	r5, [r4, #16]
 80026a6:	68e0      	ldr	r0, [r4, #12]
 80026a8:	f023 0370 	bic.w	r3, r3, #112	; 0x70
 80026ac:	4313      	orrs	r3, r2
 80026ae:	f423 7340 	bic.w	r3, r3, #768	; 0x300
 80026b2:	69a2      	ldr	r2, [r4, #24]
 80026b4:	432b      	orrs	r3, r5
 80026b6:	f023 0380 	bic.w	r3, r3, #128	; 0x80
 80026ba:	4313      	orrs	r3, r2
 80026bc:	6862      	ldr	r2, [r4, #4]
 80026be:	600b      	str	r3, [r1, #0]
 80026c0:	62c8      	str	r0, [r1, #44]	; 0x2c
 80026c2:	628a      	str	r2, [r1, #40]	; 0x28
 80026c4:	2301      	movs	r3, #1
 80026c6:	614b      	str	r3, [r1, #20]
 80026c8:	f884 303d 	strb.w	r3, [r4, #61]	; 0x3d
 80026cc:	2000      	movs	r0, #0
 80026ce:	bd38      	pop	{r3, r4, r5, pc}
 80026d0:	68a5      	ldr	r5, [r4, #8]
 80026d2:	6920      	ldr	r0, [r4, #16]
 80026d4:	69a2      	ldr	r2, [r4, #24]
 80026d6:	f023 0370 	bic.w	r3, r3, #112	; 0x70
 80026da:	432b      	orrs	r3, r5
 80026dc:	f423 7340 	bic.w	r3, r3, #768	; 0x300
 80026e0:	4303      	orrs	r3, r0
 80026e2:	f023 0380 	bic.w	r3, r3, #128	; 0x80
 80026e6:	4313      	orrs	r3, r2
 80026e8:	600b      	str	r3, [r1, #0]
 80026ea:	68e3      	ldr	r3, [r4, #12]
 80026ec:	62cb      	str	r3, [r1, #44]	; 0x2c
 80026ee:	6863      	ldr	r3, [r4, #4]
 80026f0:	628b      	str	r3, [r1, #40]	; 0x28
 80026f2:	6963      	ldr	r3, [r4, #20]
 80026f4:	630b      	str	r3, [r1, #48]	; 0x30
 80026f6:	e7e5      	b.n	80026c4 <HAL_TIM_PWM_Init+0x90>
 80026f8:	f880 203c 	strb.w	r2, [r0, #60]	; 0x3c
 80026fc:	f002 fdb8 	bl	8005270 <HAL_TIM_PWM_MspInit>
 8002700:	e7a2      	b.n	8002648 <HAL_TIM_PWM_Init+0x14>
 8002702:	6920      	ldr	r0, [r4, #16]
 8002704:	69a2      	ldr	r2, [r4, #24]
 8002706:	e7e9      	b.n	80026dc <HAL_TIM_PWM_Init+0xa8>
 8002708:	2001      	movs	r0, #1
 800270a:	4770      	bx	lr
 800270c:	40012c00 	.word	0x40012c00

08002710 <HAL_TIM_PWM_Start>:
 8002710:	6803      	ldr	r3, [r0, #0]
 8002712:	2201      	movs	r2, #1
 8002714:	6a18      	ldr	r0, [r3, #32]
 8002716:	f001 011f 	and.w	r1, r1, #31
 800271a:	fa02 f101 	lsl.w	r1, r2, r1
 800271e:	ea20 0001 	bic.w	r0, r0, r1
 8002722:	b410      	push	{r4}
 8002724:	6218      	str	r0, [r3, #32]
 8002726:	6a1a      	ldr	r2, [r3, #32]
 8002728:	4c13      	ldr	r4, [pc, #76]	; (8002778 <HAL_TIM_PWM_Start+0x68>)
 800272a:	4311      	orrs	r1, r2
 800272c:	42a3      	cmp	r3, r4
 800272e:	6219      	str	r1, [r3, #32]
 8002730:	d00e      	beq.n	8002750 <HAL_TIM_PWM_Start+0x40>
 8002732:	4a12      	ldr	r2, [pc, #72]	; (800277c <HAL_TIM_PWM_Start+0x6c>)
 8002734:	4293      	cmp	r3, r2
 8002736:	d00b      	beq.n	8002750 <HAL_TIM_PWM_Start+0x40>
 8002738:	f502 6240 	add.w	r2, r2, #3072	; 0xc00
 800273c:	4293      	cmp	r3, r2
 800273e:	d007      	beq.n	8002750 <HAL_TIM_PWM_Start+0x40>
 8002740:	f502 6280 	add.w	r2, r2, #1024	; 0x400
 8002744:	4293      	cmp	r3, r2
 8002746:	d003      	beq.n	8002750 <HAL_TIM_PWM_Start+0x40>
 8002748:	f502 6280 	add.w	r2, r2, #1024	; 0x400
 800274c:	4293      	cmp	r3, r2
 800274e:	d103      	bne.n	8002758 <HAL_TIM_PWM_Start+0x48>
 8002750:	6c5a      	ldr	r2, [r3, #68]	; 0x44
 8002752:	f442 4200 	orr.w	r2, r2, #32768	; 0x8000
 8002756:	645a      	str	r2, [r3, #68]	; 0x44
 8002758:	6899      	ldr	r1, [r3, #8]
 800275a:	4a09      	ldr	r2, [pc, #36]	; (8002780 <HAL_TIM_PWM_Start+0x70>)
 800275c:	400a      	ands	r2, r1
 800275e:	2a06      	cmp	r2, #6
 8002760:	d006      	beq.n	8002770 <HAL_TIM_PWM_Start+0x60>
 8002762:	f5b2 3f80 	cmp.w	r2, #65536	; 0x10000
 8002766:	d003      	beq.n	8002770 <HAL_TIM_PWM_Start+0x60>
 8002768:	681a      	ldr	r2, [r3, #0]
 800276a:	f042 0201 	orr.w	r2, r2, #1
 800276e:	601a      	str	r2, [r3, #0]
 8002770:	2000      	movs	r0, #0
 8002772:	f85d 4b04 	ldr.w	r4, [sp], #4
 8002776:	4770      	bx	lr
 8002778:	40012c00 	.word	0x40012c00
 800277c:	40013400 	.word	0x40013400
 8002780:	00010007 	.word	0x00010007

08002784 <HAL_TIM_Encoder_Init>:
 8002784:	2800      	cmp	r0, #0
 8002786:	f000 80a1 	beq.w	80028cc <HAL_TIM_Encoder_Init+0x148>
 800278a:	e92d 41f0 	stmdb	sp!, {r4, r5, r6, r7, r8, lr}
 800278e:	f890 303d 	ldrb.w	r3, [r0, #61]	; 0x3d
 8002792:	460d      	mov	r5, r1
 8002794:	4604      	mov	r4, r0
 8002796:	f003 02ff 	and.w	r2, r3, #255	; 0xff
 800279a:	2b00      	cmp	r3, #0
 800279c:	f000 808b 	beq.w	80028b6 <HAL_TIM_Encoder_Init+0x132>
 80027a0:	6823      	ldr	r3, [r4, #0]
 80027a2:	494b      	ldr	r1, [pc, #300]	; (80028d0 <HAL_TIM_Encoder_Init+0x14c>)
 80027a4:	2202      	movs	r2, #2
 80027a6:	f884 203d 	strb.w	r2, [r4, #61]	; 0x3d
 80027aa:	689a      	ldr	r2, [r3, #8]
 80027ac:	f422 32a0 	bic.w	r2, r2, #81920	; 0x14000
 80027b0:	f022 0207 	bic.w	r2, r2, #7
 80027b4:	609a      	str	r2, [r3, #8]
 80027b6:	428b      	cmp	r3, r1
 80027b8:	681a      	ldr	r2, [r3, #0]
 80027ba:	d068      	beq.n	800288e <HAL_TIM_Encoder_Init+0x10a>
 80027bc:	f1b3 4f80 	cmp.w	r3, #1073741824	; 0x40000000
 80027c0:	d021      	beq.n	8002806 <HAL_TIM_Encoder_Init+0x82>
 80027c2:	f5a1 3194 	sub.w	r1, r1, #75776	; 0x12800
 80027c6:	428b      	cmp	r3, r1
 80027c8:	d01d      	beq.n	8002806 <HAL_TIM_Encoder_Init+0x82>
 80027ca:	f501 6180 	add.w	r1, r1, #1024	; 0x400
 80027ce:	428b      	cmp	r3, r1
 80027d0:	d019      	beq.n	8002806 <HAL_TIM_Encoder_Init+0x82>
 80027d2:	f501 3196 	add.w	r1, r1, #76800	; 0x12c00
 80027d6:	428b      	cmp	r3, r1
 80027d8:	d059      	beq.n	800288e <HAL_TIM_Encoder_Init+0x10a>
 80027da:	f501 6140 	add.w	r1, r1, #3072	; 0xc00
 80027de:	428b      	cmp	r3, r1
 80027e0:	d06e      	beq.n	80028c0 <HAL_TIM_Encoder_Init+0x13c>
 80027e2:	f501 6180 	add.w	r1, r1, #1024	; 0x400
 80027e6:	428b      	cmp	r3, r1
 80027e8:	d06a      	beq.n	80028c0 <HAL_TIM_Encoder_Init+0x13c>
 80027ea:	f501 6180 	add.w	r1, r1, #1024	; 0x400
 80027ee:	428b      	cmp	r3, r1
 80027f0:	d066      	beq.n	80028c0 <HAL_TIM_Encoder_Init+0x13c>
 80027f2:	69a1      	ldr	r1, [r4, #24]
 80027f4:	68e0      	ldr	r0, [r4, #12]
 80027f6:	f022 0280 	bic.w	r2, r2, #128	; 0x80
 80027fa:	430a      	orrs	r2, r1
 80027fc:	6861      	ldr	r1, [r4, #4]
 80027fe:	601a      	str	r2, [r3, #0]
 8002800:	62d8      	str	r0, [r3, #44]	; 0x2c
 8002802:	6299      	str	r1, [r3, #40]	; 0x28
 8002804:	e010      	b.n	8002828 <HAL_TIM_Encoder_Init+0xa4>
 8002806:	68a1      	ldr	r1, [r4, #8]
 8002808:	6920      	ldr	r0, [r4, #16]
 800280a:	f022 0270 	bic.w	r2, r2, #112	; 0x70
 800280e:	430a      	orrs	r2, r1
 8002810:	f422 7240 	bic.w	r2, r2, #768	; 0x300
 8002814:	69a1      	ldr	r1, [r4, #24]
 8002816:	4302      	orrs	r2, r0
 8002818:	f022 0280 	bic.w	r2, r2, #128	; 0x80
 800281c:	68e0      	ldr	r0, [r4, #12]
 800281e:	430a      	orrs	r2, r1
 8002820:	6861      	ldr	r1, [r4, #4]
 8002822:	601a      	str	r2, [r3, #0]
 8002824:	62d8      	str	r0, [r3, #44]	; 0x2c
 8002826:	6299      	str	r1, [r3, #40]	; 0x28
 8002828:	f04f 0c01 	mov.w	ip, #1
 800282c:	f8c3 c014 	str.w	ip, [r3, #20]
 8002830:	6898      	ldr	r0, [r3, #8]
 8002832:	699e      	ldr	r6, [r3, #24]
 8002834:	69af      	ldr	r7, [r5, #24]
 8002836:	68a9      	ldr	r1, [r5, #8]
 8002838:	692a      	ldr	r2, [r5, #16]
 800283a:	f8d5 e000 	ldr.w	lr, [r5]
 800283e:	f426 7840 	bic.w	r8, r6, #768	; 0x300
 8002842:	69ee      	ldr	r6, [r5, #28]
 8002844:	ea41 2107 	orr.w	r1, r1, r7, lsl #8
 8002848:	0112      	lsls	r2, r2, #4
 800284a:	68ef      	ldr	r7, [r5, #12]
 800284c:	ea42 2206 	orr.w	r2, r2, r6, lsl #8
 8002850:	433a      	orrs	r2, r7
 8002852:	6a2f      	ldr	r7, [r5, #32]
 8002854:	6a1e      	ldr	r6, [r3, #32]
 8002856:	f028 0803 	bic.w	r8, r8, #3
 800285a:	ea41 0108 	orr.w	r1, r1, r8
 800285e:	ea42 3207 	orr.w	r2, r2, r7, lsl #12
 8002862:	696f      	ldr	r7, [r5, #20]
 8002864:	686d      	ldr	r5, [r5, #4]
 8002866:	f421 417c 	bic.w	r1, r1, #64512	; 0xfc00
 800286a:	f021 01fc 	bic.w	r1, r1, #252	; 0xfc
 800286e:	f026 06aa 	bic.w	r6, r6, #170	; 0xaa
 8002872:	ea45 1507 	orr.w	r5, r5, r7, lsl #4
 8002876:	ea40 000e 	orr.w	r0, r0, lr
 800287a:	430a      	orrs	r2, r1
 800287c:	4335      	orrs	r5, r6
 800287e:	6098      	str	r0, [r3, #8]
 8002880:	619a      	str	r2, [r3, #24]
 8002882:	621d      	str	r5, [r3, #32]
 8002884:	f884 c03d 	strb.w	ip, [r4, #61]	; 0x3d
 8002888:	2000      	movs	r0, #0
 800288a:	e8bd 81f0 	ldmia.w	sp!, {r4, r5, r6, r7, r8, pc}
 800288e:	68a0      	ldr	r0, [r4, #8]
 8002890:	6921      	ldr	r1, [r4, #16]
 8002892:	f022 0270 	bic.w	r2, r2, #112	; 0x70
 8002896:	4302      	orrs	r2, r0
 8002898:	f422 7240 	bic.w	r2, r2, #768	; 0x300
 800289c:	430a      	orrs	r2, r1
 800289e:	69a1      	ldr	r1, [r4, #24]
 80028a0:	f022 0280 	bic.w	r2, r2, #128	; 0x80
 80028a4:	430a      	orrs	r2, r1
 80028a6:	601a      	str	r2, [r3, #0]
 80028a8:	68e2      	ldr	r2, [r4, #12]
 80028aa:	62da      	str	r2, [r3, #44]	; 0x2c
 80028ac:	6862      	ldr	r2, [r4, #4]
 80028ae:	629a      	str	r2, [r3, #40]	; 0x28
 80028b0:	6962      	ldr	r2, [r4, #20]
 80028b2:	631a      	str	r2, [r3, #48]	; 0x30
 80028b4:	e7b8      	b.n	8002828 <HAL_TIM_Encoder_Init+0xa4>
 80028b6:	f880 203c 	strb.w	r2, [r0, #60]	; 0x3c
 80028ba:	f002 fd0d 	bl	80052d8 <HAL_TIM_Encoder_MspInit>
 80028be:	e76f      	b.n	80027a0 <HAL_TIM_Encoder_Init+0x1c>
 80028c0:	6920      	ldr	r0, [r4, #16]
 80028c2:	69a1      	ldr	r1, [r4, #24]
 80028c4:	f422 7240 	bic.w	r2, r2, #768	; 0x300
 80028c8:	4302      	orrs	r2, r0
 80028ca:	e7e9      	b.n	80028a0 <HAL_TIM_Encoder_Init+0x11c>
 80028cc:	2001      	movs	r0, #1
 80028ce:	4770      	bx	lr
 80028d0:	40012c00 	.word	0x40012c00

080028d4 <HAL_TIM_Encoder_Start_IT>:
 80028d4:	b301      	cbz	r1, 8002918 <HAL_TIM_Encoder_Start_IT+0x44>
 80028d6:	2904      	cmp	r1, #4
 80028d8:	d02c      	beq.n	8002934 <HAL_TIM_Encoder_Start_IT+0x60>
 80028da:	6803      	ldr	r3, [r0, #0]
 80028dc:	6a1a      	ldr	r2, [r3, #32]
 80028de:	f022 0201 	bic.w	r2, r2, #1
 80028e2:	621a      	str	r2, [r3, #32]
 80028e4:	6a1a      	ldr	r2, [r3, #32]
 80028e6:	f042 0201 	orr.w	r2, r2, #1
 80028ea:	621a      	str	r2, [r3, #32]
 80028ec:	6a1a      	ldr	r2, [r3, #32]
 80028ee:	f022 0210 	bic.w	r2, r2, #16
 80028f2:	621a      	str	r2, [r3, #32]
 80028f4:	6a1a      	ldr	r2, [r3, #32]
 80028f6:	f042 0210 	orr.w	r2, r2, #16
 80028fa:	621a      	str	r2, [r3, #32]
 80028fc:	68da      	ldr	r2, [r3, #12]
 80028fe:	f042 0202 	orr.w	r2, r2, #2
 8002902:	60da      	str	r2, [r3, #12]
 8002904:	68da      	ldr	r2, [r3, #12]
 8002906:	f042 0204 	orr.w	r2, r2, #4
 800290a:	60da      	str	r2, [r3, #12]
 800290c:	681a      	ldr	r2, [r3, #0]
 800290e:	f042 0201 	orr.w	r2, r2, #1
 8002912:	601a      	str	r2, [r3, #0]
 8002914:	2000      	movs	r0, #0
 8002916:	4770      	bx	lr
 8002918:	6803      	ldr	r3, [r0, #0]
 800291a:	6a1a      	ldr	r2, [r3, #32]
 800291c:	f022 0201 	bic.w	r2, r2, #1
 8002920:	621a      	str	r2, [r3, #32]
 8002922:	6a1a      	ldr	r2, [r3, #32]
 8002924:	f042 0201 	orr.w	r2, r2, #1
 8002928:	621a      	str	r2, [r3, #32]
 800292a:	68da      	ldr	r2, [r3, #12]
 800292c:	f042 0202 	orr.w	r2, r2, #2
 8002930:	60da      	str	r2, [r3, #12]
 8002932:	e7eb      	b.n	800290c <HAL_TIM_Encoder_Start_IT+0x38>
 8002934:	6803      	ldr	r3, [r0, #0]
 8002936:	6a1a      	ldr	r2, [r3, #32]
 8002938:	f022 0210 	bic.w	r2, r2, #16
 800293c:	621a      	str	r2, [r3, #32]
 800293e:	6a1a      	ldr	r2, [r3, #32]
 8002940:	f042 0210 	orr.w	r2, r2, #16
 8002944:	621a      	str	r2, [r3, #32]
 8002946:	68da      	ldr	r2, [r3, #12]
 8002948:	f042 0204 	orr.w	r2, r2, #4
 800294c:	60da      	str	r2, [r3, #12]
 800294e:	e7dd      	b.n	800290c <HAL_TIM_Encoder_Start_IT+0x38>

08002950 <HAL_TIM_ConfigClockSource>:
 8002950:	f890 303c 	ldrb.w	r3, [r0, #60]	; 0x3c
 8002954:	2b01      	cmp	r3, #1
 8002956:	d073      	beq.n	8002a40 <HAL_TIM_ConfigClockSource+0xf0>
 8002958:	b4f0      	push	{r4, r5, r6, r7}
 800295a:	6802      	ldr	r2, [r0, #0]
 800295c:	2401      	movs	r4, #1
 800295e:	2302      	movs	r3, #2
 8002960:	f880 403c 	strb.w	r4, [r0, #60]	; 0x3c
 8002964:	f880 303d 	strb.w	r3, [r0, #61]	; 0x3d
 8002968:	6895      	ldr	r5, [r2, #8]
 800296a:	680b      	ldr	r3, [r1, #0]
 800296c:	4c4a      	ldr	r4, [pc, #296]	; (8002a98 <HAL_TIM_ConfigClockSource+0x148>)
 800296e:	2b60      	cmp	r3, #96	; 0x60
 8002970:	ea04 0405 	and.w	r4, r4, r5
 8002974:	6094      	str	r4, [r2, #8]
 8002976:	d065      	beq.n	8002a44 <HAL_TIM_ConfigClockSource+0xf4>
 8002978:	d831      	bhi.n	80029de <HAL_TIM_ConfigClockSource+0x8e>
 800297a:	2b40      	cmp	r3, #64	; 0x40
 800297c:	d048      	beq.n	8002a10 <HAL_TIM_ConfigClockSource+0xc0>
 800297e:	d921      	bls.n	80029c4 <HAL_TIM_ConfigClockSource+0x74>
 8002980:	2b50      	cmp	r3, #80	; 0x50
 8002982:	d116      	bne.n	80029b2 <HAL_TIM_ConfigClockSource+0x62>
 8002984:	6a15      	ldr	r5, [r2, #32]
 8002986:	6a16      	ldr	r6, [r2, #32]
 8002988:	684c      	ldr	r4, [r1, #4]
 800298a:	68cf      	ldr	r7, [r1, #12]
 800298c:	f026 0601 	bic.w	r6, r6, #1
 8002990:	6216      	str	r6, [r2, #32]
 8002992:	6993      	ldr	r3, [r2, #24]
 8002994:	f025 010a 	bic.w	r1, r5, #10
 8002998:	f023 03f0 	bic.w	r3, r3, #240	; 0xf0
 800299c:	ea43 1307 	orr.w	r3, r3, r7, lsl #4
 80029a0:	4321      	orrs	r1, r4
 80029a2:	6193      	str	r3, [r2, #24]
 80029a4:	6211      	str	r1, [r2, #32]
 80029a6:	6893      	ldr	r3, [r2, #8]
 80029a8:	f023 0370 	bic.w	r3, r3, #112	; 0x70
 80029ac:	f043 0357 	orr.w	r3, r3, #87	; 0x57
 80029b0:	6093      	str	r3, [r2, #8]
 80029b2:	2300      	movs	r3, #0
 80029b4:	2201      	movs	r2, #1
 80029b6:	f880 203d 	strb.w	r2, [r0, #61]	; 0x3d
 80029ba:	f880 303c 	strb.w	r3, [r0, #60]	; 0x3c
 80029be:	bcf0      	pop	{r4, r5, r6, r7}
 80029c0:	4618      	mov	r0, r3
 80029c2:	4770      	bx	lr
 80029c4:	2b20      	cmp	r3, #32
 80029c6:	d002      	beq.n	80029ce <HAL_TIM_ConfigClockSource+0x7e>
 80029c8:	d91e      	bls.n	8002a08 <HAL_TIM_ConfigClockSource+0xb8>
 80029ca:	2b30      	cmp	r3, #48	; 0x30
 80029cc:	d1f1      	bne.n	80029b2 <HAL_TIM_ConfigClockSource+0x62>
 80029ce:	6891      	ldr	r1, [r2, #8]
 80029d0:	f021 0170 	bic.w	r1, r1, #112	; 0x70
 80029d4:	430b      	orrs	r3, r1
 80029d6:	f043 0307 	orr.w	r3, r3, #7
 80029da:	6093      	str	r3, [r2, #8]
 80029dc:	e7e9      	b.n	80029b2 <HAL_TIM_ConfigClockSource+0x62>
 80029de:	2b70      	cmp	r3, #112	; 0x70
 80029e0:	d049      	beq.n	8002a76 <HAL_TIM_ConfigClockSource+0x126>
 80029e2:	f5b3 5f00 	cmp.w	r3, #8192	; 0x2000
 80029e6:	d1e4      	bne.n	80029b2 <HAL_TIM_ConfigClockSource+0x62>
 80029e8:	e9d1 5301 	ldrd	r5, r3, [r1, #4]
 80029ec:	68cc      	ldr	r4, [r1, #12]
 80029ee:	6891      	ldr	r1, [r2, #8]
 80029f0:	432b      	orrs	r3, r5
 80029f2:	ea43 2304 	orr.w	r3, r3, r4, lsl #8
 80029f6:	f421 417f 	bic.w	r1, r1, #65280	; 0xff00
 80029fa:	430b      	orrs	r3, r1
 80029fc:	6093      	str	r3, [r2, #8]
 80029fe:	6893      	ldr	r3, [r2, #8]
 8002a00:	f443 4380 	orr.w	r3, r3, #16384	; 0x4000
 8002a04:	6093      	str	r3, [r2, #8]
 8002a06:	e7d4      	b.n	80029b2 <HAL_TIM_ConfigClockSource+0x62>
 8002a08:	f033 0110 	bics.w	r1, r3, #16
 8002a0c:	d1d1      	bne.n	80029b2 <HAL_TIM_ConfigClockSource+0x62>
 8002a0e:	e7de      	b.n	80029ce <HAL_TIM_ConfigClockSource+0x7e>
 8002a10:	6a15      	ldr	r5, [r2, #32]
 8002a12:	6a16      	ldr	r6, [r2, #32]
 8002a14:	684c      	ldr	r4, [r1, #4]
 8002a16:	68cf      	ldr	r7, [r1, #12]
 8002a18:	f026 0601 	bic.w	r6, r6, #1
 8002a1c:	6216      	str	r6, [r2, #32]
 8002a1e:	6993      	ldr	r3, [r2, #24]
 8002a20:	f025 010a 	bic.w	r1, r5, #10
 8002a24:	f023 03f0 	bic.w	r3, r3, #240	; 0xf0
 8002a28:	ea43 1307 	orr.w	r3, r3, r7, lsl #4
 8002a2c:	4321      	orrs	r1, r4
 8002a2e:	6193      	str	r3, [r2, #24]
 8002a30:	6211      	str	r1, [r2, #32]
 8002a32:	6893      	ldr	r3, [r2, #8]
 8002a34:	f023 0370 	bic.w	r3, r3, #112	; 0x70
 8002a38:	f043 0347 	orr.w	r3, r3, #71	; 0x47
 8002a3c:	6093      	str	r3, [r2, #8]
 8002a3e:	e7b8      	b.n	80029b2 <HAL_TIM_ConfigClockSource+0x62>
 8002a40:	2002      	movs	r0, #2
 8002a42:	4770      	bx	lr
 8002a44:	6a14      	ldr	r4, [r2, #32]
 8002a46:	684d      	ldr	r5, [r1, #4]
 8002a48:	68ce      	ldr	r6, [r1, #12]
 8002a4a:	f024 0410 	bic.w	r4, r4, #16
 8002a4e:	6214      	str	r4, [r2, #32]
 8002a50:	6991      	ldr	r1, [r2, #24]
 8002a52:	6a13      	ldr	r3, [r2, #32]
 8002a54:	f421 4170 	bic.w	r1, r1, #61440	; 0xf000
 8002a58:	f023 03a0 	bic.w	r3, r3, #160	; 0xa0
 8002a5c:	ea43 1305 	orr.w	r3, r3, r5, lsl #4
 8002a60:	ea41 3106 	orr.w	r1, r1, r6, lsl #12
 8002a64:	6191      	str	r1, [r2, #24]
 8002a66:	6213      	str	r3, [r2, #32]
 8002a68:	6893      	ldr	r3, [r2, #8]
 8002a6a:	f023 0370 	bic.w	r3, r3, #112	; 0x70
 8002a6e:	f043 0367 	orr.w	r3, r3, #103	; 0x67
 8002a72:	6093      	str	r3, [r2, #8]
 8002a74:	e79d      	b.n	80029b2 <HAL_TIM_ConfigClockSource+0x62>
 8002a76:	e9d1 5301 	ldrd	r5, r3, [r1, #4]
 8002a7a:	68cc      	ldr	r4, [r1, #12]
 8002a7c:	6891      	ldr	r1, [r2, #8]
 8002a7e:	432b      	orrs	r3, r5
 8002a80:	ea43 2304 	orr.w	r3, r3, r4, lsl #8
 8002a84:	f421 417f 	bic.w	r1, r1, #65280	; 0xff00
 8002a88:	430b      	orrs	r3, r1
 8002a8a:	6093      	str	r3, [r2, #8]
 8002a8c:	6893      	ldr	r3, [r2, #8]
 8002a8e:	f043 0377 	orr.w	r3, r3, #119	; 0x77
 8002a92:	6093      	str	r3, [r2, #8]
 8002a94:	e78d      	b.n	80029b2 <HAL_TIM_ConfigClockSource+0x62>
 8002a96:	bf00      	nop
 8002a98:	fffe0088 	.word	0xfffe0088

08002a9c <HAL_TIM_OC_DelayElapsedCallback>:
 8002a9c:	4770      	bx	lr
 8002a9e:	bf00      	nop

08002aa0 <HAL_TIM_PWM_PulseFinishedCallback>:
 8002aa0:	4770      	bx	lr
 8002aa2:	bf00      	nop

08002aa4 <HAL_TIM_TriggerCallback>:
 8002aa4:	4770      	bx	lr
 8002aa6:	bf00      	nop

08002aa8 <HAL_TIM_IRQHandler>:
 8002aa8:	6803      	ldr	r3, [r0, #0]
 8002aaa:	691a      	ldr	r2, [r3, #16]
 8002aac:	0791      	lsls	r1, r2, #30
 8002aae:	b510      	push	{r4, lr}
 8002ab0:	4604      	mov	r4, r0
 8002ab2:	d502      	bpl.n	8002aba <HAL_TIM_IRQHandler+0x12>
 8002ab4:	68da      	ldr	r2, [r3, #12]
 8002ab6:	0792      	lsls	r2, r2, #30
 8002ab8:	d468      	bmi.n	8002b8c <HAL_TIM_IRQHandler+0xe4>
 8002aba:	691a      	ldr	r2, [r3, #16]
 8002abc:	0752      	lsls	r2, r2, #29
 8002abe:	d502      	bpl.n	8002ac6 <HAL_TIM_IRQHandler+0x1e>
 8002ac0:	68da      	ldr	r2, [r3, #12]
 8002ac2:	0750      	lsls	r0, r2, #29
 8002ac4:	d44f      	bmi.n	8002b66 <HAL_TIM_IRQHandler+0xbe>
 8002ac6:	691a      	ldr	r2, [r3, #16]
 8002ac8:	0711      	lsls	r1, r2, #28
 8002aca:	d502      	bpl.n	8002ad2 <HAL_TIM_IRQHandler+0x2a>
 8002acc:	68da      	ldr	r2, [r3, #12]
 8002ace:	0712      	lsls	r2, r2, #28
 8002ad0:	d437      	bmi.n	8002b42 <HAL_TIM_IRQHandler+0x9a>
 8002ad2:	691a      	ldr	r2, [r3, #16]
 8002ad4:	06d0      	lsls	r0, r2, #27
 8002ad6:	d502      	bpl.n	8002ade <HAL_TIM_IRQHandler+0x36>
 8002ad8:	68da      	ldr	r2, [r3, #12]
 8002ada:	06d1      	lsls	r1, r2, #27
 8002adc:	d41e      	bmi.n	8002b1c <HAL_TIM_IRQHandler+0x74>
 8002ade:	691a      	ldr	r2, [r3, #16]
 8002ae0:	07d2      	lsls	r2, r2, #31
 8002ae2:	d502      	bpl.n	8002aea <HAL_TIM_IRQHandler+0x42>
 8002ae4:	68da      	ldr	r2, [r3, #12]
 8002ae6:	07d0      	lsls	r0, r2, #31
 8002ae8:	d469      	bmi.n	8002bbe <HAL_TIM_IRQHandler+0x116>
 8002aea:	691a      	ldr	r2, [r3, #16]
 8002aec:	0611      	lsls	r1, r2, #24
 8002aee:	d502      	bpl.n	8002af6 <HAL_TIM_IRQHandler+0x4e>
 8002af0:	68da      	ldr	r2, [r3, #12]
 8002af2:	0612      	lsls	r2, r2, #24
 8002af4:	d46b      	bmi.n	8002bce <HAL_TIM_IRQHandler+0x126>
 8002af6:	691a      	ldr	r2, [r3, #16]
 8002af8:	05d0      	lsls	r0, r2, #23
 8002afa:	d502      	bpl.n	8002b02 <HAL_TIM_IRQHandler+0x5a>
 8002afc:	68da      	ldr	r2, [r3, #12]
 8002afe:	0611      	lsls	r1, r2, #24
 8002b00:	d46d      	bmi.n	8002bde <HAL_TIM_IRQHandler+0x136>
 8002b02:	691a      	ldr	r2, [r3, #16]
 8002b04:	0652      	lsls	r2, r2, #25
 8002b06:	d502      	bpl.n	8002b0e <HAL_TIM_IRQHandler+0x66>
 8002b08:	68da      	ldr	r2, [r3, #12]
 8002b0a:	0650      	lsls	r0, r2, #25
 8002b0c:	d46f      	bmi.n	8002bee <HAL_TIM_IRQHandler+0x146>
 8002b0e:	691a      	ldr	r2, [r3, #16]
 8002b10:	0691      	lsls	r1, r2, #26
 8002b12:	d502      	bpl.n	8002b1a <HAL_TIM_IRQHandler+0x72>
 8002b14:	68da      	ldr	r2, [r3, #12]
 8002b16:	0692      	lsls	r2, r2, #26
 8002b18:	d449      	bmi.n	8002bae <HAL_TIM_IRQHandler+0x106>
 8002b1a:	bd10      	pop	{r4, pc}
 8002b1c:	f06f 0110 	mvn.w	r1, #16
 8002b20:	2208      	movs	r2, #8
 8002b22:	6119      	str	r1, [r3, #16]
 8002b24:	7722      	strb	r2, [r4, #28]
 8002b26:	69db      	ldr	r3, [r3, #28]
 8002b28:	f413 7f40 	tst.w	r3, #768	; 0x300
 8002b2c:	4620      	mov	r0, r4
 8002b2e:	d16f      	bne.n	8002c10 <HAL_TIM_IRQHandler+0x168>
 8002b30:	f7ff ffb4 	bl	8002a9c <HAL_TIM_OC_DelayElapsedCallback>
 8002b34:	4620      	mov	r0, r4
 8002b36:	f7ff ffb3 	bl	8002aa0 <HAL_TIM_PWM_PulseFinishedCallback>
 8002b3a:	2200      	movs	r2, #0
 8002b3c:	6823      	ldr	r3, [r4, #0]
 8002b3e:	7722      	strb	r2, [r4, #28]
 8002b40:	e7cd      	b.n	8002ade <HAL_TIM_IRQHandler+0x36>
 8002b42:	f06f 0108 	mvn.w	r1, #8
 8002b46:	2204      	movs	r2, #4
 8002b48:	6119      	str	r1, [r3, #16]
 8002b4a:	7722      	strb	r2, [r4, #28]
 8002b4c:	69db      	ldr	r3, [r3, #28]
 8002b4e:	079b      	lsls	r3, r3, #30
 8002b50:	4620      	mov	r0, r4
 8002b52:	d15a      	bne.n	8002c0a <HAL_TIM_IRQHandler+0x162>
 8002b54:	f7ff ffa2 	bl	8002a9c <HAL_TIM_OC_DelayElapsedCallback>
 8002b58:	4620      	mov	r0, r4
 8002b5a:	f7ff ffa1 	bl	8002aa0 <HAL_TIM_PWM_PulseFinishedCallback>
 8002b5e:	2200      	movs	r2, #0
 8002b60:	6823      	ldr	r3, [r4, #0]
 8002b62:	7722      	strb	r2, [r4, #28]
 8002b64:	e7b5      	b.n	8002ad2 <HAL_TIM_IRQHandler+0x2a>
 8002b66:	f06f 0104 	mvn.w	r1, #4
 8002b6a:	2202      	movs	r2, #2
 8002b6c:	6119      	str	r1, [r3, #16]
 8002b6e:	7722      	strb	r2, [r4, #28]
 8002b70:	699b      	ldr	r3, [r3, #24]
 8002b72:	f413 7f40 	tst.w	r3, #768	; 0x300
 8002b76:	4620      	mov	r0, r4
 8002b78:	d144      	bne.n	8002c04 <HAL_TIM_IRQHandler+0x15c>
 8002b7a:	f7ff ff8f 	bl	8002a9c <HAL_TIM_OC_DelayElapsedCallback>
 8002b7e:	4620      	mov	r0, r4
 8002b80:	f7ff ff8e 	bl	8002aa0 <HAL_TIM_PWM_PulseFinishedCallback>
 8002b84:	2200      	movs	r2, #0
 8002b86:	6823      	ldr	r3, [r4, #0]
 8002b88:	7722      	strb	r2, [r4, #28]
 8002b8a:	e79c      	b.n	8002ac6 <HAL_TIM_IRQHandler+0x1e>
 8002b8c:	f06f 0102 	mvn.w	r1, #2
 8002b90:	2201      	movs	r2, #1
 8002b92:	6119      	str	r1, [r3, #16]
 8002b94:	7702      	strb	r2, [r0, #28]
 8002b96:	699b      	ldr	r3, [r3, #24]
 8002b98:	0799      	lsls	r1, r3, #30
 8002b9a:	d130      	bne.n	8002bfe <HAL_TIM_IRQHandler+0x156>
 8002b9c:	f7ff ff7e 	bl	8002a9c <HAL_TIM_OC_DelayElapsedCallback>
 8002ba0:	4620      	mov	r0, r4
 8002ba2:	f7ff ff7d 	bl	8002aa0 <HAL_TIM_PWM_PulseFinishedCallback>
 8002ba6:	2200      	movs	r2, #0
 8002ba8:	6823      	ldr	r3, [r4, #0]
 8002baa:	7722      	strb	r2, [r4, #28]
 8002bac:	e785      	b.n	8002aba <HAL_TIM_IRQHandler+0x12>
 8002bae:	f06f 0220 	mvn.w	r2, #32
 8002bb2:	4620      	mov	r0, r4
 8002bb4:	611a      	str	r2, [r3, #16]
 8002bb6:	e8bd 4010 	ldmia.w	sp!, {r4, lr}
 8002bba:	f000 ba41 	b.w	8003040 <HAL_TIMEx_CommutCallback>
 8002bbe:	f06f 0201 	mvn.w	r2, #1
 8002bc2:	611a      	str	r2, [r3, #16]
 8002bc4:	4620      	mov	r0, r4
 8002bc6:	f002 f97d 	bl	8004ec4 <HAL_TIM_PeriodElapsedCallback>
 8002bca:	6823      	ldr	r3, [r4, #0]
 8002bcc:	e78d      	b.n	8002aea <HAL_TIM_IRQHandler+0x42>
 8002bce:	f06f 0280 	mvn.w	r2, #128	; 0x80
 8002bd2:	611a      	str	r2, [r3, #16]
 8002bd4:	4620      	mov	r0, r4
 8002bd6:	f000 fa35 	bl	8003044 <HAL_TIMEx_BreakCallback>
 8002bda:	6823      	ldr	r3, [r4, #0]
 8002bdc:	e78b      	b.n	8002af6 <HAL_TIM_IRQHandler+0x4e>
 8002bde:	f46f 7280 	mvn.w	r2, #256	; 0x100
 8002be2:	611a      	str	r2, [r3, #16]
 8002be4:	4620      	mov	r0, r4
 8002be6:	f000 fa2f 	bl	8003048 <HAL_TIMEx_Break2Callback>
 8002bea:	6823      	ldr	r3, [r4, #0]
 8002bec:	e789      	b.n	8002b02 <HAL_TIM_IRQHandler+0x5a>
 8002bee:	f06f 0240 	mvn.w	r2, #64	; 0x40
 8002bf2:	611a      	str	r2, [r3, #16]
 8002bf4:	4620      	mov	r0, r4
 8002bf6:	f7ff ff55 	bl	8002aa4 <HAL_TIM_TriggerCallback>
 8002bfa:	6823      	ldr	r3, [r4, #0]
 8002bfc:	e787      	b.n	8002b0e <HAL_TIM_IRQHandler+0x66>
 8002bfe:	f000 fe65 	bl	80038cc <HAL_TIM_IC_CaptureCallback>
 8002c02:	e7d0      	b.n	8002ba6 <HAL_TIM_IRQHandler+0xfe>
 8002c04:	f000 fe62 	bl	80038cc <HAL_TIM_IC_CaptureCallback>
 8002c08:	e7bc      	b.n	8002b84 <HAL_TIM_IRQHandler+0xdc>
 8002c0a:	f000 fe5f 	bl	80038cc <HAL_TIM_IC_CaptureCallback>
 8002c0e:	e7a6      	b.n	8002b5e <HAL_TIM_IRQHandler+0xb6>
 8002c10:	f000 fe5c 	bl	80038cc <HAL_TIM_IC_CaptureCallback>
 8002c14:	e791      	b.n	8002b3a <HAL_TIM_IRQHandler+0x92>
 8002c16:	bf00      	nop

08002c18 <TIM_OC2_SetConfig>:
 8002c18:	6a03      	ldr	r3, [r0, #32]
 8002c1a:	f023 0310 	bic.w	r3, r3, #16
 8002c1e:	6203      	str	r3, [r0, #32]
 8002c20:	b4f0      	push	{r4, r5, r6, r7}
 8002c22:	6a03      	ldr	r3, [r0, #32]
 8002c24:	6846      	ldr	r6, [r0, #4]
 8002c26:	6982      	ldr	r2, [r0, #24]
 8002c28:	4f19      	ldr	r7, [pc, #100]	; (8002c90 <TIM_OC2_SetConfig+0x78>)
 8002c2a:	688d      	ldr	r5, [r1, #8]
 8002c2c:	680c      	ldr	r4, [r1, #0]
 8002c2e:	f022 7280 	bic.w	r2, r2, #16777216	; 0x1000000
 8002c32:	f023 0320 	bic.w	r3, r3, #32
 8002c36:	f422 42e6 	bic.w	r2, r2, #29440	; 0x7300
 8002c3a:	42b8      	cmp	r0, r7
 8002c3c:	ea43 1305 	orr.w	r3, r3, r5, lsl #4
 8002c40:	ea42 2204 	orr.w	r2, r2, r4, lsl #8
 8002c44:	d00f      	beq.n	8002c66 <TIM_OC2_SetConfig+0x4e>
 8002c46:	4c13      	ldr	r4, [pc, #76]	; (8002c94 <TIM_OC2_SetConfig+0x7c>)
 8002c48:	42a0      	cmp	r0, r4
 8002c4a:	d00c      	beq.n	8002c66 <TIM_OC2_SetConfig+0x4e>
 8002c4c:	f504 6440 	add.w	r4, r4, #3072	; 0xc00
 8002c50:	42a0      	cmp	r0, r4
 8002c52:	d00f      	beq.n	8002c74 <TIM_OC2_SetConfig+0x5c>
 8002c54:	f504 6480 	add.w	r4, r4, #1024	; 0x400
 8002c58:	42a0      	cmp	r0, r4
 8002c5a:	d00b      	beq.n	8002c74 <TIM_OC2_SetConfig+0x5c>
 8002c5c:	f504 6480 	add.w	r4, r4, #1024	; 0x400
 8002c60:	42a0      	cmp	r0, r4
 8002c62:	d10e      	bne.n	8002c82 <TIM_OC2_SetConfig+0x6a>
 8002c64:	e006      	b.n	8002c74 <TIM_OC2_SetConfig+0x5c>
 8002c66:	68cc      	ldr	r4, [r1, #12]
 8002c68:	f023 0380 	bic.w	r3, r3, #128	; 0x80
 8002c6c:	ea43 1304 	orr.w	r3, r3, r4, lsl #4
 8002c70:	f023 0340 	bic.w	r3, r3, #64	; 0x40
 8002c74:	e9d1 4505 	ldrd	r4, r5, [r1, #20]
 8002c78:	f426 6640 	bic.w	r6, r6, #3072	; 0xc00
 8002c7c:	432c      	orrs	r4, r5
 8002c7e:	ea46 0684 	orr.w	r6, r6, r4, lsl #2
 8002c82:	6849      	ldr	r1, [r1, #4]
 8002c84:	6046      	str	r6, [r0, #4]
 8002c86:	6182      	str	r2, [r0, #24]
 8002c88:	bcf0      	pop	{r4, r5, r6, r7}
 8002c8a:	6381      	str	r1, [r0, #56]	; 0x38
 8002c8c:	6203      	str	r3, [r0, #32]
 8002c8e:	4770      	bx	lr
 8002c90:	40012c00 	.word	0x40012c00
 8002c94:	40013400 	.word	0x40013400

08002c98 <HAL_TIM_PWM_ConfigChannel>:
 8002c98:	b5f8      	push	{r3, r4, r5, r6, r7, lr}
 8002c9a:	f890 303c 	ldrb.w	r3, [r0, #60]	; 0x3c
 8002c9e:	2b01      	cmp	r3, #1
 8002ca0:	f000 8134 	beq.w	8002f0c <HAL_TIM_PWM_ConfigChannel+0x274>
 8002ca4:	460d      	mov	r5, r1
 8002ca6:	2302      	movs	r3, #2
 8002ca8:	2101      	movs	r1, #1
 8002caa:	4604      	mov	r4, r0
 8002cac:	f880 103c 	strb.w	r1, [r0, #60]	; 0x3c
 8002cb0:	f880 303d 	strb.w	r3, [r0, #61]	; 0x3d
 8002cb4:	2a14      	cmp	r2, #20
 8002cb6:	d84e      	bhi.n	8002d56 <HAL_TIM_PWM_ConfigChannel+0xbe>
 8002cb8:	e8df f012 	tbh	[pc, r2, lsl #1]
 8002cbc:	004d009a 	.word	0x004d009a
 8002cc0:	004d004d 	.word	0x004d004d
 8002cc4:	004d00b2 	.word	0x004d00b2
 8002cc8:	004d004d 	.word	0x004d004d
 8002ccc:	004d00cb 	.word	0x004d00cb
 8002cd0:	004d004d 	.word	0x004d004d
 8002cd4:	004d0015 	.word	0x004d0015
 8002cd8:	004d004d 	.word	0x004d004d
 8002cdc:	004d00e3 	.word	0x004d00e3
 8002ce0:	004d004d 	.word	0x004d004d
 8002ce4:	0054      	.short	0x0054
 8002ce6:	6803      	ldr	r3, [r0, #0]
 8002ce8:	f8d5 c008 	ldr.w	ip, [r5, #8]
 8002cec:	6a18      	ldr	r0, [r3, #32]
 8002cee:	682f      	ldr	r7, [r5, #0]
 8002cf0:	4e8d      	ldr	r6, [pc, #564]	; (8002f28 <HAL_TIM_PWM_ConfigChannel+0x290>)
 8002cf2:	f420 5080 	bic.w	r0, r0, #4096	; 0x1000
 8002cf6:	6218      	str	r0, [r3, #32]
 8002cf8:	6a19      	ldr	r1, [r3, #32]
 8002cfa:	6858      	ldr	r0, [r3, #4]
 8002cfc:	69da      	ldr	r2, [r3, #28]
 8002cfe:	f022 7280 	bic.w	r2, r2, #16777216	; 0x1000000
 8002d02:	f421 5100 	bic.w	r1, r1, #8192	; 0x2000
 8002d06:	f422 42e6 	bic.w	r2, r2, #29440	; 0x7300
 8002d0a:	42b3      	cmp	r3, r6
 8002d0c:	ea41 310c 	orr.w	r1, r1, ip, lsl #12
 8002d10:	ea42 2207 	orr.w	r2, r2, r7, lsl #8
 8002d14:	d008      	beq.n	8002d28 <HAL_TIM_PWM_ConfigChannel+0x90>
 8002d16:	f506 6600 	add.w	r6, r6, #2048	; 0x800
 8002d1a:	42b3      	cmp	r3, r6
 8002d1c:	d004      	beq.n	8002d28 <HAL_TIM_PWM_ConfigChannel+0x90>
 8002d1e:	f506 6640 	add.w	r6, r6, #3072	; 0xc00
 8002d22:	42b3      	cmp	r3, r6
 8002d24:	f040 80f4 	bne.w	8002f10 <HAL_TIM_PWM_ConfigChannel+0x278>
 8002d28:	696e      	ldr	r6, [r5, #20]
 8002d2a:	f420 4080 	bic.w	r0, r0, #16384	; 0x4000
 8002d2e:	ea40 1086 	orr.w	r0, r0, r6, lsl #6
 8002d32:	686e      	ldr	r6, [r5, #4]
 8002d34:	6058      	str	r0, [r3, #4]
 8002d36:	61da      	str	r2, [r3, #28]
 8002d38:	641e      	str	r6, [r3, #64]	; 0x40
 8002d3a:	6219      	str	r1, [r3, #32]
 8002d3c:	69d9      	ldr	r1, [r3, #28]
 8002d3e:	6928      	ldr	r0, [r5, #16]
 8002d40:	f441 6100 	orr.w	r1, r1, #2048	; 0x800
 8002d44:	61d9      	str	r1, [r3, #28]
 8002d46:	69d9      	ldr	r1, [r3, #28]
 8002d48:	f421 6180 	bic.w	r1, r1, #1024	; 0x400
 8002d4c:	61d9      	str	r1, [r3, #28]
 8002d4e:	69da      	ldr	r2, [r3, #28]
 8002d50:	ea42 2200 	orr.w	r2, r2, r0, lsl #8
 8002d54:	61da      	str	r2, [r3, #28]
 8002d56:	2301      	movs	r3, #1
 8002d58:	2000      	movs	r0, #0
 8002d5a:	f884 303d 	strb.w	r3, [r4, #61]	; 0x3d
 8002d5e:	f884 003c 	strb.w	r0, [r4, #60]	; 0x3c
 8002d62:	bdf8      	pop	{r3, r4, r5, r6, r7, pc}
 8002d64:	6803      	ldr	r3, [r0, #0]
 8002d66:	f8d5 c008 	ldr.w	ip, [r5, #8]
 8002d6a:	6a18      	ldr	r0, [r3, #32]
 8002d6c:	682f      	ldr	r7, [r5, #0]
 8002d6e:	4e6e      	ldr	r6, [pc, #440]	; (8002f28 <HAL_TIM_PWM_ConfigChannel+0x290>)
 8002d70:	f420 1080 	bic.w	r0, r0, #1048576	; 0x100000
 8002d74:	6218      	str	r0, [r3, #32]
 8002d76:	6a19      	ldr	r1, [r3, #32]
 8002d78:	6858      	ldr	r0, [r3, #4]
 8002d7a:	6d5a      	ldr	r2, [r3, #84]	; 0x54
 8002d7c:	f022 7280 	bic.w	r2, r2, #16777216	; 0x1000000
 8002d80:	f421 1100 	bic.w	r1, r1, #2097152	; 0x200000
 8002d84:	f422 42e0 	bic.w	r2, r2, #28672	; 0x7000
 8002d88:	42b3      	cmp	r3, r6
 8002d8a:	ea41 510c 	orr.w	r1, r1, ip, lsl #20
 8002d8e:	ea42 2207 	orr.w	r2, r2, r7, lsl #8
 8002d92:	d00f      	beq.n	8002db4 <HAL_TIM_PWM_ConfigChannel+0x11c>
 8002d94:	f506 6600 	add.w	r6, r6, #2048	; 0x800
 8002d98:	42b3      	cmp	r3, r6
 8002d9a:	d00b      	beq.n	8002db4 <HAL_TIM_PWM_ConfigChannel+0x11c>
 8002d9c:	f506 6640 	add.w	r6, r6, #3072	; 0xc00
 8002da0:	42b3      	cmp	r3, r6
 8002da2:	d007      	beq.n	8002db4 <HAL_TIM_PWM_ConfigChannel+0x11c>
 8002da4:	f506 6680 	add.w	r6, r6, #1024	; 0x400
 8002da8:	42b3      	cmp	r3, r6
 8002daa:	d003      	beq.n	8002db4 <HAL_TIM_PWM_ConfigChannel+0x11c>
 8002dac:	f506 6680 	add.w	r6, r6, #1024	; 0x400
 8002db0:	42b3      	cmp	r3, r6
 8002db2:	d104      	bne.n	8002dbe <HAL_TIM_PWM_ConfigChannel+0x126>
 8002db4:	696e      	ldr	r6, [r5, #20]
 8002db6:	f420 2080 	bic.w	r0, r0, #262144	; 0x40000
 8002dba:	ea40 2086 	orr.w	r0, r0, r6, lsl #10
 8002dbe:	686e      	ldr	r6, [r5, #4]
 8002dc0:	6058      	str	r0, [r3, #4]
 8002dc2:	655a      	str	r2, [r3, #84]	; 0x54
 8002dc4:	65de      	str	r6, [r3, #92]	; 0x5c
 8002dc6:	6219      	str	r1, [r3, #32]
 8002dc8:	6d59      	ldr	r1, [r3, #84]	; 0x54
 8002dca:	6928      	ldr	r0, [r5, #16]
 8002dcc:	f441 6100 	orr.w	r1, r1, #2048	; 0x800
 8002dd0:	6559      	str	r1, [r3, #84]	; 0x54
 8002dd2:	6d59      	ldr	r1, [r3, #84]	; 0x54
 8002dd4:	f421 6180 	bic.w	r1, r1, #1024	; 0x400
 8002dd8:	6559      	str	r1, [r3, #84]	; 0x54
 8002dda:	6d5a      	ldr	r2, [r3, #84]	; 0x54
 8002ddc:	ea42 2200 	orr.w	r2, r2, r0, lsl #8
 8002de0:	655a      	str	r2, [r3, #84]	; 0x54
 8002de2:	2000      	movs	r0, #0
 8002de4:	2301      	movs	r3, #1
 8002de6:	f884 303d 	strb.w	r3, [r4, #61]	; 0x3d
 8002dea:	f884 003c 	strb.w	r0, [r4, #60]	; 0x3c
 8002dee:	e7b8      	b.n	8002d62 <HAL_TIM_PWM_ConfigChannel+0xca>
 8002df0:	6800      	ldr	r0, [r0, #0]
 8002df2:	4629      	mov	r1, r5
 8002df4:	f7ff fb1c 	bl	8002430 <TIM_OC1_SetConfig>
 8002df8:	6823      	ldr	r3, [r4, #0]
 8002dfa:	6928      	ldr	r0, [r5, #16]
 8002dfc:	6999      	ldr	r1, [r3, #24]
 8002dfe:	f041 0108 	orr.w	r1, r1, #8
 8002e02:	6199      	str	r1, [r3, #24]
 8002e04:	6999      	ldr	r1, [r3, #24]
 8002e06:	f021 0104 	bic.w	r1, r1, #4
 8002e0a:	6199      	str	r1, [r3, #24]
 8002e0c:	699a      	ldr	r2, [r3, #24]
 8002e0e:	4302      	orrs	r2, r0
 8002e10:	619a      	str	r2, [r3, #24]
 8002e12:	2000      	movs	r0, #0
 8002e14:	2301      	movs	r3, #1
 8002e16:	f884 303d 	strb.w	r3, [r4, #61]	; 0x3d
 8002e1a:	f884 003c 	strb.w	r0, [r4, #60]	; 0x3c
 8002e1e:	e7a0      	b.n	8002d62 <HAL_TIM_PWM_ConfigChannel+0xca>
 8002e20:	6800      	ldr	r0, [r0, #0]
 8002e22:	4629      	mov	r1, r5
 8002e24:	f7ff fef8 	bl	8002c18 <TIM_OC2_SetConfig>
 8002e28:	6823      	ldr	r3, [r4, #0]
 8002e2a:	6928      	ldr	r0, [r5, #16]
 8002e2c:	6999      	ldr	r1, [r3, #24]
 8002e2e:	f441 6100 	orr.w	r1, r1, #2048	; 0x800
 8002e32:	6199      	str	r1, [r3, #24]
 8002e34:	6999      	ldr	r1, [r3, #24]
 8002e36:	f421 6180 	bic.w	r1, r1, #1024	; 0x400
 8002e3a:	6199      	str	r1, [r3, #24]
 8002e3c:	699a      	ldr	r2, [r3, #24]
 8002e3e:	ea42 2200 	orr.w	r2, r2, r0, lsl #8
 8002e42:	619a      	str	r2, [r3, #24]
 8002e44:	2000      	movs	r0, #0
 8002e46:	2301      	movs	r3, #1
 8002e48:	f884 303d 	strb.w	r3, [r4, #61]	; 0x3d
 8002e4c:	f884 003c 	strb.w	r0, [r4, #60]	; 0x3c
 8002e50:	e787      	b.n	8002d62 <HAL_TIM_PWM_ConfigChannel+0xca>
 8002e52:	6800      	ldr	r0, [r0, #0]
 8002e54:	4629      	mov	r1, r5
 8002e56:	f7ff fb29 	bl	80024ac <TIM_OC3_SetConfig>
 8002e5a:	6823      	ldr	r3, [r4, #0]
 8002e5c:	6928      	ldr	r0, [r5, #16]
 8002e5e:	69d9      	ldr	r1, [r3, #28]
 8002e60:	f041 0108 	orr.w	r1, r1, #8
 8002e64:	61d9      	str	r1, [r3, #28]
 8002e66:	69d9      	ldr	r1, [r3, #28]
 8002e68:	f021 0104 	bic.w	r1, r1, #4
 8002e6c:	61d9      	str	r1, [r3, #28]
 8002e6e:	69da      	ldr	r2, [r3, #28]
 8002e70:	4302      	orrs	r2, r0
 8002e72:	61da      	str	r2, [r3, #28]
 8002e74:	2000      	movs	r0, #0
 8002e76:	2301      	movs	r3, #1
 8002e78:	f884 303d 	strb.w	r3, [r4, #61]	; 0x3d
 8002e7c:	f884 003c 	strb.w	r0, [r4, #60]	; 0x3c
 8002e80:	e76f      	b.n	8002d62 <HAL_TIM_PWM_ConfigChannel+0xca>
 8002e82:	6803      	ldr	r3, [r0, #0]
 8002e84:	f8d5 c008 	ldr.w	ip, [r5, #8]
 8002e88:	6a18      	ldr	r0, [r3, #32]
 8002e8a:	682f      	ldr	r7, [r5, #0]
 8002e8c:	4e26      	ldr	r6, [pc, #152]	; (8002f28 <HAL_TIM_PWM_ConfigChannel+0x290>)
 8002e8e:	f420 3080 	bic.w	r0, r0, #65536	; 0x10000
 8002e92:	6218      	str	r0, [r3, #32]
 8002e94:	6a19      	ldr	r1, [r3, #32]
 8002e96:	6858      	ldr	r0, [r3, #4]
 8002e98:	6d5a      	ldr	r2, [r3, #84]	; 0x54
 8002e9a:	f422 3280 	bic.w	r2, r2, #65536	; 0x10000
 8002e9e:	f421 3100 	bic.w	r1, r1, #131072	; 0x20000
 8002ea2:	f022 0270 	bic.w	r2, r2, #112	; 0x70
 8002ea6:	42b3      	cmp	r3, r6
 8002ea8:	ea41 410c 	orr.w	r1, r1, ip, lsl #16
 8002eac:	ea42 0207 	orr.w	r2, r2, r7
 8002eb0:	d00f      	beq.n	8002ed2 <HAL_TIM_PWM_ConfigChannel+0x23a>
 8002eb2:	f506 6600 	add.w	r6, r6, #2048	; 0x800
 8002eb6:	42b3      	cmp	r3, r6
 8002eb8:	d00b      	beq.n	8002ed2 <HAL_TIM_PWM_ConfigChannel+0x23a>
 8002eba:	f506 6640 	add.w	r6, r6, #3072	; 0xc00
 8002ebe:	42b3      	cmp	r3, r6
 8002ec0:	d007      	beq.n	8002ed2 <HAL_TIM_PWM_ConfigChannel+0x23a>
 8002ec2:	f506 6680 	add.w	r6, r6, #1024	; 0x400
 8002ec6:	42b3      	cmp	r3, r6
 8002ec8:	d003      	beq.n	8002ed2 <HAL_TIM_PWM_ConfigChannel+0x23a>
 8002eca:	f506 6680 	add.w	r6, r6, #1024	; 0x400
 8002ece:	42b3      	cmp	r3, r6
 8002ed0:	d104      	bne.n	8002edc <HAL_TIM_PWM_ConfigChannel+0x244>
 8002ed2:	696e      	ldr	r6, [r5, #20]
 8002ed4:	f420 3080 	bic.w	r0, r0, #65536	; 0x10000
 8002ed8:	ea40 2006 	orr.w	r0, r0, r6, lsl #8
 8002edc:	686e      	ldr	r6, [r5, #4]
 8002ede:	6058      	str	r0, [r3, #4]
 8002ee0:	655a      	str	r2, [r3, #84]	; 0x54
 8002ee2:	659e      	str	r6, [r3, #88]	; 0x58
 8002ee4:	6219      	str	r1, [r3, #32]
 8002ee6:	6d59      	ldr	r1, [r3, #84]	; 0x54
 8002ee8:	6928      	ldr	r0, [r5, #16]
 8002eea:	f041 0108 	orr.w	r1, r1, #8
 8002eee:	6559      	str	r1, [r3, #84]	; 0x54
 8002ef0:	6d59      	ldr	r1, [r3, #84]	; 0x54
 8002ef2:	f021 0104 	bic.w	r1, r1, #4
 8002ef6:	6559      	str	r1, [r3, #84]	; 0x54
 8002ef8:	6d5a      	ldr	r2, [r3, #84]	; 0x54
 8002efa:	4302      	orrs	r2, r0
 8002efc:	655a      	str	r2, [r3, #84]	; 0x54
 8002efe:	2000      	movs	r0, #0
 8002f00:	2301      	movs	r3, #1
 8002f02:	f884 303d 	strb.w	r3, [r4, #61]	; 0x3d
 8002f06:	f884 003c 	strb.w	r0, [r4, #60]	; 0x3c
 8002f0a:	e72a      	b.n	8002d62 <HAL_TIM_PWM_ConfigChannel+0xca>
 8002f0c:	2002      	movs	r0, #2
 8002f0e:	bdf8      	pop	{r3, r4, r5, r6, r7, pc}
 8002f10:	f506 6680 	add.w	r6, r6, #1024	; 0x400
 8002f14:	42b3      	cmp	r3, r6
 8002f16:	f43f af07 	beq.w	8002d28 <HAL_TIM_PWM_ConfigChannel+0x90>
 8002f1a:	f506 6680 	add.w	r6, r6, #1024	; 0x400
 8002f1e:	42b3      	cmp	r3, r6
 8002f20:	f47f af07 	bne.w	8002d32 <HAL_TIM_PWM_ConfigChannel+0x9a>
 8002f24:	e700      	b.n	8002d28 <HAL_TIM_PWM_ConfigChannel+0x90>
 8002f26:	bf00      	nop
 8002f28:	40012c00 	.word	0x40012c00

08002f2c <HAL_TIMEx_MasterConfigSynchronization>:
 8002f2c:	f890 303c 	ldrb.w	r3, [r0, #60]	; 0x3c
 8002f30:	2b01      	cmp	r3, #1
 8002f32:	d038      	beq.n	8002fa6 <HAL_TIMEx_MasterConfigSynchronization+0x7a>
 8002f34:	b470      	push	{r4, r5, r6}
 8002f36:	6802      	ldr	r2, [r0, #0]
 8002f38:	4c1c      	ldr	r4, [pc, #112]	; (8002fac <HAL_TIMEx_MasterConfigSynchronization+0x80>)
 8002f3a:	2302      	movs	r3, #2
 8002f3c:	f880 303d 	strb.w	r3, [r0, #61]	; 0x3d
 8002f40:	42a2      	cmp	r2, r4
 8002f42:	6853      	ldr	r3, [r2, #4]
 8002f44:	6895      	ldr	r5, [r2, #8]
 8002f46:	d024      	beq.n	8002f92 <HAL_TIMEx_MasterConfigSynchronization+0x66>
 8002f48:	f504 6400 	add.w	r4, r4, #2048	; 0x800
 8002f4c:	42a2      	cmp	r2, r4
 8002f4e:	d020      	beq.n	8002f92 <HAL_TIMEx_MasterConfigSynchronization+0x66>
 8002f50:	680c      	ldr	r4, [r1, #0]
 8002f52:	f023 0370 	bic.w	r3, r3, #112	; 0x70
 8002f56:	4323      	orrs	r3, r4
 8002f58:	f1b2 4f80 	cmp.w	r2, #1073741824	; 0x40000000
 8002f5c:	6053      	str	r3, [r2, #4]
 8002f5e:	d00a      	beq.n	8002f76 <HAL_TIMEx_MasterConfigSynchronization+0x4a>
 8002f60:	4b13      	ldr	r3, [pc, #76]	; (8002fb0 <HAL_TIMEx_MasterConfigSynchronization+0x84>)
 8002f62:	429a      	cmp	r2, r3
 8002f64:	d007      	beq.n	8002f76 <HAL_TIMEx_MasterConfigSynchronization+0x4a>
 8002f66:	f503 6380 	add.w	r3, r3, #1024	; 0x400
 8002f6a:	429a      	cmp	r2, r3
 8002f6c:	d003      	beq.n	8002f76 <HAL_TIMEx_MasterConfigSynchronization+0x4a>
 8002f6e:	f503 339c 	add.w	r3, r3, #79872	; 0x13800
 8002f72:	429a      	cmp	r2, r3
 8002f74:	d104      	bne.n	8002f80 <HAL_TIMEx_MasterConfigSynchronization+0x54>
 8002f76:	688b      	ldr	r3, [r1, #8]
 8002f78:	f025 0580 	bic.w	r5, r5, #128	; 0x80
 8002f7c:	431d      	orrs	r5, r3
 8002f7e:	6095      	str	r5, [r2, #8]
 8002f80:	2300      	movs	r3, #0
 8002f82:	2201      	movs	r2, #1
 8002f84:	f880 203d 	strb.w	r2, [r0, #61]	; 0x3d
 8002f88:	f880 303c 	strb.w	r3, [r0, #60]	; 0x3c
 8002f8c:	bc70      	pop	{r4, r5, r6}
 8002f8e:	4618      	mov	r0, r3
 8002f90:	4770      	bx	lr
 8002f92:	e9d1 4600 	ldrd	r4, r6, [r1]
 8002f96:	f423 0370 	bic.w	r3, r3, #15728640	; 0xf00000
 8002f9a:	4333      	orrs	r3, r6
 8002f9c:	f023 0370 	bic.w	r3, r3, #112	; 0x70
 8002fa0:	4323      	orrs	r3, r4
 8002fa2:	6053      	str	r3, [r2, #4]
 8002fa4:	e7e7      	b.n	8002f76 <HAL_TIMEx_MasterConfigSynchronization+0x4a>
 8002fa6:	2002      	movs	r0, #2
 8002fa8:	4770      	bx	lr
 8002faa:	bf00      	nop
 8002fac:	40012c00 	.word	0x40012c00
 8002fb0:	40000400 	.word	0x40000400

08002fb4 <HAL_TIMEx_ConfigBreakDeadTime>:
 8002fb4:	f890 303c 	ldrb.w	r3, [r0, #60]	; 0x3c
 8002fb8:	2b01      	cmp	r3, #1
 8002fba:	d03c      	beq.n	8003036 <HAL_TIMEx_ConfigBreakDeadTime+0x82>
 8002fbc:	b430      	push	{r4, r5}
 8002fbe:	e9d1 5302 	ldrd	r5, r3, [r1, #8]
 8002fc2:	4602      	mov	r2, r0
 8002fc4:	f423 7340 	bic.w	r3, r3, #768	; 0x300
 8002fc8:	e9d1 0400 	ldrd	r0, r4, [r1]
 8002fcc:	432b      	orrs	r3, r5
 8002fce:	f423 6380 	bic.w	r3, r3, #1024	; 0x400
 8002fd2:	4323      	orrs	r3, r4
 8002fd4:	f423 6300 	bic.w	r3, r3, #2048	; 0x800
 8002fd8:	e9d1 5404 	ldrd	r5, r4, [r1, #16]
 8002fdc:	4303      	orrs	r3, r0
 8002fde:	f423 5380 	bic.w	r3, r3, #4096	; 0x1000
 8002fe2:	432b      	orrs	r3, r5
 8002fe4:	f423 5300 	bic.w	r3, r3, #8192	; 0x2000
 8002fe8:	6a88      	ldr	r0, [r1, #40]	; 0x28
 8002fea:	698d      	ldr	r5, [r1, #24]
 8002fec:	4323      	orrs	r3, r4
 8002fee:	f423 4380 	bic.w	r3, r3, #16384	; 0x4000
 8002ff2:	4303      	orrs	r3, r0
 8002ff4:	4c11      	ldr	r4, [pc, #68]	; (800303c <HAL_TIMEx_ConfigBreakDeadTime+0x88>)
 8002ff6:	6810      	ldr	r0, [r2, #0]
 8002ff8:	f423 2370 	bic.w	r3, r3, #983040	; 0xf0000
 8002ffc:	42a0      	cmp	r0, r4
 8002ffe:	ea43 4305 	orr.w	r3, r3, r5, lsl #16
 8003002:	d00a      	beq.n	800301a <HAL_TIMEx_ConfigBreakDeadTime+0x66>
 8003004:	f504 6400 	add.w	r4, r4, #2048	; 0x800
 8003008:	42a0      	cmp	r0, r4
 800300a:	d006      	beq.n	800301a <HAL_TIMEx_ConfigBreakDeadTime+0x66>
 800300c:	2100      	movs	r1, #0
 800300e:	6443      	str	r3, [r0, #68]	; 0x44
 8003010:	f882 103c 	strb.w	r1, [r2, #60]	; 0x3c
 8003014:	4608      	mov	r0, r1
 8003016:	bc30      	pop	{r4, r5}
 8003018:	4770      	bx	lr
 800301a:	6a4d      	ldr	r5, [r1, #36]	; 0x24
 800301c:	f423 0370 	bic.w	r3, r3, #15728640	; 0xf00000
 8003020:	e9d1 4107 	ldrd	r4, r1, [r1, #28]
 8003024:	ea43 5305 	orr.w	r3, r3, r5, lsl #20
 8003028:	f023 7380 	bic.w	r3, r3, #16777216	; 0x1000000
 800302c:	4323      	orrs	r3, r4
 800302e:	f023 7300 	bic.w	r3, r3, #33554432	; 0x2000000
 8003032:	430b      	orrs	r3, r1
 8003034:	e7ea      	b.n	800300c <HAL_TIMEx_ConfigBreakDeadTime+0x58>
 8003036:	2002      	movs	r0, #2
 8003038:	4770      	bx	lr
 800303a:	bf00      	nop
 800303c:	40012c00 	.word	0x40012c00

08003040 <HAL_TIMEx_CommutCallback>:
 8003040:	4770      	bx	lr
 8003042:	bf00      	nop

08003044 <HAL_TIMEx_BreakCallback>:
 8003044:	4770      	bx	lr
 8003046:	bf00      	nop

08003048 <HAL_TIMEx_Break2Callback>:
 8003048:	4770      	bx	lr
 800304a:	bf00      	nop

0800304c <FANS_UpdateCyrrentDays>:
 800304c:	b430      	push	{r4, r5}
 800304e:	4b76      	ldr	r3, [pc, #472]	; (8003228 <FANS_UpdateCyrrentDays+0x1dc>)
 8003050:	4a76      	ldr	r2, [pc, #472]	; (800322c <FANS_UpdateCyrrentDays+0x1e0>)
 8003052:	f893 007f 	ldrb.w	r0, [r3, #127]	; 0x7f
 8003056:	f893 1081 	ldrb.w	r1, [r3, #129]	; 0x81
 800305a:	f893 5083 	ldrb.w	r5, [r3, #131]	; 0x83
 800305e:	7812      	ldrb	r2, [r2, #0]
 8003060:	f893 4085 	ldrb.w	r4, [r3, #133]	; 0x85
 8003064:	4401      	add	r1, r0
 8003066:	7918      	ldrb	r0, [r3, #4]
 8003068:	4429      	add	r1, r5
 800306a:	4421      	add	r1, r4
 800306c:	1a10      	subs	r0, r2, r0
 800306e:	b2c9      	uxtb	r1, r1
 8003070:	b2c0      	uxtb	r0, r0
 8003072:	4281      	cmp	r1, r0
 8003074:	f240 80a0 	bls.w	80031b8 <FANS_UpdateCyrrentDays+0x16c>
 8003078:	7098      	strb	r0, [r3, #2]
 800307a:	f893 0107 	ldrb.w	r0, [r3, #263]	; 0x107
 800307e:	f893 1105 	ldrb.w	r1, [r3, #261]	; 0x105
 8003082:	f893 5109 	ldrb.w	r5, [r3, #265]	; 0x109
 8003086:	f893 410b 	ldrb.w	r4, [r3, #267]	; 0x10b
 800308a:	4401      	add	r1, r0
 800308c:	f893 008a 	ldrb.w	r0, [r3, #138]	; 0x8a
 8003090:	4429      	add	r1, r5
 8003092:	4421      	add	r1, r4
 8003094:	1a10      	subs	r0, r2, r0
 8003096:	b2c9      	uxtb	r1, r1
 8003098:	b2c0      	uxtb	r0, r0
 800309a:	4281      	cmp	r1, r0
 800309c:	f240 8083 	bls.w	80031a6 <FANS_UpdateCyrrentDays+0x15a>
 80030a0:	f883 0088 	strb.w	r0, [r3, #136]	; 0x88
 80030a4:	f893 018d 	ldrb.w	r0, [r3, #397]	; 0x18d
 80030a8:	f893 118b 	ldrb.w	r1, [r3, #395]	; 0x18b
 80030ac:	f893 518f 	ldrb.w	r5, [r3, #399]	; 0x18f
 80030b0:	f893 4191 	ldrb.w	r4, [r3, #401]	; 0x191
 80030b4:	4401      	add	r1, r0
 80030b6:	f893 0110 	ldrb.w	r0, [r3, #272]	; 0x110
 80030ba:	4429      	add	r1, r5
 80030bc:	4421      	add	r1, r4
 80030be:	1a10      	subs	r0, r2, r0
 80030c0:	b2c9      	uxtb	r1, r1
 80030c2:	b2c0      	uxtb	r0, r0
 80030c4:	4281      	cmp	r1, r0
 80030c6:	f240 8087 	bls.w	80031d8 <FANS_UpdateCyrrentDays+0x18c>
 80030ca:	f883 010e 	strb.w	r0, [r3, #270]	; 0x10e
 80030ce:	f893 0213 	ldrb.w	r0, [r3, #531]	; 0x213
 80030d2:	f893 1211 	ldrb.w	r1, [r3, #529]	; 0x211
 80030d6:	f893 5215 	ldrb.w	r5, [r3, #533]	; 0x215
 80030da:	f893 4217 	ldrb.w	r4, [r3, #535]	; 0x217
 80030de:	4401      	add	r1, r0
 80030e0:	f893 0196 	ldrb.w	r0, [r3, #406]	; 0x196
 80030e4:	4429      	add	r1, r5
 80030e6:	4421      	add	r1, r4
 80030e8:	1a10      	subs	r0, r2, r0
 80030ea:	b2c9      	uxtb	r1, r1
 80030ec:	b2c0      	uxtb	r0, r0
 80030ee:	4281      	cmp	r1, r0
 80030f0:	d969      	bls.n	80031c6 <FANS_UpdateCyrrentDays+0x17a>
 80030f2:	f883 0194 	strb.w	r0, [r3, #404]	; 0x194
 80030f6:	f893 0299 	ldrb.w	r0, [r3, #665]	; 0x299
 80030fa:	f893 1297 	ldrb.w	r1, [r3, #663]	; 0x297
 80030fe:	f893 529b 	ldrb.w	r5, [r3, #667]	; 0x29b
 8003102:	f893 429d 	ldrb.w	r4, [r3, #669]	; 0x29d
 8003106:	4401      	add	r1, r0
 8003108:	f893 021c 	ldrb.w	r0, [r3, #540]	; 0x21c
 800310c:	4429      	add	r1, r5
 800310e:	4421      	add	r1, r4
 8003110:	1a10      	subs	r0, r2, r0
 8003112:	b2c9      	uxtb	r1, r1
 8003114:	b2c0      	uxtb	r0, r0
 8003116:	4281      	cmp	r1, r0
 8003118:	d97d      	bls.n	8003216 <FANS_UpdateCyrrentDays+0x1ca>
 800311a:	f883 021a 	strb.w	r0, [r3, #538]	; 0x21a
 800311e:	f893 031f 	ldrb.w	r0, [r3, #799]	; 0x31f
 8003122:	f893 131d 	ldrb.w	r1, [r3, #797]	; 0x31d
 8003126:	f893 5321 	ldrb.w	r5, [r3, #801]	; 0x321
 800312a:	f893 4323 	ldrb.w	r4, [r3, #803]	; 0x323
 800312e:	4401      	add	r1, r0
 8003130:	f893 02a2 	ldrb.w	r0, [r3, #674]	; 0x2a2
 8003134:	4429      	add	r1, r5
 8003136:	4421      	add	r1, r4
 8003138:	1a10      	subs	r0, r2, r0
 800313a:	b2c9      	uxtb	r1, r1
 800313c:	b2c0      	uxtb	r0, r0
 800313e:	4281      	cmp	r1, r0
 8003140:	d960      	bls.n	8003204 <FANS_UpdateCyrrentDays+0x1b8>
 8003142:	f883 02a0 	strb.w	r0, [r3, #672]	; 0x2a0
 8003146:	f893 03a5 	ldrb.w	r0, [r3, #933]	; 0x3a5
 800314a:	f893 13a3 	ldrb.w	r1, [r3, #931]	; 0x3a3
 800314e:	f893 53a7 	ldrb.w	r5, [r3, #935]	; 0x3a7
 8003152:	f893 43a9 	ldrb.w	r4, [r3, #937]	; 0x3a9
 8003156:	4401      	add	r1, r0
 8003158:	f893 0328 	ldrb.w	r0, [r3, #808]	; 0x328
 800315c:	4429      	add	r1, r5
 800315e:	4421      	add	r1, r4
 8003160:	1a10      	subs	r0, r2, r0
 8003162:	b2c9      	uxtb	r1, r1
 8003164:	b2c0      	uxtb	r0, r0
 8003166:	4281      	cmp	r1, r0
 8003168:	d943      	bls.n	80031f2 <FANS_UpdateCyrrentDays+0x1a6>
 800316a:	f883 0326 	strb.w	r0, [r3, #806]	; 0x326
 800316e:	f893 042b 	ldrb.w	r0, [r3, #1067]	; 0x42b
 8003172:	f893 1429 	ldrb.w	r1, [r3, #1065]	; 0x429
 8003176:	f893 542d 	ldrb.w	r5, [r3, #1069]	; 0x42d
 800317a:	f893 442f 	ldrb.w	r4, [r3, #1071]	; 0x42f
 800317e:	4401      	add	r1, r0
 8003180:	f893 03ae 	ldrb.w	r0, [r3, #942]	; 0x3ae
 8003184:	4429      	add	r1, r5
 8003186:	4421      	add	r1, r4
 8003188:	1a12      	subs	r2, r2, r0
 800318a:	b2c9      	uxtb	r1, r1
 800318c:	b2d2      	uxtb	r2, r2
 800318e:	4291      	cmp	r1, r2
 8003190:	d82b      	bhi.n	80031ea <FANS_UpdateCyrrentDays+0x19e>
 8003192:	b109      	cbz	r1, 8003198 <FANS_UpdateCyrrentDays+0x14c>
 8003194:	3901      	subs	r1, #1
 8003196:	b2c9      	uxtb	r1, r1
 8003198:	2200      	movs	r2, #0
 800319a:	f883 13ac 	strb.w	r1, [r3, #940]	; 0x3ac
 800319e:	f883 23ab 	strb.w	r2, [r3, #939]	; 0x3ab
 80031a2:	bc30      	pop	{r4, r5}
 80031a4:	4770      	bx	lr
 80031a6:	b109      	cbz	r1, 80031ac <FANS_UpdateCyrrentDays+0x160>
 80031a8:	3901      	subs	r1, #1
 80031aa:	b2c9      	uxtb	r1, r1
 80031ac:	2000      	movs	r0, #0
 80031ae:	f883 1088 	strb.w	r1, [r3, #136]	; 0x88
 80031b2:	f883 0087 	strb.w	r0, [r3, #135]	; 0x87
 80031b6:	e775      	b.n	80030a4 <FANS_UpdateCyrrentDays+0x58>
 80031b8:	b109      	cbz	r1, 80031be <FANS_UpdateCyrrentDays+0x172>
 80031ba:	3901      	subs	r1, #1
 80031bc:	b2c9      	uxtb	r1, r1
 80031be:	2000      	movs	r0, #0
 80031c0:	7099      	strb	r1, [r3, #2]
 80031c2:	7058      	strb	r0, [r3, #1]
 80031c4:	e759      	b.n	800307a <FANS_UpdateCyrrentDays+0x2e>
 80031c6:	b109      	cbz	r1, 80031cc <FANS_UpdateCyrrentDays+0x180>
 80031c8:	3901      	subs	r1, #1
 80031ca:	b2c9      	uxtb	r1, r1
 80031cc:	2000      	movs	r0, #0
 80031ce:	f883 1194 	strb.w	r1, [r3, #404]	; 0x194
 80031d2:	f883 0193 	strb.w	r0, [r3, #403]	; 0x193
 80031d6:	e78e      	b.n	80030f6 <FANS_UpdateCyrrentDays+0xaa>
 80031d8:	b109      	cbz	r1, 80031de <FANS_UpdateCyrrentDays+0x192>
 80031da:	3901      	subs	r1, #1
 80031dc:	b2c9      	uxtb	r1, r1
 80031de:	2000      	movs	r0, #0
 80031e0:	f883 110e 	strb.w	r1, [r3, #270]	; 0x10e
 80031e4:	f883 010d 	strb.w	r0, [r3, #269]	; 0x10d
 80031e8:	e771      	b.n	80030ce <FANS_UpdateCyrrentDays+0x82>
 80031ea:	f883 23ac 	strb.w	r2, [r3, #940]	; 0x3ac
 80031ee:	bc30      	pop	{r4, r5}
 80031f0:	4770      	bx	lr
 80031f2:	b109      	cbz	r1, 80031f8 <FANS_UpdateCyrrentDays+0x1ac>
 80031f4:	3901      	subs	r1, #1
 80031f6:	b2c9      	uxtb	r1, r1
 80031f8:	2000      	movs	r0, #0
 80031fa:	f883 1326 	strb.w	r1, [r3, #806]	; 0x326
 80031fe:	f883 0325 	strb.w	r0, [r3, #805]	; 0x325
 8003202:	e7b4      	b.n	800316e <FANS_UpdateCyrrentDays+0x122>
 8003204:	b109      	cbz	r1, 800320a <FANS_UpdateCyrrentDays+0x1be>
 8003206:	3901      	subs	r1, #1
 8003208:	b2c9      	uxtb	r1, r1
 800320a:	2000      	movs	r0, #0
 800320c:	f883 12a0 	strb.w	r1, [r3, #672]	; 0x2a0
 8003210:	f883 029f 	strb.w	r0, [r3, #671]	; 0x29f
 8003214:	e797      	b.n	8003146 <FANS_UpdateCyrrentDays+0xfa>
 8003216:	b109      	cbz	r1, 800321c <FANS_UpdateCyrrentDays+0x1d0>
 8003218:	3901      	subs	r1, #1
 800321a:	b2c9      	uxtb	r1, r1
 800321c:	2000      	movs	r0, #0
 800321e:	f883 121a 	strb.w	r1, [r3, #538]	; 0x21a
 8003222:	f883 0219 	strb.w	r0, [r3, #537]	; 0x219
 8003226:	e77a      	b.n	800311e <FANS_UpdateCyrrentDays+0xd2>
 8003228:	20001308 	.word	0x20001308
 800322c:	200000ae 	.word	0x200000ae

08003230 <FANS_Toggle>:
 8003230:	7c43      	ldrb	r3, [r0, #17]
 8003232:	4a05      	ldr	r2, [pc, #20]	; (8003248 <FANS_Toggle+0x18>)
 8003234:	2186      	movs	r1, #134	; 0x86
 8003236:	3b01      	subs	r3, #1
 8003238:	fb01 2303 	mla	r3, r1, r3, r2
 800323c:	785a      	ldrb	r2, [r3, #1]
 800323e:	fab2 f282 	clz	r2, r2
 8003242:	0952      	lsrs	r2, r2, #5
 8003244:	705a      	strb	r2, [r3, #1]
 8003246:	4770      	bx	lr
 8003248:	20001308 	.word	0x20001308

0800324c <FANS_UpdateFirstDay>:
 800324c:	b410      	push	{r4}
 800324e:	7c43      	ldrb	r3, [r0, #17]
 8003250:	4906      	ldr	r1, [pc, #24]	; (800326c <FANS_UpdateFirstDay+0x20>)
 8003252:	4a07      	ldr	r2, [pc, #28]	; (8003270 <FANS_UpdateFirstDay+0x24>)
 8003254:	2486      	movs	r4, #134	; 0x86
 8003256:	3b01      	subs	r3, #1
 8003258:	fb04 1303 	mla	r3, r4, r3, r1
 800325c:	8812      	ldrh	r2, [r2, #0]
 800325e:	809a      	strh	r2, [r3, #4]
 8003260:	2200      	movs	r2, #0
 8003262:	709a      	strb	r2, [r3, #2]
 8003264:	f85d 4b04 	ldr.w	r4, [sp], #4
 8003268:	4770      	bx	lr
 800326a:	bf00      	nop
 800326c:	20001308 	.word	0x20001308
 8003270:	200000ae 	.word	0x200000ae

08003274 <FANS_FillProgram>:
 8003274:	e92d 43f8 	stmdb	sp!, {r3, r4, r5, r6, r7, r8, r9, lr}
 8003278:	4d1e      	ldr	r5, [pc, #120]	; (80032f4 <FANS_FillProgram+0x80>)
 800327a:	4681      	mov	r9, r0
 800327c:	f1a5 0806 	sub.w	r8, r5, #6
 8003280:	2700      	movs	r7, #0
 8003282:	f895 6079 	ldrb.w	r6, [r5, #121]	; 0x79
 8003286:	b12e      	cbz	r6, 8003294 <FANS_FillProgram+0x20>
 8003288:	f895 1078 	ldrb.w	r1, [r5, #120]	; 0x78
 800328c:	4632      	mov	r2, r6
 800328e:	4628      	mov	r0, r5
 8003290:	f004 fd0a 	bl	8007ca8 <memset>
 8003294:	f895 407b 	ldrb.w	r4, [r5, #123]	; 0x7b
 8003298:	4434      	add	r4, r6
 800329a:	b2e4      	uxtb	r4, r4
 800329c:	42b4      	cmp	r4, r6
 800329e:	dd07      	ble.n	80032b0 <FANS_FillProgram+0x3c>
 80032a0:	1db8      	adds	r0, r7, #6
 80032a2:	4430      	add	r0, r6
 80032a4:	f895 107a 	ldrb.w	r1, [r5, #122]	; 0x7a
 80032a8:	4440      	add	r0, r8
 80032aa:	1ba2      	subs	r2, r4, r6
 80032ac:	f004 fcfc 	bl	8007ca8 <memset>
 80032b0:	f895 607d 	ldrb.w	r6, [r5, #125]	; 0x7d
 80032b4:	4426      	add	r6, r4
 80032b6:	42b4      	cmp	r4, r6
 80032b8:	da07      	bge.n	80032ca <FANS_FillProgram+0x56>
 80032ba:	1db8      	adds	r0, r7, #6
 80032bc:	4420      	add	r0, r4
 80032be:	f895 107c 	ldrb.w	r1, [r5, #124]	; 0x7c
 80032c2:	4440      	add	r0, r8
 80032c4:	1b32      	subs	r2, r6, r4
 80032c6:	f004 fcef 	bl	8007ca8 <memset>
 80032ca:	b2f6      	uxtb	r6, r6
 80032cc:	2e77      	cmp	r6, #119	; 0x77
 80032ce:	d808      	bhi.n	80032e2 <FANS_FillProgram+0x6e>
 80032d0:	1db8      	adds	r0, r7, #6
 80032d2:	4430      	add	r0, r6
 80032d4:	f895 107e 	ldrb.w	r1, [r5, #126]	; 0x7e
 80032d8:	4440      	add	r0, r8
 80032da:	f1c6 0278 	rsb	r2, r6, #120	; 0x78
 80032de:	f004 fce3 	bl	8007ca8 <memset>
 80032e2:	3786      	adds	r7, #134	; 0x86
 80032e4:	f5b7 6f86 	cmp.w	r7, #1072	; 0x430
 80032e8:	f105 0586 	add.w	r5, r5, #134	; 0x86
 80032ec:	d1c9      	bne.n	8003282 <FANS_FillProgram+0xe>
 80032ee:	4648      	mov	r0, r9
 80032f0:	e8bd 83f8 	ldmia.w	sp!, {r3, r4, r5, r6, r7, r8, r9, pc}
 80032f4:	2000130e 	.word	0x2000130e

080032f8 <FANS_ResetSettings>:
 80032f8:	b570      	push	{r4, r5, r6, lr}
 80032fa:	4a35      	ldr	r2, [pc, #212]	; (80033d0 <FANS_ResetSettings+0xd8>)
 80032fc:	4c35      	ldr	r4, [pc, #212]	; (80033d4 <FANS_ResetSettings+0xdc>)
 80032fe:	4d36      	ldr	r5, [pc, #216]	; (80033d8 <FANS_ResetSettings+0xe0>)
 8003300:	4e36      	ldr	r6, [pc, #216]	; (80033dc <FANS_ResetSettings+0xe4>)
 8003302:	4937      	ldr	r1, [pc, #220]	; (80033e0 <FANS_ResetSettings+0xe8>)
 8003304:	2300      	movs	r3, #0
 8003306:	b082      	sub	sp, #8
 8003308:	8023      	strh	r3, [r4, #0]
 800330a:	70a3      	strb	r3, [r4, #2]
 800330c:	7033      	strb	r3, [r6, #0]
 800330e:	802b      	strh	r3, [r5, #0]
 8003310:	70ab      	strb	r3, [r5, #2]
 8003312:	62d3      	str	r3, [r2, #44]	; 0x2c
 8003314:	4a33      	ldr	r2, [pc, #204]	; (80033e4 <FANS_ResetSettings+0xec>)
 8003316:	6163      	str	r3, [r4, #20]
 8003318:	4c33      	ldr	r4, [pc, #204]	; (80033e8 <FANS_ResetSettings+0xf0>)
 800331a:	8809      	ldrh	r1, [r1, #0]
 800331c:	616b      	str	r3, [r5, #20]
 800331e:	4d33      	ldr	r5, [pc, #204]	; (80033ec <FANS_ResetSettings+0xf4>)
 8003320:	9001      	str	r0, [sp, #4]
 8003322:	8091      	strh	r1, [r2, #4]
 8003324:	f8a2 108a 	strh.w	r1, [r2, #138]	; 0x8a
 8003328:	f8a2 1110 	strh.w	r1, [r2, #272]	; 0x110
 800332c:	f8a2 1196 	strh.w	r1, [r2, #406]	; 0x196
 8003330:	6023      	str	r3, [r4, #0]
 8003332:	7093      	strb	r3, [r2, #2]
 8003334:	7053      	strb	r3, [r2, #1]
 8003336:	f8c2 307e 	str.w	r3, [r2, #126]	; 0x7e
 800333a:	f8c2 3082 	str.w	r3, [r2, #130]	; 0x82
 800333e:	f882 3088 	strb.w	r3, [r2, #136]	; 0x88
 8003342:	f882 3087 	strb.w	r3, [r2, #135]	; 0x87
 8003346:	f8c2 3104 	str.w	r3, [r2, #260]	; 0x104
 800334a:	f8c2 3108 	str.w	r3, [r2, #264]	; 0x108
 800334e:	f882 310e 	strb.w	r3, [r2, #270]	; 0x10e
 8003352:	f882 310d 	strb.w	r3, [r2, #269]	; 0x10d
 8003356:	f8c2 318a 	str.w	r3, [r2, #394]	; 0x18a
 800335a:	f8c2 318e 	str.w	r3, [r2, #398]	; 0x18e
 800335e:	f882 3194 	strb.w	r3, [r2, #404]	; 0x194
 8003362:	f882 3193 	strb.w	r3, [r2, #403]	; 0x193
 8003366:	f8c2 3210 	str.w	r3, [r2, #528]	; 0x210
 800336a:	f8c2 3214 	str.w	r3, [r2, #532]	; 0x214
 800336e:	6063      	str	r3, [r4, #4]
 8003370:	60a3      	str	r3, [r4, #8]
 8003372:	f8a2 121c 	strh.w	r1, [r2, #540]	; 0x21c
 8003376:	f8a2 12a2 	strh.w	r1, [r2, #674]	; 0x2a2
 800337a:	f8a2 1328 	strh.w	r1, [r2, #808]	; 0x328
 800337e:	f8a2 13ae 	strh.w	r1, [r2, #942]	; 0x3ae
 8003382:	f882 321a 	strb.w	r3, [r2, #538]	; 0x21a
 8003386:	f882 3219 	strb.w	r3, [r2, #537]	; 0x219
 800338a:	f8c2 3296 	str.w	r3, [r2, #662]	; 0x296
 800338e:	f8c2 329a 	str.w	r3, [r2, #666]	; 0x29a
 8003392:	f882 32a0 	strb.w	r3, [r2, #672]	; 0x2a0
 8003396:	f882 329f 	strb.w	r3, [r2, #671]	; 0x29f
 800339a:	f8c2 331c 	str.w	r3, [r2, #796]	; 0x31c
 800339e:	f8c2 3320 	str.w	r3, [r2, #800]	; 0x320
 80033a2:	f882 3326 	strb.w	r3, [r2, #806]	; 0x326
 80033a6:	f882 3325 	strb.w	r3, [r2, #805]	; 0x325
 80033aa:	f8c2 33a2 	str.w	r3, [r2, #930]	; 0x3a2
 80033ae:	f8c2 33a6 	str.w	r3, [r2, #934]	; 0x3a6
 80033b2:	f882 33ac 	strb.w	r3, [r2, #940]	; 0x3ac
 80033b6:	f882 33ab 	strb.w	r3, [r2, #939]	; 0x3ab
 80033ba:	f8c2 3428 	str.w	r3, [r2, #1064]	; 0x428
 80033be:	f8c2 342c 	str.w	r3, [r2, #1068]	; 0x42c
 80033c2:	f885 306c 	strb.w	r3, [r5, #108]	; 0x6c
 80033c6:	f002 fb83 	bl	8005ad0 <STORING_SaveSetting>
 80033ca:	9801      	ldr	r0, [sp, #4]
 80033cc:	b002      	add	sp, #8
 80033ce:	bd70      	pop	{r4, r5, r6, pc}
 80033d0:	40000800 	.word	0x40000800
 80033d4:	20000e88 	.word	0x20000e88
 80033d8:	20000e70 	.word	0x20000e70
 80033dc:	200000b2 	.word	0x200000b2
 80033e0:	200000ae 	.word	0x200000ae
 80033e4:	20001308 	.word	0x20001308
 80033e8:	200012f8 	.word	0x200012f8
 80033ec:	2000193c 	.word	0x2000193c

080033f0 <FANS_SetTime>:
 80033f0:	b510      	push	{r4, lr}
 80033f2:	4906      	ldr	r1, [pc, #24]	; (800340c <FANS_SetTime+0x1c>)
 80033f4:	4604      	mov	r4, r0
 80033f6:	2200      	movs	r2, #0
 80033f8:	4805      	ldr	r0, [pc, #20]	; (8003410 <FANS_SetTime+0x20>)
 80033fa:	f7fe fd39 	bl	8001e70 <HAL_RTC_SetTime>
 80033fe:	b908      	cbnz	r0, 8003404 <FANS_SetTime+0x14>
 8003400:	4620      	mov	r0, r4
 8003402:	bd10      	pop	{r4, pc}
 8003404:	f001 fd74 	bl	8004ef0 <Error_Handler>
 8003408:	4620      	mov	r0, r4
 800340a:	bd10      	pop	{r4, pc}
 800340c:	20000ea4 	.word	0x20000ea4
 8003410:	2000179c 	.word	0x2000179c

08003414 <FANS_CalculationDate>:
 8003414:	b5f0      	push	{r4, r5, r6, r7, lr}
 8003416:	4e22      	ldr	r6, [pc, #136]	; (80034a0 <FANS_CalculationDate+0x8c>)
 8003418:	4f22      	ldr	r7, [pc, #136]	; (80034a4 <FANS_CalculationDate+0x90>)
 800341a:	78f5      	ldrb	r5, [r6, #3]
 800341c:	2d01      	cmp	r5, #1
 800341e:	f04f 0100 	mov.w	r1, #0
 8003422:	d912      	bls.n	800344a <FANS_CalculationDate+0x36>
 8003424:	4c20      	ldr	r4, [pc, #128]	; (80034a8 <FANS_CalculationDate+0x94>)
 8003426:	4608      	mov	r0, r1
 8003428:	f105 3cff 	add.w	ip, r5, #4294967295
 800342c:	4b1f      	ldr	r3, [pc, #124]	; (80034ac <FANS_CalculationDate+0x98>)
 800342e:	f813 2f01 	ldrb.w	r2, [r3, #1]!
 8003432:	4290      	cmp	r0, r2
 8003434:	bf04      	itt	eq
 8003436:	3101      	addeq	r1, #1
 8003438:	b289      	uxtheq	r1, r1
 800343a:	42a3      	cmp	r3, r4
 800343c:	d1f7      	bne.n	800342e <FANS_CalculationDate+0x1a>
 800343e:	3001      	adds	r0, #1
 8003440:	f201 116d 	addw	r1, r1, #365	; 0x16d
 8003444:	4584      	cmp	ip, r0
 8003446:	b289      	uxth	r1, r1
 8003448:	d1f0      	bne.n	800342c <FANS_CalculationDate+0x18>
 800344a:	f896 e001 	ldrb.w	lr, [r6, #1]
 800344e:	f10e 3eff 	add.w	lr, lr, #4294967295
 8003452:	f1be 0f01 	cmp.w	lr, #1
 8003456:	dd1f      	ble.n	8003498 <FANS_CalculationDate+0x84>
 8003458:	311f      	adds	r1, #31
 800345a:	f1be 0f02 	cmp.w	lr, #2
 800345e:	b289      	uxth	r1, r1
 8003460:	d01a      	beq.n	8003498 <FANS_CalculationDate+0x84>
 8003462:	f8df c04c 	ldr.w	ip, [pc, #76]	; 80034b0 <FANS_CalculationDate+0x9c>
 8003466:	2402      	movs	r4, #2
 8003468:	e002      	b.n	8003470 <FANS_CalculationDate+0x5c>
 800346a:	3401      	adds	r4, #1
 800346c:	4574      	cmp	r4, lr
 800346e:	d013      	beq.n	8003498 <FANS_CalculationDate+0x84>
 8003470:	f81c 3f01 	ldrb.w	r3, [ip, #1]!
 8003474:	2c02      	cmp	r4, #2
 8003476:	4419      	add	r1, r3
 8003478:	b289      	uxth	r1, r1
 800347a:	d1f6      	bne.n	800346a <FANS_CalculationDate+0x56>
 800347c:	4b0b      	ldr	r3, [pc, #44]	; (80034ac <FANS_CalculationDate+0x98>)
 800347e:	f103 0019 	add.w	r0, r3, #25
 8003482:	f813 2f01 	ldrb.w	r2, [r3, #1]!
 8003486:	42aa      	cmp	r2, r5
 8003488:	bf04      	itt	eq
 800348a:	3101      	addeq	r1, #1
 800348c:	b289      	uxtheq	r1, r1
 800348e:	4298      	cmp	r0, r3
 8003490:	d1f7      	bne.n	8003482 <FANS_CalculationDate+0x6e>
 8003492:	3401      	adds	r4, #1
 8003494:	4574      	cmp	r4, lr
 8003496:	d1eb      	bne.n	8003470 <FANS_CalculationDate+0x5c>
 8003498:	78b3      	ldrb	r3, [r6, #2]
 800349a:	4419      	add	r1, r3
 800349c:	8039      	strh	r1, [r7, #0]
 800349e:	bdf0      	pop	{r4, r5, r6, r7, pc}
 80034a0:	20000e54 	.word	0x20000e54
 80034a4:	200000ae 	.word	0x200000ae
 80034a8:	08008620 	.word	0x08008620
 80034ac:	08008607 	.word	0x08008607
 80034b0:	08008625 	.word	0x08008625

080034b4 <FANS_SetDate>:
 80034b4:	b570      	push	{r4, r5, r6, lr}
 80034b6:	4975      	ldr	r1, [pc, #468]	; (800368c <FANS_SetDate+0x1d8>)
 80034b8:	4606      	mov	r6, r0
 80034ba:	2200      	movs	r2, #0
 80034bc:	4874      	ldr	r0, [pc, #464]	; (8003690 <FANS_SetDate+0x1dc>)
 80034be:	f7fe fdc3 	bl	8002048 <HAL_RTC_SetDate>
 80034c2:	2800      	cmp	r0, #0
 80034c4:	f040 80de 	bne.w	8003684 <FANS_SetDate+0x1d0>
 80034c8:	4d72      	ldr	r5, [pc, #456]	; (8003694 <FANS_SetDate+0x1e0>)
 80034ca:	4973      	ldr	r1, [pc, #460]	; (8003698 <FANS_SetDate+0x1e4>)
 80034cc:	4870      	ldr	r0, [pc, #448]	; (8003690 <FANS_SetDate+0x1dc>)
 80034ce:	4c6f      	ldr	r4, [pc, #444]	; (800368c <FANS_SetDate+0x1d8>)
 80034d0:	2200      	movs	r2, #0
 80034d2:	f7fe fd85 	bl	8001fe0 <HAL_RTC_GetTime>
 80034d6:	2200      	movs	r2, #0
 80034d8:	4629      	mov	r1, r5
 80034da:	486d      	ldr	r0, [pc, #436]	; (8003690 <FANS_SetDate+0x1dc>)
 80034dc:	f7fe fe5c 	bl	8002198 <HAL_RTC_GetDate>
 80034e0:	e001      	b.n	80034e6 <FANS_SetDate+0x32>
 80034e2:	f7fd f963 	bl	80007ac <HAL_Delay>
 80034e6:	78aa      	ldrb	r2, [r5, #2]
 80034e8:	78a3      	ldrb	r3, [r4, #2]
 80034ea:	429a      	cmp	r2, r3
 80034ec:	f04f 0001 	mov.w	r0, #1
 80034f0:	d1f7      	bne.n	80034e2 <FANS_SetDate+0x2e>
 80034f2:	786a      	ldrb	r2, [r5, #1]
 80034f4:	7863      	ldrb	r3, [r4, #1]
 80034f6:	429a      	cmp	r2, r3
 80034f8:	d1f3      	bne.n	80034e2 <FANS_SetDate+0x2e>
 80034fa:	78ea      	ldrb	r2, [r5, #3]
 80034fc:	78e3      	ldrb	r3, [r4, #3]
 80034fe:	429a      	cmp	r2, r3
 8003500:	d1ef      	bne.n	80034e2 <FANS_SetDate+0x2e>
 8003502:	f7ff ff87 	bl	8003414 <FANS_CalculationDate>
 8003506:	4b65      	ldr	r3, [pc, #404]	; (800369c <FANS_SetDate+0x1e8>)
 8003508:	4965      	ldr	r1, [pc, #404]	; (80036a0 <FANS_SetDate+0x1ec>)
 800350a:	f893 007f 	ldrb.w	r0, [r3, #127]	; 0x7f
 800350e:	f893 2081 	ldrb.w	r2, [r3, #129]	; 0x81
 8003512:	f893 4083 	ldrb.w	r4, [r3, #131]	; 0x83
 8003516:	8809      	ldrh	r1, [r1, #0]
 8003518:	8099      	strh	r1, [r3, #4]
 800351a:	4402      	add	r2, r0
 800351c:	f893 0085 	ldrb.w	r0, [r3, #133]	; 0x85
 8003520:	f8a3 108a 	strh.w	r1, [r3, #138]	; 0x8a
 8003524:	4422      	add	r2, r4
 8003526:	4402      	add	r2, r0
 8003528:	f012 02ff 	ands.w	r2, r2, #255	; 0xff
 800352c:	bf18      	it	ne
 800352e:	2200      	movne	r2, #0
 8003530:	f893 4107 	ldrb.w	r4, [r3, #263]	; 0x107
 8003534:	bf12      	itee	ne
 8003536:	709a      	strbne	r2, [r3, #2]
 8003538:	709a      	strbeq	r2, [r3, #2]
 800353a:	705a      	strbeq	r2, [r3, #1]
 800353c:	f893 2105 	ldrb.w	r2, [r3, #261]	; 0x105
 8003540:	f893 0109 	ldrb.w	r0, [r3, #265]	; 0x109
 8003544:	f8a3 1110 	strh.w	r1, [r3, #272]	; 0x110
 8003548:	f8a3 1196 	strh.w	r1, [r3, #406]	; 0x196
 800354c:	f8a3 121c 	strh.w	r1, [r3, #540]	; 0x21c
 8003550:	f8a3 12a2 	strh.w	r1, [r3, #674]	; 0x2a2
 8003554:	f8a3 1328 	strh.w	r1, [r3, #808]	; 0x328
 8003558:	f8a3 13ae 	strh.w	r1, [r3, #942]	; 0x3ae
 800355c:	4422      	add	r2, r4
 800355e:	f893 110b 	ldrb.w	r1, [r3, #267]	; 0x10b
 8003562:	f893 418d 	ldrb.w	r4, [r3, #397]	; 0x18d
 8003566:	4402      	add	r2, r0
 8003568:	440a      	add	r2, r1
 800356a:	f012 02ff 	ands.w	r2, r2, #255	; 0xff
 800356e:	bf19      	ittee	ne
 8003570:	2200      	movne	r2, #0
 8003572:	f883 2088 	strbne.w	r2, [r3, #136]	; 0x88
 8003576:	f883 2088 	strbeq.w	r2, [r3, #136]	; 0x88
 800357a:	f883 2087 	strbeq.w	r2, [r3, #135]	; 0x87
 800357e:	f893 218b 	ldrb.w	r2, [r3, #395]	; 0x18b
 8003582:	f893 018f 	ldrb.w	r0, [r3, #399]	; 0x18f
 8003586:	f893 1191 	ldrb.w	r1, [r3, #401]	; 0x191
 800358a:	4422      	add	r2, r4
 800358c:	4402      	add	r2, r0
 800358e:	440a      	add	r2, r1
 8003590:	f012 02ff 	ands.w	r2, r2, #255	; 0xff
 8003594:	bf18      	it	ne
 8003596:	2200      	movne	r2, #0
 8003598:	f893 4213 	ldrb.w	r4, [r3, #531]	; 0x213
 800359c:	bf12      	itee	ne
 800359e:	f883 210e 	strbne.w	r2, [r3, #270]	; 0x10e
 80035a2:	f883 210e 	strbeq.w	r2, [r3, #270]	; 0x10e
 80035a6:	f883 210d 	strbeq.w	r2, [r3, #269]	; 0x10d
 80035aa:	f893 2211 	ldrb.w	r2, [r3, #529]	; 0x211
 80035ae:	f893 0215 	ldrb.w	r0, [r3, #533]	; 0x215
 80035b2:	f893 1217 	ldrb.w	r1, [r3, #535]	; 0x217
 80035b6:	4422      	add	r2, r4
 80035b8:	4402      	add	r2, r0
 80035ba:	440a      	add	r2, r1
 80035bc:	f012 02ff 	ands.w	r2, r2, #255	; 0xff
 80035c0:	bf18      	it	ne
 80035c2:	2200      	movne	r2, #0
 80035c4:	f893 4299 	ldrb.w	r4, [r3, #665]	; 0x299
 80035c8:	bf12      	itee	ne
 80035ca:	f883 2194 	strbne.w	r2, [r3, #404]	; 0x194
 80035ce:	f883 2194 	strbeq.w	r2, [r3, #404]	; 0x194
 80035d2:	f883 2193 	strbeq.w	r2, [r3, #403]	; 0x193
 80035d6:	f893 2297 	ldrb.w	r2, [r3, #663]	; 0x297
 80035da:	f893 029b 	ldrb.w	r0, [r3, #667]	; 0x29b
 80035de:	f893 129d 	ldrb.w	r1, [r3, #669]	; 0x29d
 80035e2:	4422      	add	r2, r4
 80035e4:	4402      	add	r2, r0
 80035e6:	440a      	add	r2, r1
 80035e8:	f012 02ff 	ands.w	r2, r2, #255	; 0xff
 80035ec:	bf18      	it	ne
 80035ee:	2200      	movne	r2, #0
 80035f0:	f893 431f 	ldrb.w	r4, [r3, #799]	; 0x31f
 80035f4:	bf12      	itee	ne
 80035f6:	f883 221a 	strbne.w	r2, [r3, #538]	; 0x21a
 80035fa:	f883 221a 	strbeq.w	r2, [r3, #538]	; 0x21a
 80035fe:	f883 2219 	strbeq.w	r2, [r3, #537]	; 0x219
 8003602:	f893 231d 	ldrb.w	r2, [r3, #797]	; 0x31d
 8003606:	f893 0321 	ldrb.w	r0, [r3, #801]	; 0x321
 800360a:	f893 1323 	ldrb.w	r1, [r3, #803]	; 0x323
 800360e:	4422      	add	r2, r4
 8003610:	4402      	add	r2, r0
 8003612:	440a      	add	r2, r1
 8003614:	f012 02ff 	ands.w	r2, r2, #255	; 0xff
 8003618:	bf18      	it	ne
 800361a:	2200      	movne	r2, #0
 800361c:	f893 43a5 	ldrb.w	r4, [r3, #933]	; 0x3a5
 8003620:	bf12      	itee	ne
 8003622:	f883 22a0 	strbne.w	r2, [r3, #672]	; 0x2a0
 8003626:	f883 22a0 	strbeq.w	r2, [r3, #672]	; 0x2a0
 800362a:	f883 229f 	strbeq.w	r2, [r3, #671]	; 0x29f
 800362e:	f893 23a3 	ldrb.w	r2, [r3, #931]	; 0x3a3
 8003632:	f893 03a7 	ldrb.w	r0, [r3, #935]	; 0x3a7
 8003636:	f893 13a9 	ldrb.w	r1, [r3, #937]	; 0x3a9
 800363a:	4422      	add	r2, r4
 800363c:	4402      	add	r2, r0
 800363e:	440a      	add	r2, r1
 8003640:	f012 02ff 	ands.w	r2, r2, #255	; 0xff
 8003644:	bf19      	ittee	ne
 8003646:	2200      	movne	r2, #0
 8003648:	f883 2326 	strbne.w	r2, [r3, #806]	; 0x326
 800364c:	f883 2326 	strbeq.w	r2, [r3, #806]	; 0x326
 8003650:	f883 2325 	strbeq.w	r2, [r3, #805]	; 0x325
 8003654:	f893 442b 	ldrb.w	r4, [r3, #1067]	; 0x42b
 8003658:	f893 2429 	ldrb.w	r2, [r3, #1065]	; 0x429
 800365c:	f893 042d 	ldrb.w	r0, [r3, #1069]	; 0x42d
 8003660:	f893 142f 	ldrb.w	r1, [r3, #1071]	; 0x42f
 8003664:	4422      	add	r2, r4
 8003666:	4402      	add	r2, r0
 8003668:	440a      	add	r2, r1
 800366a:	f012 02ff 	ands.w	r2, r2, #255	; 0xff
 800366e:	bf12      	itee	ne
 8003670:	2200      	movne	r2, #0
 8003672:	f883 23ac 	strbeq.w	r2, [r3, #940]	; 0x3ac
 8003676:	f883 23ab 	strbeq.w	r2, [r3, #939]	; 0x3ab
 800367a:	4630      	mov	r0, r6
 800367c:	bf18      	it	ne
 800367e:	f883 23ac 	strbne.w	r2, [r3, #940]	; 0x3ac
 8003682:	bd70      	pop	{r4, r5, r6, pc}
 8003684:	f001 fc34 	bl	8004ef0 <Error_Handler>
 8003688:	e71e      	b.n	80034c8 <FANS_SetDate+0x14>
 800368a:	bf00      	nop
 800368c:	20000ea0 	.word	0x20000ea0
 8003690:	2000179c 	.word	0x2000179c
 8003694:	20000e54 	.word	0x20000e54
 8003698:	20000e58 	.word	0x20000e58
 800369c:	20001308 	.word	0x20001308
 80036a0:	200000ae 	.word	0x200000ae

080036a4 <FANS_SetStartDayTime>:
 80036a4:	b470      	push	{r4, r5, r6}
 80036a6:	4c09      	ldr	r4, [pc, #36]	; (80036cc <FANS_SetStartDayTime+0x28>)
 80036a8:	4a09      	ldr	r2, [pc, #36]	; (80036d0 <FANS_SetStartDayTime+0x2c>)
 80036aa:	7861      	ldrb	r1, [r4, #1]
 80036ac:	78a5      	ldrb	r5, [r4, #2]
 80036ae:	7823      	ldrb	r3, [r4, #0]
 80036b0:	7013      	strb	r3, [r2, #0]
 80036b2:	ebc1 1401 	rsb	r4, r1, r1, lsl #4
 80036b6:	00a4      	lsls	r4, r4, #2
 80036b8:	f44f 6661 	mov.w	r6, #3600	; 0xe10
 80036bc:	fb06 4303 	mla	r3, r6, r3, r4
 80036c0:	442b      	add	r3, r5
 80036c2:	7051      	strb	r1, [r2, #1]
 80036c4:	7095      	strb	r5, [r2, #2]
 80036c6:	bc70      	pop	{r4, r5, r6}
 80036c8:	6153      	str	r3, [r2, #20]
 80036ca:	4770      	bx	lr
 80036cc:	20000ea4 	.word	0x20000ea4
 80036d0:	20000e88 	.word	0x20000e88

080036d4 <FANS_SetEndDayTime>:
 80036d4:	b470      	push	{r4, r5, r6}
 80036d6:	4c09      	ldr	r4, [pc, #36]	; (80036fc <FANS_SetEndDayTime+0x28>)
 80036d8:	4a09      	ldr	r2, [pc, #36]	; (8003700 <FANS_SetEndDayTime+0x2c>)
 80036da:	7861      	ldrb	r1, [r4, #1]
 80036dc:	78a5      	ldrb	r5, [r4, #2]
 80036de:	7823      	ldrb	r3, [r4, #0]
 80036e0:	7013      	strb	r3, [r2, #0]
 80036e2:	ebc1 1401 	rsb	r4, r1, r1, lsl #4
 80036e6:	00a4      	lsls	r4, r4, #2
 80036e8:	f44f 6661 	mov.w	r6, #3600	; 0xe10
 80036ec:	fb06 4303 	mla	r3, r6, r3, r4
 80036f0:	442b      	add	r3, r5
 80036f2:	7051      	strb	r1, [r2, #1]
 80036f4:	7095      	strb	r5, [r2, #2]
 80036f6:	bc70      	pop	{r4, r5, r6}
 80036f8:	6153      	str	r3, [r2, #20]
 80036fa:	4770      	bx	lr
 80036fc:	20000ea4 	.word	0x20000ea4
 8003700:	20000e70 	.word	0x20000e70

08003704 <FANS_SetPeriod>:
 8003704:	4b06      	ldr	r3, [pc, #24]	; (8003720 <FANS_SetPeriod+0x1c>)
 8003706:	4a07      	ldr	r2, [pc, #28]	; (8003724 <FANS_SetPeriod+0x20>)
 8003708:	7819      	ldrb	r1, [r3, #0]
 800370a:	f44f 737a 	mov.w	r3, #1000	; 0x3e8
 800370e:	fb03 f301 	mul.w	r3, r3, r1
 8003712:	3b01      	subs	r3, #1
 8003714:	62d3      	str	r3, [r2, #44]	; 0x2c
 8003716:	6953      	ldr	r3, [r2, #20]
 8003718:	f043 0301 	orr.w	r3, r3, #1
 800371c:	6153      	str	r3, [r2, #20]
 800371e:	4770      	bx	lr
 8003720:	200000b2 	.word	0x200000b2
 8003724:	40000800 	.word	0x40000800

08003728 <HAL_RTC_AlarmAEventCallback>:
 8003728:	4b01      	ldr	r3, [pc, #4]	; (8003730 <HAL_RTC_AlarmAEventCallback+0x8>)
 800372a:	2201      	movs	r2, #1
 800372c:	701a      	strb	r2, [r3, #0]
 800372e:	4770      	bx	lr
 8003730:	200000b0 	.word	0x200000b0

08003734 <FANS_SetSpeed>:
 8003734:	e92d 4ff8 	stmdb	sp!, {r3, r4, r5, r6, r7, r8, r9, sl, fp, lr}
 8003738:	4b56      	ldr	r3, [pc, #344]	; (8003894 <FANS_SetSpeed+0x160>)
 800373a:	781b      	ldrb	r3, [r3, #0]
 800373c:	2b01      	cmp	r3, #1
 800373e:	d03c      	beq.n	80037ba <FANS_SetSpeed+0x86>
 8003740:	f8df 8164 	ldr.w	r8, [pc, #356]	; 80038a8 <FANS_SetSpeed+0x174>
 8003744:	4c54      	ldr	r4, [pc, #336]	; (8003898 <FANS_SetSpeed+0x164>)
 8003746:	4f55      	ldr	r7, [pc, #340]	; (800389c <FANS_SetSpeed+0x168>)
 8003748:	2500      	movs	r5, #0
 800374a:	4646      	mov	r6, r8
 800374c:	46aa      	mov	sl, r5
 800374e:	f04f 0986 	mov.w	r9, #134	; 0x86
 8003752:	e00d      	b.n	8003770 <FANS_SetSpeed+0x3c>
 8003754:	88a1      	ldrh	r1, [r4, #4]
 8003756:	6820      	ldr	r0, [r4, #0]
 8003758:	f7fd fb22 	bl	8000da0 <HAL_GPIO_WritePin>
 800375c:	3501      	adds	r5, #1
 800375e:	68a3      	ldr	r3, [r4, #8]
 8003760:	2d08      	cmp	r5, #8
 8003762:	f8c3 a000 	str.w	sl, [r3]
 8003766:	f106 0686 	add.w	r6, r6, #134	; 0x86
 800376a:	f104 040c 	add.w	r4, r4, #12
 800376e:	d022      	beq.n	80037b6 <FANS_SetSpeed+0x82>
 8003770:	78b1      	ldrb	r1, [r6, #2]
 8003772:	fb09 8b05 	mla	fp, r9, r5, r8
 8003776:	4459      	add	r1, fp
 8003778:	2200      	movs	r2, #0
 800377a:	7989      	ldrb	r1, [r1, #6]
 800377c:	eb01 0141 	add.w	r1, r1, r1, lsl #1
 8003780:	5c79      	ldrb	r1, [r7, r1]
 8003782:	2900      	cmp	r1, #0
 8003784:	d0e6      	beq.n	8003754 <FANS_SetSpeed+0x20>
 8003786:	7871      	ldrb	r1, [r6, #1]
 8003788:	2900      	cmp	r1, #0
 800378a:	d0e3      	beq.n	8003754 <FANS_SetSpeed+0x20>
 800378c:	88a1      	ldrh	r1, [r4, #4]
 800378e:	6820      	ldr	r0, [r4, #0]
 8003790:	2201      	movs	r2, #1
 8003792:	f7fd fb05 	bl	8000da0 <HAL_GPIO_WritePin>
 8003796:	78b2      	ldrb	r2, [r6, #2]
 8003798:	eb0b 0302 	add.w	r3, fp, r2
 800379c:	3501      	adds	r5, #1
 800379e:	799b      	ldrb	r3, [r3, #6]
 80037a0:	4a3f      	ldr	r2, [pc, #252]	; (80038a0 <FANS_SetSpeed+0x16c>)
 80037a2:	eb03 0343 	add.w	r3, r3, r3, lsl #1
 80037a6:	2d08      	cmp	r5, #8
 80037a8:	5cfb      	ldrb	r3, [r7, r3]
 80037aa:	6353      	str	r3, [r2, #52]	; 0x34
 80037ac:	f106 0686 	add.w	r6, r6, #134	; 0x86
 80037b0:	f104 040c 	add.w	r4, r4, #12
 80037b4:	d1dc      	bne.n	8003770 <FANS_SetSpeed+0x3c>
 80037b6:	e8bd 8ff8 	ldmia.w	sp!, {r3, r4, r5, r6, r7, r8, r9, sl, fp, pc}
 80037ba:	4b3a      	ldr	r3, [pc, #232]	; (80038a4 <FANS_SetSpeed+0x170>)
 80037bc:	f8df 80e8 	ldr.w	r8, [pc, #232]	; 80038a8 <FANS_SetSpeed+0x174>
 80037c0:	781d      	ldrb	r5, [r3, #0]
 80037c2:	4c35      	ldr	r4, [pc, #212]	; (8003898 <FANS_SetSpeed+0x164>)
 80037c4:	4f35      	ldr	r7, [pc, #212]	; (800389c <FANS_SetSpeed+0x168>)
 80037c6:	2d00      	cmp	r5, #0
 80037c8:	d032      	beq.n	8003830 <FANS_SetSpeed+0xfc>
 80037ca:	2500      	movs	r5, #0
 80037cc:	4646      	mov	r6, r8
 80037ce:	46aa      	mov	sl, r5
 80037d0:	f04f 0986 	mov.w	r9, #134	; 0x86
 80037d4:	e00d      	b.n	80037f2 <FANS_SetSpeed+0xbe>
 80037d6:	88a1      	ldrh	r1, [r4, #4]
 80037d8:	6820      	ldr	r0, [r4, #0]
 80037da:	f7fd fae1 	bl	8000da0 <HAL_GPIO_WritePin>
 80037de:	68a3      	ldr	r3, [r4, #8]
 80037e0:	f8c3 a000 	str.w	sl, [r3]
 80037e4:	3501      	adds	r5, #1
 80037e6:	2d08      	cmp	r5, #8
 80037e8:	f106 0686 	add.w	r6, r6, #134	; 0x86
 80037ec:	f104 040c 	add.w	r4, r4, #12
 80037f0:	d0e1      	beq.n	80037b6 <FANS_SetSpeed+0x82>
 80037f2:	78b3      	ldrb	r3, [r6, #2]
 80037f4:	fb09 8b05 	mla	fp, r9, r5, r8
 80037f8:	445b      	add	r3, fp
 80037fa:	2200      	movs	r2, #0
 80037fc:	799b      	ldrb	r3, [r3, #6]
 80037fe:	eb03 0343 	add.w	r3, r3, r3, lsl #1
 8003802:	443b      	add	r3, r7
 8003804:	785b      	ldrb	r3, [r3, #1]
 8003806:	2b00      	cmp	r3, #0
 8003808:	d0e5      	beq.n	80037d6 <FANS_SetSpeed+0xa2>
 800380a:	7873      	ldrb	r3, [r6, #1]
 800380c:	2b00      	cmp	r3, #0
 800380e:	d0e2      	beq.n	80037d6 <FANS_SetSpeed+0xa2>
 8003810:	2201      	movs	r2, #1
 8003812:	88a1      	ldrh	r1, [r4, #4]
 8003814:	6820      	ldr	r0, [r4, #0]
 8003816:	f7fd fac3 	bl	8000da0 <HAL_GPIO_WritePin>
 800381a:	78b3      	ldrb	r3, [r6, #2]
 800381c:	68a2      	ldr	r2, [r4, #8]
 800381e:	449b      	add	fp, r3
 8003820:	f89b 3006 	ldrb.w	r3, [fp, #6]
 8003824:	eb03 0343 	add.w	r3, r3, r3, lsl #1
 8003828:	443b      	add	r3, r7
 800382a:	785b      	ldrb	r3, [r3, #1]
 800382c:	6013      	str	r3, [r2, #0]
 800382e:	e7d9      	b.n	80037e4 <FANS_SetSpeed+0xb0>
 8003830:	46aa      	mov	sl, r5
 8003832:	4646      	mov	r6, r8
 8003834:	f04f 0986 	mov.w	r9, #134	; 0x86
 8003838:	e00d      	b.n	8003856 <FANS_SetSpeed+0x122>
 800383a:	88a1      	ldrh	r1, [r4, #4]
 800383c:	6820      	ldr	r0, [r4, #0]
 800383e:	f7fd faaf 	bl	8000da0 <HAL_GPIO_WritePin>
 8003842:	68a3      	ldr	r3, [r4, #8]
 8003844:	f8c3 a000 	str.w	sl, [r3]
 8003848:	3501      	adds	r5, #1
 800384a:	2d08      	cmp	r5, #8
 800384c:	f106 0686 	add.w	r6, r6, #134	; 0x86
 8003850:	f104 040c 	add.w	r4, r4, #12
 8003854:	d0af      	beq.n	80037b6 <FANS_SetSpeed+0x82>
 8003856:	78b3      	ldrb	r3, [r6, #2]
 8003858:	fb09 8b05 	mla	fp, r9, r5, r8
 800385c:	445b      	add	r3, fp
 800385e:	2200      	movs	r2, #0
 8003860:	799b      	ldrb	r3, [r3, #6]
 8003862:	eb03 0343 	add.w	r3, r3, r3, lsl #1
 8003866:	443b      	add	r3, r7
 8003868:	789b      	ldrb	r3, [r3, #2]
 800386a:	2b00      	cmp	r3, #0
 800386c:	d0e5      	beq.n	800383a <FANS_SetSpeed+0x106>
 800386e:	7873      	ldrb	r3, [r6, #1]
 8003870:	2b00      	cmp	r3, #0
 8003872:	d0e2      	beq.n	800383a <FANS_SetSpeed+0x106>
 8003874:	2201      	movs	r2, #1
 8003876:	88a1      	ldrh	r1, [r4, #4]
 8003878:	6820      	ldr	r0, [r4, #0]
 800387a:	f7fd fa91 	bl	8000da0 <HAL_GPIO_WritePin>
 800387e:	78b3      	ldrb	r3, [r6, #2]
 8003880:	68a2      	ldr	r2, [r4, #8]
 8003882:	449b      	add	fp, r3
 8003884:	f89b 3006 	ldrb.w	r3, [fp, #6]
 8003888:	eb03 0343 	add.w	r3, r3, r3, lsl #1
 800388c:	443b      	add	r3, r7
 800388e:	789b      	ldrb	r3, [r3, #2]
 8003890:	6013      	str	r3, [r2, #0]
 8003892:	e7d9      	b.n	8003848 <FANS_SetSpeed+0x114>
 8003894:	20001304 	.word	0x20001304
 8003898:	080085a8 	.word	0x080085a8
 800389c:	200012f8 	.word	0x200012f8
 80038a0:	40000400 	.word	0x40000400
 80038a4:	200000b1 	.word	0x200000b1
 80038a8:	20001308 	.word	0x20001308

080038ac <HAL_GPIO_EXTI_Callback>:
 80038ac:	f5b0 5f80 	cmp.w	r0, #4096	; 0x1000
 80038b0:	d000      	beq.n	80038b4 <HAL_GPIO_EXTI_Callback+0x8>
 80038b2:	4770      	bx	lr
 80038b4:	b508      	push	{r3, lr}
 80038b6:	2028      	movs	r0, #40	; 0x28
 80038b8:	f7fc ffe4 	bl	8000884 <HAL_NVIC_DisableIRQ>
 80038bc:	f7fc ff70 	bl	80007a0 <HAL_GetTick>
 80038c0:	4b01      	ldr	r3, [pc, #4]	; (80038c8 <HAL_GPIO_EXTI_Callback+0x1c>)
 80038c2:	6018      	str	r0, [r3, #0]
 80038c4:	bd08      	pop	{r3, pc}
 80038c6:	bf00      	nop
 80038c8:	200000b4 	.word	0x200000b4

080038cc <HAL_TIM_IC_CaptureCallback>:
 80038cc:	b510      	push	{r4, lr}
 80038ce:	6804      	ldr	r4, [r0, #0]
 80038d0:	f1b4 4f80 	cmp.w	r4, #1073741824	; 0x40000000
 80038d4:	d000      	beq.n	80038d8 <HAL_TIM_IC_CaptureCallback+0xc>
 80038d6:	bd10      	pop	{r4, pc}
 80038d8:	f003 fea8 	bl	800762c <ssd1306_CheckDisplayStatus>
 80038dc:	2801      	cmp	r0, #1
 80038de:	d004      	beq.n	80038ea <HAL_TIM_IC_CaptureCallback+0x1e>
 80038e0:	f7fc ff5e 	bl	80007a0 <HAL_GetTick>
 80038e4:	4b1b      	ldr	r3, [pc, #108]	; (8003954 <HAL_TIM_IC_CaptureCallback+0x88>)
 80038e6:	6018      	str	r0, [r3, #0]
 80038e8:	bd10      	pop	{r4, pc}
 80038ea:	6823      	ldr	r3, [r4, #0]
 80038ec:	491a      	ldr	r1, [pc, #104]	; (8003958 <HAL_TIM_IC_CaptureCallback+0x8c>)
 80038ee:	f013 0f10 	tst.w	r3, #16
 80038f2:	680b      	ldr	r3, [r1, #0]
 80038f4:	789a      	ldrb	r2, [r3, #2]
 80038f6:	d105      	bne.n	8003904 <HAL_TIM_IC_CaptureCallback+0x38>
 80038f8:	b94a      	cbnz	r2, 800390e <HAL_TIM_IC_CaptureCallback+0x42>
 80038fa:	6a1b      	ldr	r3, [r3, #32]
 80038fc:	2b00      	cmp	r3, #0
 80038fe:	d0ef      	beq.n	80038e0 <HAL_TIM_IC_CaptureCallback+0x14>
 8003900:	600b      	str	r3, [r1, #0]
 8003902:	e7ed      	b.n	80038e0 <HAL_TIM_IC_CaptureCallback+0x14>
 8003904:	b97a      	cbnz	r2, 8003926 <HAL_TIM_IC_CaptureCallback+0x5a>
 8003906:	69db      	ldr	r3, [r3, #28]
 8003908:	2b00      	cmp	r3, #0
 800390a:	d1f9      	bne.n	8003900 <HAL_TIM_IC_CaptureCallback+0x34>
 800390c:	e7e8      	b.n	80038e0 <HAL_TIM_IC_CaptureCallback+0x14>
 800390e:	2a01      	cmp	r2, #1
 8003910:	d014      	beq.n	800393c <HAL_TIM_IC_CaptureCallback+0x70>
 8003912:	2a02      	cmp	r2, #2
 8003914:	d1e4      	bne.n	80038e0 <HAL_TIM_IC_CaptureCallback+0x14>
 8003916:	68da      	ldr	r2, [r3, #12]
 8003918:	7c19      	ldrb	r1, [r3, #16]
 800391a:	7813      	ldrb	r3, [r2, #0]
 800391c:	4299      	cmp	r1, r3
 800391e:	d9df      	bls.n	80038e0 <HAL_TIM_IC_CaptureCallback+0x14>
 8003920:	3301      	adds	r3, #1
 8003922:	7013      	strb	r3, [r2, #0]
 8003924:	e7dc      	b.n	80038e0 <HAL_TIM_IC_CaptureCallback+0x14>
 8003926:	2a01      	cmp	r2, #1
 8003928:	d00e      	beq.n	8003948 <HAL_TIM_IC_CaptureCallback+0x7c>
 800392a:	2a02      	cmp	r2, #2
 800392c:	d1d8      	bne.n	80038e0 <HAL_TIM_IC_CaptureCallback+0x14>
 800392e:	68da      	ldr	r2, [r3, #12]
 8003930:	7813      	ldrb	r3, [r2, #0]
 8003932:	2b00      	cmp	r3, #0
 8003934:	d0d4      	beq.n	80038e0 <HAL_TIM_IC_CaptureCallback+0x14>
 8003936:	3b01      	subs	r3, #1
 8003938:	7013      	strb	r3, [r2, #0]
 800393a:	e7d1      	b.n	80038e0 <HAL_TIM_IC_CaptureCallback+0x14>
 800393c:	685a      	ldr	r2, [r3, #4]
 800393e:	7a19      	ldrb	r1, [r3, #8]
 8003940:	7813      	ldrb	r3, [r2, #0]
 8003942:	4299      	cmp	r1, r3
 8003944:	d9cc      	bls.n	80038e0 <HAL_TIM_IC_CaptureCallback+0x14>
 8003946:	e7eb      	b.n	8003920 <HAL_TIM_IC_CaptureCallback+0x54>
 8003948:	685a      	ldr	r2, [r3, #4]
 800394a:	7a59      	ldrb	r1, [r3, #9]
 800394c:	7813      	ldrb	r3, [r2, #0]
 800394e:	4299      	cmp	r1, r3
 8003950:	d2c6      	bcs.n	80038e0 <HAL_TIM_IC_CaptureCallback+0x14>
 8003952:	e7f0      	b.n	8003936 <HAL_TIM_IC_CaptureCallback+0x6a>
 8003954:	200000b4 	.word	0x200000b4
 8003958:	2000001c 	.word	0x2000001c

0800395c <KEYBOARD_ButtonClick>:
 800395c:	b510      	push	{r4, lr}
 800395e:	4c0c      	ldr	r4, [pc, #48]	; (8003990 <KEYBOARD_ButtonClick+0x34>)
 8003960:	6823      	ldr	r3, [r4, #0]
 8003962:	785a      	ldrb	r2, [r3, #1]
 8003964:	b922      	cbnz	r2, 8003970 <KEYBOARD_ButtonClick+0x14>
 8003966:	e9d3 0209 	ldrd	r0, r2, [r3, #36]	; 0x24
 800396a:	4790      	blx	r2
 800396c:	6020      	str	r0, [r4, #0]
 800396e:	bd10      	pop	{r4, pc}
 8003970:	2a01      	cmp	r2, #1
 8003972:	d007      	beq.n	8003984 <KEYBOARD_ButtonClick+0x28>
 8003974:	2a02      	cmp	r2, #2
 8003976:	d1fa      	bne.n	800396e <KEYBOARD_ButtonClick+0x12>
 8003978:	789a      	ldrb	r2, [r3, #2]
 800397a:	2a02      	cmp	r2, #2
 800397c:	d005      	beq.n	800398a <KEYBOARD_ButtonClick+0x2e>
 800397e:	3201      	adds	r2, #1
 8003980:	709a      	strb	r2, [r3, #2]
 8003982:	bd10      	pop	{r4, pc}
 8003984:	7899      	ldrb	r1, [r3, #2]
 8003986:	2900      	cmp	r1, #0
 8003988:	d0fa      	beq.n	8003980 <KEYBOARD_ButtonClick+0x24>
 800398a:	2200      	movs	r2, #0
 800398c:	709a      	strb	r2, [r3, #2]
 800398e:	bd10      	pop	{r4, pc}
 8003990:	2000001c 	.word	0x2000001c

08003994 <osKernelStart>:
 8003994:	b508      	push	{r3, lr}
 8003996:	f000 fb15 	bl	8003fc4 <vTaskStartScheduler>
 800399a:	2000      	movs	r0, #0
 800399c:	bd08      	pop	{r3, pc}
 800399e:	bf00      	nop

080039a0 <osThreadCreate>:
 80039a0:	b570      	push	{r4, r5, r6, lr}
 80039a2:	6944      	ldr	r4, [r0, #20]
 80039a4:	b086      	sub	sp, #24
 80039a6:	4602      	mov	r2, r0
 80039a8:	460b      	mov	r3, r1
 80039aa:	b18c      	cbz	r4, 80039d0 <osThreadCreate+0x30>
 80039ac:	6986      	ldr	r6, [r0, #24]
 80039ae:	b17e      	cbz	r6, 80039d0 <osThreadCreate+0x30>
 80039b0:	f9b0 5008 	ldrsh.w	r5, [r0, #8]
 80039b4:	6912      	ldr	r2, [r2, #16]
 80039b6:	2d84      	cmp	r5, #132	; 0x84
 80039b8:	bf14      	ite	ne
 80039ba:	3503      	addne	r5, #3
 80039bc:	2500      	moveq	r5, #0
 80039be:	e9d0 1000 	ldrd	r1, r0, [r0]
 80039c2:	e9cd 4601 	strd	r4, r6, [sp, #4]
 80039c6:	9500      	str	r5, [sp, #0]
 80039c8:	f000 f99e 	bl	8003d08 <xTaskCreateStatic>
 80039cc:	b006      	add	sp, #24
 80039ce:	bd70      	pop	{r4, r5, r6, pc}
 80039d0:	f9b2 4008 	ldrsh.w	r4, [r2, #8]
 80039d4:	2c84      	cmp	r4, #132	; 0x84
 80039d6:	bf14      	ite	ne
 80039d8:	3403      	addne	r4, #3
 80039da:	2400      	moveq	r4, #0
 80039dc:	ad05      	add	r5, sp, #20
 80039de:	e9d2 1000 	ldrd	r1, r0, [r2]
 80039e2:	8a12      	ldrh	r2, [r2, #16]
 80039e4:	e9cd 4500 	strd	r4, r5, [sp]
 80039e8:	f000 fa3e 	bl	8003e68 <xTaskCreate>
 80039ec:	2801      	cmp	r0, #1
 80039ee:	bf0c      	ite	eq
 80039f0:	9805      	ldreq	r0, [sp, #20]
 80039f2:	2000      	movne	r0, #0
 80039f4:	b006      	add	sp, #24
 80039f6:	bd70      	pop	{r4, r5, r6, pc}

080039f8 <osDelay>:
 80039f8:	b508      	push	{r3, lr}
 80039fa:	2801      	cmp	r0, #1
 80039fc:	bf38      	it	cc
 80039fe:	2001      	movcc	r0, #1
 8003a00:	f000 fcaa 	bl	8004358 <vTaskDelay>
 8003a04:	2000      	movs	r0, #0
 8003a06:	bd08      	pop	{r3, pc}

08003a08 <vListInitialise>:
 8003a08:	f100 0308 	add.w	r3, r0, #8
 8003a0c:	f04f 31ff 	mov.w	r1, #4294967295
 8003a10:	2200      	movs	r2, #0
 8003a12:	e9c0 3303 	strd	r3, r3, [r0, #12]
 8003a16:	6081      	str	r1, [r0, #8]
 8003a18:	6002      	str	r2, [r0, #0]
 8003a1a:	6043      	str	r3, [r0, #4]
 8003a1c:	4770      	bx	lr
 8003a1e:	bf00      	nop

08003a20 <vListInitialiseItem>:
 8003a20:	2300      	movs	r3, #0
 8003a22:	6103      	str	r3, [r0, #16]
 8003a24:	4770      	bx	lr
 8003a26:	bf00      	nop

08003a28 <vListInsertEnd>:
 8003a28:	6843      	ldr	r3, [r0, #4]
 8003a2a:	6802      	ldr	r2, [r0, #0]
 8003a2c:	b410      	push	{r4}
 8003a2e:	689c      	ldr	r4, [r3, #8]
 8003a30:	608c      	str	r4, [r1, #8]
 8003a32:	689c      	ldr	r4, [r3, #8]
 8003a34:	604b      	str	r3, [r1, #4]
 8003a36:	3201      	adds	r2, #1
 8003a38:	6061      	str	r1, [r4, #4]
 8003a3a:	6099      	str	r1, [r3, #8]
 8003a3c:	f85d 4b04 	ldr.w	r4, [sp], #4
 8003a40:	6108      	str	r0, [r1, #16]
 8003a42:	6002      	str	r2, [r0, #0]
 8003a44:	4770      	bx	lr
 8003a46:	bf00      	nop

08003a48 <vListInsert>:
 8003a48:	b430      	push	{r4, r5}
 8003a4a:	680d      	ldr	r5, [r1, #0]
 8003a4c:	1c6b      	adds	r3, r5, #1
 8003a4e:	d010      	beq.n	8003a72 <vListInsert+0x2a>
 8003a50:	f100 0308 	add.w	r3, r0, #8
 8003a54:	461c      	mov	r4, r3
 8003a56:	685b      	ldr	r3, [r3, #4]
 8003a58:	681a      	ldr	r2, [r3, #0]
 8003a5a:	42aa      	cmp	r2, r5
 8003a5c:	d9fa      	bls.n	8003a54 <vListInsert+0xc>
 8003a5e:	6802      	ldr	r2, [r0, #0]
 8003a60:	604b      	str	r3, [r1, #4]
 8003a62:	3201      	adds	r2, #1
 8003a64:	6099      	str	r1, [r3, #8]
 8003a66:	608c      	str	r4, [r1, #8]
 8003a68:	6061      	str	r1, [r4, #4]
 8003a6a:	6108      	str	r0, [r1, #16]
 8003a6c:	bc30      	pop	{r4, r5}
 8003a6e:	6002      	str	r2, [r0, #0]
 8003a70:	4770      	bx	lr
 8003a72:	6904      	ldr	r4, [r0, #16]
 8003a74:	6863      	ldr	r3, [r4, #4]
 8003a76:	e7f2      	b.n	8003a5e <vListInsert+0x16>

08003a78 <uxListRemove>:
 8003a78:	6903      	ldr	r3, [r0, #16]
 8003a7a:	b410      	push	{r4}
 8003a7c:	e9d0 1201 	ldrd	r1, r2, [r0, #4]
 8003a80:	685c      	ldr	r4, [r3, #4]
 8003a82:	608a      	str	r2, [r1, #8]
 8003a84:	4284      	cmp	r4, r0
 8003a86:	6051      	str	r1, [r2, #4]
 8003a88:	bf08      	it	eq
 8003a8a:	605a      	streq	r2, [r3, #4]
 8003a8c:	681a      	ldr	r2, [r3, #0]
 8003a8e:	f85d 4b04 	ldr.w	r4, [sp], #4
 8003a92:	2100      	movs	r1, #0
 8003a94:	3a01      	subs	r2, #1
 8003a96:	6101      	str	r1, [r0, #16]
 8003a98:	601a      	str	r2, [r3, #0]
 8003a9a:	6818      	ldr	r0, [r3, #0]
 8003a9c:	4770      	bx	lr
 8003a9e:	bf00      	nop

08003aa0 <prvAddNewTaskToReadyList>:
 8003aa0:	e92d 41f0 	stmdb	sp!, {r4, r5, r6, r7, r8, lr}
 8003aa4:	4604      	mov	r4, r0
 8003aa6:	f000 fd25 	bl	80044f4 <vPortEnterCritical>
 8003aaa:	4a38      	ldr	r2, [pc, #224]	; (8003b8c <prvAddNewTaskToReadyList+0xec>)
 8003aac:	4d38      	ldr	r5, [pc, #224]	; (8003b90 <prvAddNewTaskToReadyList+0xf0>)
 8003aae:	6813      	ldr	r3, [r2, #0]
 8003ab0:	3301      	adds	r3, #1
 8003ab2:	6013      	str	r3, [r2, #0]
 8003ab4:	682b      	ldr	r3, [r5, #0]
 8003ab6:	2b00      	cmp	r3, #0
 8003ab8:	d031      	beq.n	8003b1e <prvAddNewTaskToReadyList+0x7e>
 8003aba:	4e36      	ldr	r6, [pc, #216]	; (8003b94 <prvAddNewTaskToReadyList+0xf4>)
 8003abc:	6833      	ldr	r3, [r6, #0]
 8003abe:	b33b      	cbz	r3, 8003b10 <prvAddNewTaskToReadyList+0x70>
 8003ac0:	6ae3      	ldr	r3, [r4, #44]	; 0x2c
 8003ac2:	4a35      	ldr	r2, [pc, #212]	; (8003b98 <prvAddNewTaskToReadyList+0xf8>)
 8003ac4:	4f35      	ldr	r7, [pc, #212]	; (8003b9c <prvAddNewTaskToReadyList+0xfc>)
 8003ac6:	6811      	ldr	r1, [r2, #0]
 8003ac8:	f8d7 c000 	ldr.w	ip, [r7]
 8003acc:	4834      	ldr	r0, [pc, #208]	; (8003ba0 <prvAddNewTaskToReadyList+0x100>)
 8003ace:	3101      	adds	r1, #1
 8003ad0:	6011      	str	r1, [r2, #0]
 8003ad2:	2201      	movs	r2, #1
 8003ad4:	409a      	lsls	r2, r3
 8003ad6:	eb03 0383 	add.w	r3, r3, r3, lsl #2
 8003ada:	ea42 020c 	orr.w	r2, r2, ip
 8003ade:	eb00 0083 	add.w	r0, r0, r3, lsl #2
 8003ae2:	1d21      	adds	r1, r4, #4
 8003ae4:	603a      	str	r2, [r7, #0]
 8003ae6:	f7ff ff9f 	bl	8003a28 <vListInsertEnd>
 8003aea:	f000 fd25 	bl	8004538 <vPortExitCritical>
 8003aee:	6833      	ldr	r3, [r6, #0]
 8003af0:	b163      	cbz	r3, 8003b0c <prvAddNewTaskToReadyList+0x6c>
 8003af2:	682a      	ldr	r2, [r5, #0]
 8003af4:	6ae3      	ldr	r3, [r4, #44]	; 0x2c
 8003af6:	6ad2      	ldr	r2, [r2, #44]	; 0x2c
 8003af8:	429a      	cmp	r2, r3
 8003afa:	d207      	bcs.n	8003b0c <prvAddNewTaskToReadyList+0x6c>
 8003afc:	4b29      	ldr	r3, [pc, #164]	; (8003ba4 <prvAddNewTaskToReadyList+0x104>)
 8003afe:	f04f 5280 	mov.w	r2, #268435456	; 0x10000000
 8003b02:	601a      	str	r2, [r3, #0]
 8003b04:	f3bf 8f4f 	dsb	sy
 8003b08:	f3bf 8f6f 	isb	sy
 8003b0c:	e8bd 81f0 	ldmia.w	sp!, {r4, r5, r6, r7, r8, pc}
 8003b10:	682a      	ldr	r2, [r5, #0]
 8003b12:	6ae3      	ldr	r3, [r4, #44]	; 0x2c
 8003b14:	6ad2      	ldr	r2, [r2, #44]	; 0x2c
 8003b16:	429a      	cmp	r2, r3
 8003b18:	bf98      	it	ls
 8003b1a:	602c      	strls	r4, [r5, #0]
 8003b1c:	e7d1      	b.n	8003ac2 <prvAddNewTaskToReadyList+0x22>
 8003b1e:	602c      	str	r4, [r5, #0]
 8003b20:	6813      	ldr	r3, [r2, #0]
 8003b22:	2b01      	cmp	r3, #1
 8003b24:	d002      	beq.n	8003b2c <prvAddNewTaskToReadyList+0x8c>
 8003b26:	6ae3      	ldr	r3, [r4, #44]	; 0x2c
 8003b28:	4e1a      	ldr	r6, [pc, #104]	; (8003b94 <prvAddNewTaskToReadyList+0xf4>)
 8003b2a:	e7ca      	b.n	8003ac2 <prvAddNewTaskToReadyList+0x22>
 8003b2c:	481c      	ldr	r0, [pc, #112]	; (8003ba0 <prvAddNewTaskToReadyList+0x100>)
 8003b2e:	f8df 80a8 	ldr.w	r8, [pc, #168]	; 8003bd8 <prvAddNewTaskToReadyList+0x138>
 8003b32:	4f1d      	ldr	r7, [pc, #116]	; (8003ba8 <prvAddNewTaskToReadyList+0x108>)
 8003b34:	4e17      	ldr	r6, [pc, #92]	; (8003b94 <prvAddNewTaskToReadyList+0xf4>)
 8003b36:	f7ff ff67 	bl	8003a08 <vListInitialise>
 8003b3a:	481c      	ldr	r0, [pc, #112]	; (8003bac <prvAddNewTaskToReadyList+0x10c>)
 8003b3c:	f7ff ff64 	bl	8003a08 <vListInitialise>
 8003b40:	481b      	ldr	r0, [pc, #108]	; (8003bb0 <prvAddNewTaskToReadyList+0x110>)
 8003b42:	f7ff ff61 	bl	8003a08 <vListInitialise>
 8003b46:	481b      	ldr	r0, [pc, #108]	; (8003bb4 <prvAddNewTaskToReadyList+0x114>)
 8003b48:	f7ff ff5e 	bl	8003a08 <vListInitialise>
 8003b4c:	481a      	ldr	r0, [pc, #104]	; (8003bb8 <prvAddNewTaskToReadyList+0x118>)
 8003b4e:	f7ff ff5b 	bl	8003a08 <vListInitialise>
 8003b52:	481a      	ldr	r0, [pc, #104]	; (8003bbc <prvAddNewTaskToReadyList+0x11c>)
 8003b54:	f7ff ff58 	bl	8003a08 <vListInitialise>
 8003b58:	4819      	ldr	r0, [pc, #100]	; (8003bc0 <prvAddNewTaskToReadyList+0x120>)
 8003b5a:	f7ff ff55 	bl	8003a08 <vListInitialise>
 8003b5e:	4640      	mov	r0, r8
 8003b60:	f7ff ff52 	bl	8003a08 <vListInitialise>
 8003b64:	4638      	mov	r0, r7
 8003b66:	f7ff ff4f 	bl	8003a08 <vListInitialise>
 8003b6a:	4816      	ldr	r0, [pc, #88]	; (8003bc4 <prvAddNewTaskToReadyList+0x124>)
 8003b6c:	f7ff ff4c 	bl	8003a08 <vListInitialise>
 8003b70:	4815      	ldr	r0, [pc, #84]	; (8003bc8 <prvAddNewTaskToReadyList+0x128>)
 8003b72:	f7ff ff49 	bl	8003a08 <vListInitialise>
 8003b76:	4815      	ldr	r0, [pc, #84]	; (8003bcc <prvAddNewTaskToReadyList+0x12c>)
 8003b78:	f7ff ff46 	bl	8003a08 <vListInitialise>
 8003b7c:	4b14      	ldr	r3, [pc, #80]	; (8003bd0 <prvAddNewTaskToReadyList+0x130>)
 8003b7e:	4a15      	ldr	r2, [pc, #84]	; (8003bd4 <prvAddNewTaskToReadyList+0x134>)
 8003b80:	f8c2 8000 	str.w	r8, [r2]
 8003b84:	601f      	str	r7, [r3, #0]
 8003b86:	6ae3      	ldr	r3, [r4, #44]	; 0x2c
 8003b88:	e79b      	b.n	8003ac2 <prvAddNewTaskToReadyList+0x22>
 8003b8a:	bf00      	nop
 8003b8c:	20000150 	.word	0x20000150
 8003b90:	200000b8 	.word	0x200000b8
 8003b94:	200001ac 	.word	0x200001ac
 8003b98:	20000160 	.word	0x20000160
 8003b9c:	20000164 	.word	0x20000164
 8003ba0:	200000c4 	.word	0x200000c4
 8003ba4:	e000ed04 	.word	0xe000ed04
 8003ba8:	2000017c 	.word	0x2000017c
 8003bac:	200000d8 	.word	0x200000d8
 8003bb0:	200000ec 	.word	0x200000ec
 8003bb4:	20000100 	.word	0x20000100
 8003bb8:	20000114 	.word	0x20000114
 8003bbc:	20000128 	.word	0x20000128
 8003bc0:	2000013c 	.word	0x2000013c
 8003bc4:	20000198 	.word	0x20000198
 8003bc8:	200001c4 	.word	0x200001c4
 8003bcc:	200001b0 	.word	0x200001b0
 8003bd0:	200000c0 	.word	0x200000c0
 8003bd4:	200000bc 	.word	0x200000bc
 8003bd8:	20000168 	.word	0x20000168

08003bdc <prvAddCurrentTaskToDelayedList>:
 8003bdc:	b5f8      	push	{r3, r4, r5, r6, r7, lr}
 8003bde:	4b1b      	ldr	r3, [pc, #108]	; (8003c4c <prvAddCurrentTaskToDelayedList+0x70>)
 8003be0:	4e1b      	ldr	r6, [pc, #108]	; (8003c50 <prvAddCurrentTaskToDelayedList+0x74>)
 8003be2:	681d      	ldr	r5, [r3, #0]
 8003be4:	6833      	ldr	r3, [r6, #0]
 8003be6:	4604      	mov	r4, r0
 8003be8:	1d18      	adds	r0, r3, #4
 8003bea:	460f      	mov	r7, r1
 8003bec:	f7ff ff44 	bl	8003a78 <uxListRemove>
 8003bf0:	b940      	cbnz	r0, 8003c04 <prvAddCurrentTaskToDelayedList+0x28>
 8003bf2:	6833      	ldr	r3, [r6, #0]
 8003bf4:	4917      	ldr	r1, [pc, #92]	; (8003c54 <prvAddCurrentTaskToDelayedList+0x78>)
 8003bf6:	6ad8      	ldr	r0, [r3, #44]	; 0x2c
 8003bf8:	680b      	ldr	r3, [r1, #0]
 8003bfa:	2201      	movs	r2, #1
 8003bfc:	4082      	lsls	r2, r0
 8003bfe:	ea23 0302 	bic.w	r3, r3, r2
 8003c02:	600b      	str	r3, [r1, #0]
 8003c04:	1c63      	adds	r3, r4, #1
 8003c06:	d017      	beq.n	8003c38 <prvAddCurrentTaskToDelayedList+0x5c>
 8003c08:	6833      	ldr	r3, [r6, #0]
 8003c0a:	192c      	adds	r4, r5, r4
 8003c0c:	605c      	str	r4, [r3, #4]
 8003c0e:	d307      	bcc.n	8003c20 <prvAddCurrentTaskToDelayedList+0x44>
 8003c10:	4b11      	ldr	r3, [pc, #68]	; (8003c58 <prvAddCurrentTaskToDelayedList+0x7c>)
 8003c12:	6818      	ldr	r0, [r3, #0]
 8003c14:	6831      	ldr	r1, [r6, #0]
 8003c16:	e8bd 40f8 	ldmia.w	sp!, {r3, r4, r5, r6, r7, lr}
 8003c1a:	3104      	adds	r1, #4
 8003c1c:	f7ff bf14 	b.w	8003a48 <vListInsert>
 8003c20:	4b0e      	ldr	r3, [pc, #56]	; (8003c5c <prvAddCurrentTaskToDelayedList+0x80>)
 8003c22:	6818      	ldr	r0, [r3, #0]
 8003c24:	6831      	ldr	r1, [r6, #0]
 8003c26:	3104      	adds	r1, #4
 8003c28:	f7ff ff0e 	bl	8003a48 <vListInsert>
 8003c2c:	4b0c      	ldr	r3, [pc, #48]	; (8003c60 <prvAddCurrentTaskToDelayedList+0x84>)
 8003c2e:	681a      	ldr	r2, [r3, #0]
 8003c30:	42a2      	cmp	r2, r4
 8003c32:	bf88      	it	hi
 8003c34:	601c      	strhi	r4, [r3, #0]
 8003c36:	bdf8      	pop	{r3, r4, r5, r6, r7, pc}
 8003c38:	2f00      	cmp	r7, #0
 8003c3a:	d0e5      	beq.n	8003c08 <prvAddCurrentTaskToDelayedList+0x2c>
 8003c3c:	6831      	ldr	r1, [r6, #0]
 8003c3e:	4809      	ldr	r0, [pc, #36]	; (8003c64 <prvAddCurrentTaskToDelayedList+0x88>)
 8003c40:	e8bd 40f8 	ldmia.w	sp!, {r3, r4, r5, r6, r7, lr}
 8003c44:	3104      	adds	r1, #4
 8003c46:	f7ff beef 	b.w	8003a28 <vListInsertEnd>
 8003c4a:	bf00      	nop
 8003c4c:	200001d8 	.word	0x200001d8
 8003c50:	200000b8 	.word	0x200000b8
 8003c54:	20000164 	.word	0x20000164
 8003c58:	200000c0 	.word	0x200000c0
 8003c5c:	200000bc 	.word	0x200000bc
 8003c60:	20000190 	.word	0x20000190
 8003c64:	200001b0 	.word	0x200001b0

08003c68 <prvIdleTask>:
 8003c68:	4d22      	ldr	r5, [pc, #136]	; (8003cf4 <prvIdleTask+0x8c>)
 8003c6a:	f8df a090 	ldr.w	sl, [pc, #144]	; 8003cfc <prvIdleTask+0x94>
 8003c6e:	4e22      	ldr	r6, [pc, #136]	; (8003cf8 <prvIdleTask+0x90>)
 8003c70:	f8df 908c 	ldr.w	r9, [pc, #140]	; 8003d00 <prvIdleTask+0x98>
 8003c74:	f8df 808c 	ldr.w	r8, [pc, #140]	; 8003d04 <prvIdleTask+0x9c>
 8003c78:	b580      	push	{r7, lr}
 8003c7a:	f04f 5780 	mov.w	r7, #268435456	; 0x10000000
 8003c7e:	682b      	ldr	r3, [r5, #0]
 8003c80:	b343      	cbz	r3, 8003cd4 <prvIdleTask+0x6c>
 8003c82:	f000 fc37 	bl	80044f4 <vPortEnterCritical>
 8003c86:	f8da 300c 	ldr.w	r3, [sl, #12]
 8003c8a:	68dc      	ldr	r4, [r3, #12]
 8003c8c:	1d20      	adds	r0, r4, #4
 8003c8e:	f7ff fef3 	bl	8003a78 <uxListRemove>
 8003c92:	6833      	ldr	r3, [r6, #0]
 8003c94:	3b01      	subs	r3, #1
 8003c96:	6033      	str	r3, [r6, #0]
 8003c98:	682b      	ldr	r3, [r5, #0]
 8003c9a:	3b01      	subs	r3, #1
 8003c9c:	602b      	str	r3, [r5, #0]
 8003c9e:	f000 fc4b 	bl	8004538 <vPortExitCritical>
 8003ca2:	f894 3051 	ldrb.w	r3, [r4, #81]	; 0x51
 8003ca6:	b163      	cbz	r3, 8003cc2 <prvIdleTask+0x5a>
 8003ca8:	2b01      	cmp	r3, #1
 8003caa:	d01e      	beq.n	8003cea <prvIdleTask+0x82>
 8003cac:	2b02      	cmp	r3, #2
 8003cae:	d0e6      	beq.n	8003c7e <prvIdleTask+0x16>
 8003cb0:	f04f 0350 	mov.w	r3, #80	; 0x50
 8003cb4:	f383 8811 	msr	BASEPRI, r3
 8003cb8:	f3bf 8f6f 	isb	sy
 8003cbc:	f3bf 8f4f 	dsb	sy
 8003cc0:	e7fe      	b.n	8003cc0 <prvIdleTask+0x58>
 8003cc2:	6b20      	ldr	r0, [r4, #48]	; 0x30
 8003cc4:	f000 fe02 	bl	80048cc <vPortFree>
 8003cc8:	4620      	mov	r0, r4
 8003cca:	f000 fdff 	bl	80048cc <vPortFree>
 8003cce:	682b      	ldr	r3, [r5, #0]
 8003cd0:	2b00      	cmp	r3, #0
 8003cd2:	d1d6      	bne.n	8003c82 <prvIdleTask+0x1a>
 8003cd4:	f8d9 3000 	ldr.w	r3, [r9]
 8003cd8:	2b01      	cmp	r3, #1
 8003cda:	d9d0      	bls.n	8003c7e <prvIdleTask+0x16>
 8003cdc:	f8c8 7000 	str.w	r7, [r8]
 8003ce0:	f3bf 8f4f 	dsb	sy
 8003ce4:	f3bf 8f6f 	isb	sy
 8003ce8:	e7c9      	b.n	8003c7e <prvIdleTask+0x16>
 8003cea:	4620      	mov	r0, r4
 8003cec:	f000 fdee 	bl	80048cc <vPortFree>
 8003cf0:	e7c5      	b.n	8003c7e <prvIdleTask+0x16>
 8003cf2:	bf00      	nop
 8003cf4:	20000154 	.word	0x20000154
 8003cf8:	20000150 	.word	0x20000150
 8003cfc:	200001c4 	.word	0x200001c4
 8003d00:	200000c4 	.word	0x200000c4
 8003d04:	e000ed04 	.word	0xe000ed04

08003d08 <xTaskCreateStatic>:
 8003d08:	e92d 41f0 	stmdb	sp!, {r4, r5, r6, r7, r8, lr}
 8003d0c:	b084      	sub	sp, #16
 8003d0e:	e9dd 640b 	ldrd	r6, r4, [sp, #44]	; 0x2c
 8003d12:	b1ce      	cbz	r6, 8003d48 <xTaskCreateStatic+0x40>
 8003d14:	b17c      	cbz	r4, 8003d36 <xTaskCreateStatic+0x2e>
 8003d16:	4617      	mov	r7, r2
 8003d18:	461a      	mov	r2, r3
 8003d1a:	2354      	movs	r3, #84	; 0x54
 8003d1c:	9303      	str	r3, [sp, #12]
 8003d1e:	9b03      	ldr	r3, [sp, #12]
 8003d20:	2b54      	cmp	r3, #84	; 0x54
 8003d22:	d01a      	beq.n	8003d5a <xTaskCreateStatic+0x52>
 8003d24:	f04f 0350 	mov.w	r3, #80	; 0x50
 8003d28:	f383 8811 	msr	BASEPRI, r3
 8003d2c:	f3bf 8f6f 	isb	sy
 8003d30:	f3bf 8f4f 	dsb	sy
 8003d34:	e7fe      	b.n	8003d34 <xTaskCreateStatic+0x2c>
 8003d36:	f04f 0350 	mov.w	r3, #80	; 0x50
 8003d3a:	f383 8811 	msr	BASEPRI, r3
 8003d3e:	f3bf 8f6f 	isb	sy
 8003d42:	f3bf 8f4f 	dsb	sy
 8003d46:	e7fe      	b.n	8003d46 <xTaskCreateStatic+0x3e>
 8003d48:	f04f 0350 	mov.w	r3, #80	; 0x50
 8003d4c:	f383 8811 	msr	BASEPRI, r3
 8003d50:	f3bf 8f6f 	isb	sy
 8003d54:	f3bf 8f4f 	dsb	sy
 8003d58:	e7fe      	b.n	8003d58 <xTaskCreateStatic+0x50>
 8003d5a:	2302      	movs	r3, #2
 8003d5c:	6326      	str	r6, [r4, #48]	; 0x30
 8003d5e:	f884 3051 	strb.w	r3, [r4, #81]	; 0x51
 8003d62:	780b      	ldrb	r3, [r1, #0]
 8003d64:	f884 3034 	strb.w	r3, [r4, #52]	; 0x34
 8003d68:	f107 4780 	add.w	r7, r7, #1073741824	; 0x40000000
 8003d6c:	3f01      	subs	r7, #1
 8003d6e:	780b      	ldrb	r3, [r1, #0]
 8003d70:	eb06 0787 	add.w	r7, r6, r7, lsl #2
 8003d74:	4680      	mov	r8, r0
 8003d76:	f027 0707 	bic.w	r7, r7, #7
 8003d7a:	2b00      	cmp	r3, #0
 8003d7c:	d04d      	beq.n	8003e1a <xTaskCreateStatic+0x112>
 8003d7e:	784b      	ldrb	r3, [r1, #1]
 8003d80:	f884 3035 	strb.w	r3, [r4, #53]	; 0x35
 8003d84:	784b      	ldrb	r3, [r1, #1]
 8003d86:	2b00      	cmp	r3, #0
 8003d88:	d047      	beq.n	8003e1a <xTaskCreateStatic+0x112>
 8003d8a:	788b      	ldrb	r3, [r1, #2]
 8003d8c:	f884 3036 	strb.w	r3, [r4, #54]	; 0x36
 8003d90:	788b      	ldrb	r3, [r1, #2]
 8003d92:	2b00      	cmp	r3, #0
 8003d94:	d041      	beq.n	8003e1a <xTaskCreateStatic+0x112>
 8003d96:	78cb      	ldrb	r3, [r1, #3]
 8003d98:	f884 3037 	strb.w	r3, [r4, #55]	; 0x37
 8003d9c:	78cb      	ldrb	r3, [r1, #3]
 8003d9e:	2b00      	cmp	r3, #0
 8003da0:	d03b      	beq.n	8003e1a <xTaskCreateStatic+0x112>
 8003da2:	790b      	ldrb	r3, [r1, #4]
 8003da4:	f884 3038 	strb.w	r3, [r4, #56]	; 0x38
 8003da8:	790b      	ldrb	r3, [r1, #4]
 8003daa:	2b00      	cmp	r3, #0
 8003dac:	d035      	beq.n	8003e1a <xTaskCreateStatic+0x112>
 8003dae:	794b      	ldrb	r3, [r1, #5]
 8003db0:	f884 3039 	strb.w	r3, [r4, #57]	; 0x39
 8003db4:	794b      	ldrb	r3, [r1, #5]
 8003db6:	2b00      	cmp	r3, #0
 8003db8:	d02f      	beq.n	8003e1a <xTaskCreateStatic+0x112>
 8003dba:	798b      	ldrb	r3, [r1, #6]
 8003dbc:	f884 303a 	strb.w	r3, [r4, #58]	; 0x3a
 8003dc0:	798b      	ldrb	r3, [r1, #6]
 8003dc2:	b353      	cbz	r3, 8003e1a <xTaskCreateStatic+0x112>
 8003dc4:	79cb      	ldrb	r3, [r1, #7]
 8003dc6:	f884 303b 	strb.w	r3, [r4, #59]	; 0x3b
 8003dca:	79cb      	ldrb	r3, [r1, #7]
 8003dcc:	b32b      	cbz	r3, 8003e1a <xTaskCreateStatic+0x112>
 8003dce:	7a0b      	ldrb	r3, [r1, #8]
 8003dd0:	f884 303c 	strb.w	r3, [r4, #60]	; 0x3c
 8003dd4:	7a0b      	ldrb	r3, [r1, #8]
 8003dd6:	b303      	cbz	r3, 8003e1a <xTaskCreateStatic+0x112>
 8003dd8:	7a4b      	ldrb	r3, [r1, #9]
 8003dda:	f884 303d 	strb.w	r3, [r4, #61]	; 0x3d
 8003dde:	7a4b      	ldrb	r3, [r1, #9]
 8003de0:	b1db      	cbz	r3, 8003e1a <xTaskCreateStatic+0x112>
 8003de2:	7a8b      	ldrb	r3, [r1, #10]
 8003de4:	f884 303e 	strb.w	r3, [r4, #62]	; 0x3e
 8003de8:	7a8b      	ldrb	r3, [r1, #10]
 8003dea:	b1b3      	cbz	r3, 8003e1a <xTaskCreateStatic+0x112>
 8003dec:	7acb      	ldrb	r3, [r1, #11]
 8003dee:	f884 303f 	strb.w	r3, [r4, #63]	; 0x3f
 8003df2:	7acb      	ldrb	r3, [r1, #11]
 8003df4:	b18b      	cbz	r3, 8003e1a <xTaskCreateStatic+0x112>
 8003df6:	7b0b      	ldrb	r3, [r1, #12]
 8003df8:	f884 3040 	strb.w	r3, [r4, #64]	; 0x40
 8003dfc:	7b0b      	ldrb	r3, [r1, #12]
 8003dfe:	b163      	cbz	r3, 8003e1a <xTaskCreateStatic+0x112>
 8003e00:	7b4b      	ldrb	r3, [r1, #13]
 8003e02:	f884 3041 	strb.w	r3, [r4, #65]	; 0x41
 8003e06:	7b4b      	ldrb	r3, [r1, #13]
 8003e08:	b13b      	cbz	r3, 8003e1a <xTaskCreateStatic+0x112>
 8003e0a:	7b8b      	ldrb	r3, [r1, #14]
 8003e0c:	f884 3042 	strb.w	r3, [r4, #66]	; 0x42
 8003e10:	7b8b      	ldrb	r3, [r1, #14]
 8003e12:	b113      	cbz	r3, 8003e1a <xTaskCreateStatic+0x112>
 8003e14:	7bcb      	ldrb	r3, [r1, #15]
 8003e16:	f884 3043 	strb.w	r3, [r4, #67]	; 0x43
 8003e1a:	9d0a      	ldr	r5, [sp, #40]	; 0x28
 8003e1c:	9201      	str	r2, [sp, #4]
 8003e1e:	2d06      	cmp	r5, #6
 8003e20:	bf28      	it	cs
 8003e22:	2506      	movcs	r5, #6
 8003e24:	2600      	movs	r6, #0
 8003e26:	62e5      	str	r5, [r4, #44]	; 0x2c
 8003e28:	6465      	str	r5, [r4, #68]	; 0x44
 8003e2a:	1d20      	adds	r0, r4, #4
 8003e2c:	f884 6043 	strb.w	r6, [r4, #67]	; 0x43
 8003e30:	64a6      	str	r6, [r4, #72]	; 0x48
 8003e32:	f7ff fdf5 	bl	8003a20 <vListInitialiseItem>
 8003e36:	f1c5 0507 	rsb	r5, r5, #7
 8003e3a:	f104 0018 	add.w	r0, r4, #24
 8003e3e:	f7ff fdef 	bl	8003a20 <vListInitialiseItem>
 8003e42:	9a01      	ldr	r2, [sp, #4]
 8003e44:	64e6      	str	r6, [r4, #76]	; 0x4c
 8003e46:	4641      	mov	r1, r8
 8003e48:	61a5      	str	r5, [r4, #24]
 8003e4a:	6124      	str	r4, [r4, #16]
 8003e4c:	f884 6050 	strb.w	r6, [r4, #80]	; 0x50
 8003e50:	6264      	str	r4, [r4, #36]	; 0x24
 8003e52:	4638      	mov	r0, r7
 8003e54:	f000 fb1e 	bl	8004494 <pxPortInitialiseStack>
 8003e58:	6020      	str	r0, [r4, #0]
 8003e5a:	4620      	mov	r0, r4
 8003e5c:	f7ff fe20 	bl	8003aa0 <prvAddNewTaskToReadyList>
 8003e60:	4620      	mov	r0, r4
 8003e62:	b004      	add	sp, #16
 8003e64:	e8bd 81f0 	ldmia.w	sp!, {r4, r5, r6, r7, r8, pc}

08003e68 <xTaskCreate>:
 8003e68:	e92d 47f0 	stmdb	sp!, {r4, r5, r6, r7, r8, r9, sl, lr}
 8003e6c:	0097      	lsls	r7, r2, #2
 8003e6e:	4605      	mov	r5, r0
 8003e70:	4638      	mov	r0, r7
 8003e72:	460c      	mov	r4, r1
 8003e74:	461e      	mov	r6, r3
 8003e76:	f000 fc75 	bl	8004764 <pvPortMalloc>
 8003e7a:	2800      	cmp	r0, #0
 8003e7c:	f000 8097 	beq.w	8003fae <xTaskCreate+0x146>
 8003e80:	4681      	mov	r9, r0
 8003e82:	2054      	movs	r0, #84	; 0x54
 8003e84:	f000 fc6e 	bl	8004764 <pvPortMalloc>
 8003e88:	4680      	mov	r8, r0
 8003e8a:	2800      	cmp	r0, #0
 8003e8c:	f000 8093 	beq.w	8003fb6 <xTaskCreate+0x14e>
 8003e90:	2300      	movs	r3, #0
 8003e92:	f8c0 9030 	str.w	r9, [r0, #48]	; 0x30
 8003e96:	f880 3051 	strb.w	r3, [r0, #81]	; 0x51
 8003e9a:	7823      	ldrb	r3, [r4, #0]
 8003e9c:	f880 3034 	strb.w	r3, [r0, #52]	; 0x34
 8003ea0:	7823      	ldrb	r3, [r4, #0]
 8003ea2:	2b00      	cmp	r3, #0
 8003ea4:	d04d      	beq.n	8003f42 <xTaskCreate+0xda>
 8003ea6:	7863      	ldrb	r3, [r4, #1]
 8003ea8:	f880 3035 	strb.w	r3, [r0, #53]	; 0x35
 8003eac:	7863      	ldrb	r3, [r4, #1]
 8003eae:	2b00      	cmp	r3, #0
 8003eb0:	d047      	beq.n	8003f42 <xTaskCreate+0xda>
 8003eb2:	78a3      	ldrb	r3, [r4, #2]
 8003eb4:	f880 3036 	strb.w	r3, [r0, #54]	; 0x36
 8003eb8:	78a3      	ldrb	r3, [r4, #2]
 8003eba:	2b00      	cmp	r3, #0
 8003ebc:	d041      	beq.n	8003f42 <xTaskCreate+0xda>
 8003ebe:	78e3      	ldrb	r3, [r4, #3]
 8003ec0:	f880 3037 	strb.w	r3, [r0, #55]	; 0x37
 8003ec4:	78e3      	ldrb	r3, [r4, #3]
 8003ec6:	2b00      	cmp	r3, #0
 8003ec8:	d03b      	beq.n	8003f42 <xTaskCreate+0xda>
 8003eca:	7923      	ldrb	r3, [r4, #4]
 8003ecc:	f880 3038 	strb.w	r3, [r0, #56]	; 0x38
 8003ed0:	7923      	ldrb	r3, [r4, #4]
 8003ed2:	2b00      	cmp	r3, #0
 8003ed4:	d035      	beq.n	8003f42 <xTaskCreate+0xda>
 8003ed6:	7963      	ldrb	r3, [r4, #5]
 8003ed8:	f880 3039 	strb.w	r3, [r0, #57]	; 0x39
 8003edc:	7963      	ldrb	r3, [r4, #5]
 8003ede:	2b00      	cmp	r3, #0
 8003ee0:	d02f      	beq.n	8003f42 <xTaskCreate+0xda>
 8003ee2:	79a3      	ldrb	r3, [r4, #6]
 8003ee4:	f880 303a 	strb.w	r3, [r0, #58]	; 0x3a
 8003ee8:	79a3      	ldrb	r3, [r4, #6]
 8003eea:	b353      	cbz	r3, 8003f42 <xTaskCreate+0xda>
 8003eec:	79e3      	ldrb	r3, [r4, #7]
 8003eee:	f880 303b 	strb.w	r3, [r0, #59]	; 0x3b
 8003ef2:	79e3      	ldrb	r3, [r4, #7]
 8003ef4:	b32b      	cbz	r3, 8003f42 <xTaskCreate+0xda>
 8003ef6:	7a23      	ldrb	r3, [r4, #8]
 8003ef8:	f880 303c 	strb.w	r3, [r0, #60]	; 0x3c
 8003efc:	7a23      	ldrb	r3, [r4, #8]
 8003efe:	b303      	cbz	r3, 8003f42 <xTaskCreate+0xda>
 8003f00:	7a63      	ldrb	r3, [r4, #9]
 8003f02:	f880 303d 	strb.w	r3, [r0, #61]	; 0x3d
 8003f06:	7a63      	ldrb	r3, [r4, #9]
 8003f08:	b1db      	cbz	r3, 8003f42 <xTaskCreate+0xda>
 8003f0a:	7aa3      	ldrb	r3, [r4, #10]
 8003f0c:	f880 303e 	strb.w	r3, [r0, #62]	; 0x3e
 8003f10:	7aa3      	ldrb	r3, [r4, #10]
 8003f12:	b1b3      	cbz	r3, 8003f42 <xTaskCreate+0xda>
 8003f14:	7ae3      	ldrb	r3, [r4, #11]
 8003f16:	f880 303f 	strb.w	r3, [r0, #63]	; 0x3f
 8003f1a:	7ae3      	ldrb	r3, [r4, #11]
 8003f1c:	b18b      	cbz	r3, 8003f42 <xTaskCreate+0xda>
 8003f1e:	7b23      	ldrb	r3, [r4, #12]
 8003f20:	f880 3040 	strb.w	r3, [r0, #64]	; 0x40
 8003f24:	7b23      	ldrb	r3, [r4, #12]
 8003f26:	b163      	cbz	r3, 8003f42 <xTaskCreate+0xda>
 8003f28:	7b63      	ldrb	r3, [r4, #13]
 8003f2a:	f880 3041 	strb.w	r3, [r0, #65]	; 0x41
 8003f2e:	7b63      	ldrb	r3, [r4, #13]
 8003f30:	b13b      	cbz	r3, 8003f42 <xTaskCreate+0xda>
 8003f32:	7ba3      	ldrb	r3, [r4, #14]
 8003f34:	f880 3042 	strb.w	r3, [r0, #66]	; 0x42
 8003f38:	7ba3      	ldrb	r3, [r4, #14]
 8003f3a:	b113      	cbz	r3, 8003f42 <xTaskCreate+0xda>
 8003f3c:	7be3      	ldrb	r3, [r4, #15]
 8003f3e:	f880 3043 	strb.w	r3, [r0, #67]	; 0x43
 8003f42:	9c08      	ldr	r4, [sp, #32]
 8003f44:	2c06      	cmp	r4, #6
 8003f46:	bf28      	it	cs
 8003f48:	2406      	movcs	r4, #6
 8003f4a:	f04f 0a00 	mov.w	sl, #0
 8003f4e:	f8c8 402c 	str.w	r4, [r8, #44]	; 0x2c
 8003f52:	f8c8 4044 	str.w	r4, [r8, #68]	; 0x44
 8003f56:	f108 0004 	add.w	r0, r8, #4
 8003f5a:	f888 a043 	strb.w	sl, [r8, #67]	; 0x43
 8003f5e:	f8c8 a048 	str.w	sl, [r8, #72]	; 0x48
 8003f62:	f7ff fd5d 	bl	8003a20 <vListInitialiseItem>
 8003f66:	f108 0018 	add.w	r0, r8, #24
 8003f6a:	f7ff fd59 	bl	8003a20 <vListInitialiseItem>
 8003f6e:	1f39      	subs	r1, r7, #4
 8003f70:	4449      	add	r1, r9
 8003f72:	f1c4 0407 	rsb	r4, r4, #7
 8003f76:	f8c8 a04c 	str.w	sl, [r8, #76]	; 0x4c
 8003f7a:	f021 0007 	bic.w	r0, r1, #7
 8003f7e:	f8c8 4018 	str.w	r4, [r8, #24]
 8003f82:	f888 a050 	strb.w	sl, [r8, #80]	; 0x50
 8003f86:	f8c8 8010 	str.w	r8, [r8, #16]
 8003f8a:	f8c8 8024 	str.w	r8, [r8, #36]	; 0x24
 8003f8e:	4632      	mov	r2, r6
 8003f90:	4629      	mov	r1, r5
 8003f92:	f000 fa7f 	bl	8004494 <pxPortInitialiseStack>
 8003f96:	9b09      	ldr	r3, [sp, #36]	; 0x24
 8003f98:	f8c8 0000 	str.w	r0, [r8]
 8003f9c:	b10b      	cbz	r3, 8003fa2 <xTaskCreate+0x13a>
 8003f9e:	f8c3 8000 	str.w	r8, [r3]
 8003fa2:	4640      	mov	r0, r8
 8003fa4:	f7ff fd7c 	bl	8003aa0 <prvAddNewTaskToReadyList>
 8003fa8:	2001      	movs	r0, #1
 8003faa:	e8bd 87f0 	ldmia.w	sp!, {r4, r5, r6, r7, r8, r9, sl, pc}
 8003fae:	f04f 30ff 	mov.w	r0, #4294967295
 8003fb2:	e8bd 87f0 	ldmia.w	sp!, {r4, r5, r6, r7, r8, r9, sl, pc}
 8003fb6:	4648      	mov	r0, r9
 8003fb8:	f000 fc88 	bl	80048cc <vPortFree>
 8003fbc:	f04f 30ff 	mov.w	r0, #4294967295
 8003fc0:	e7f3      	b.n	8003faa <xTaskCreate+0x142>
 8003fc2:	bf00      	nop

08003fc4 <vTaskStartScheduler>:
 8003fc4:	b570      	push	{r4, r5, r6, lr}
 8003fc6:	b084      	sub	sp, #16
 8003fc8:	2400      	movs	r4, #0
 8003fca:	aa02      	add	r2, sp, #8
 8003fcc:	a901      	add	r1, sp, #4
 8003fce:	4668      	mov	r0, sp
 8003fd0:	e9cd 4400 	strd	r4, r4, [sp]
 8003fd4:	f000 fd62 	bl	8004a9c <vApplicationGetIdleTaskMemory>
 8003fd8:	9b01      	ldr	r3, [sp, #4]
 8003fda:	b1cb      	cbz	r3, 8004010 <vTaskStartScheduler+0x4c>
 8003fdc:	9d00      	ldr	r5, [sp, #0]
 8003fde:	b175      	cbz	r5, 8003ffe <vTaskStartScheduler+0x3a>
 8003fe0:	2254      	movs	r2, #84	; 0x54
 8003fe2:	9203      	str	r2, [sp, #12]
 8003fe4:	9a03      	ldr	r2, [sp, #12]
 8003fe6:	9e02      	ldr	r6, [sp, #8]
 8003fe8:	2a54      	cmp	r2, #84	; 0x54
 8003fea:	d01a      	beq.n	8004022 <vTaskStartScheduler+0x5e>
 8003fec:	f04f 0350 	mov.w	r3, #80	; 0x50
 8003ff0:	f383 8811 	msr	BASEPRI, r3
 8003ff4:	f3bf 8f6f 	isb	sy
 8003ff8:	f3bf 8f4f 	dsb	sy
 8003ffc:	e7fe      	b.n	8003ffc <vTaskStartScheduler+0x38>
 8003ffe:	f04f 0350 	mov.w	r3, #80	; 0x50
 8004002:	f383 8811 	msr	BASEPRI, r3
 8004006:	f3bf 8f6f 	isb	sy
 800400a:	f3bf 8f4f 	dsb	sy
 800400e:	e7fe      	b.n	800400e <vTaskStartScheduler+0x4a>
 8004010:	f04f 0350 	mov.w	r3, #80	; 0x50
 8004014:	f383 8811 	msr	BASEPRI, r3
 8004018:	f3bf 8f6f 	isb	sy
 800401c:	f3bf 8f4f 	dsb	sy
 8004020:	e7fe      	b.n	8004020 <vTaskStartScheduler+0x5c>
 8004022:	f106 4680 	add.w	r6, r6, #1073741824	; 0x40000000
 8004026:	4a1f      	ldr	r2, [pc, #124]	; (80040a4 <vTaskStartScheduler+0xe0>)
 8004028:	636a      	str	r2, [r5, #52]	; 0x34
 800402a:	2102      	movs	r1, #2
 800402c:	3e01      	subs	r6, #1
 800402e:	f885 1051 	strb.w	r1, [r5, #81]	; 0x51
 8004032:	632b      	str	r3, [r5, #48]	; 0x30
 8004034:	1d28      	adds	r0, r5, #4
 8004036:	eb03 0386 	add.w	r3, r3, r6, lsl #2
 800403a:	e9c5 4411 	strd	r4, r4, [r5, #68]	; 0x44
 800403e:	f885 4038 	strb.w	r4, [r5, #56]	; 0x38
 8004042:	f885 4043 	strb.w	r4, [r5, #67]	; 0x43
 8004046:	62ec      	str	r4, [r5, #44]	; 0x2c
 8004048:	f023 0607 	bic.w	r6, r3, #7
 800404c:	f7ff fce8 	bl	8003a20 <vListInitialiseItem>
 8004050:	f105 0018 	add.w	r0, r5, #24
 8004054:	f7ff fce4 	bl	8003a20 <vListInitialiseItem>
 8004058:	2307      	movs	r3, #7
 800405a:	4913      	ldr	r1, [pc, #76]	; (80040a8 <vTaskStartScheduler+0xe4>)
 800405c:	64ec      	str	r4, [r5, #76]	; 0x4c
 800405e:	61ab      	str	r3, [r5, #24]
 8004060:	4622      	mov	r2, r4
 8004062:	4630      	mov	r0, r6
 8004064:	612d      	str	r5, [r5, #16]
 8004066:	626d      	str	r5, [r5, #36]	; 0x24
 8004068:	f885 4050 	strb.w	r4, [r5, #80]	; 0x50
 800406c:	f000 fa12 	bl	8004494 <pxPortInitialiseStack>
 8004070:	6028      	str	r0, [r5, #0]
 8004072:	4628      	mov	r0, r5
 8004074:	f7ff fd14 	bl	8003aa0 <prvAddNewTaskToReadyList>
 8004078:	f04f 0350 	mov.w	r3, #80	; 0x50
 800407c:	f383 8811 	msr	BASEPRI, r3
 8004080:	f3bf 8f6f 	isb	sy
 8004084:	f3bf 8f4f 	dsb	sy
 8004088:	4a08      	ldr	r2, [pc, #32]	; (80040ac <vTaskStartScheduler+0xe8>)
 800408a:	4b09      	ldr	r3, [pc, #36]	; (80040b0 <vTaskStartScheduler+0xec>)
 800408c:	4809      	ldr	r0, [pc, #36]	; (80040b4 <vTaskStartScheduler+0xf0>)
 800408e:	2101      	movs	r1, #1
 8004090:	f04f 35ff 	mov.w	r5, #4294967295
 8004094:	6005      	str	r5, [r0, #0]
 8004096:	6011      	str	r1, [r2, #0]
 8004098:	601c      	str	r4, [r3, #0]
 800409a:	f000 fac7 	bl	800462c <xPortStartScheduler>
 800409e:	b004      	add	sp, #16
 80040a0:	bd70      	pop	{r4, r5, r6, pc}
 80040a2:	bf00      	nop
 80040a4:	454c4449 	.word	0x454c4449
 80040a8:	08003c69 	.word	0x08003c69
 80040ac:	200001ac 	.word	0x200001ac
 80040b0:	200001d8 	.word	0x200001d8
 80040b4:	20000190 	.word	0x20000190

080040b8 <vTaskSuspendAll>:
 80040b8:	4a02      	ldr	r2, [pc, #8]	; (80040c4 <vTaskSuspendAll+0xc>)
 80040ba:	6813      	ldr	r3, [r2, #0]
 80040bc:	3301      	adds	r3, #1
 80040be:	6013      	str	r3, [r2, #0]
 80040c0:	4770      	bx	lr
 80040c2:	bf00      	nop
 80040c4:	2000015c 	.word	0x2000015c

080040c8 <xTaskIncrementTick>:
 80040c8:	e92d 4ff0 	stmdb	sp!, {r4, r5, r6, r7, r8, r9, sl, fp, lr}
 80040cc:	4b4d      	ldr	r3, [pc, #308]	; (8004204 <xTaskIncrementTick+0x13c>)
 80040ce:	681b      	ldr	r3, [r3, #0]
 80040d0:	b083      	sub	sp, #12
 80040d2:	2b00      	cmp	r3, #0
 80040d4:	d14d      	bne.n	8004172 <xTaskIncrementTick+0xaa>
 80040d6:	4b4c      	ldr	r3, [pc, #304]	; (8004208 <xTaskIncrementTick+0x140>)
 80040d8:	681e      	ldr	r6, [r3, #0]
 80040da:	3601      	adds	r6, #1
 80040dc:	601e      	str	r6, [r3, #0]
 80040de:	2e00      	cmp	r6, #0
 80040e0:	d055      	beq.n	800418e <xTaskIncrementTick+0xc6>
 80040e2:	4d4a      	ldr	r5, [pc, #296]	; (800420c <xTaskIncrementTick+0x144>)
 80040e4:	682b      	ldr	r3, [r5, #0]
 80040e6:	42b3      	cmp	r3, r6
 80040e8:	d866      	bhi.n	80041b8 <xTaskIncrementTick+0xf0>
 80040ea:	f8df 9130 	ldr.w	r9, [pc, #304]	; 800421c <xTaskIncrementTick+0x154>
 80040ee:	f8d9 3000 	ldr.w	r3, [r9]
 80040f2:	681c      	ldr	r4, [r3, #0]
 80040f4:	2c00      	cmp	r4, #0
 80040f6:	d077      	beq.n	80041e8 <xTaskIncrementTick+0x120>
 80040f8:	4f45      	ldr	r7, [pc, #276]	; (8004210 <xTaskIncrementTick+0x148>)
 80040fa:	f8df 812c 	ldr.w	r8, [pc, #300]	; 8004228 <xTaskIncrementTick+0x160>
 80040fe:	f8df a12c 	ldr.w	sl, [pc, #300]	; 800422c <xTaskIncrementTick+0x164>
 8004102:	2400      	movs	r4, #0
 8004104:	e027      	b.n	8004156 <xTaskIncrementTick+0x8e>
 8004106:	9101      	str	r1, [sp, #4]
 8004108:	f7ff fcb6 	bl	8003a78 <uxListRemove>
 800410c:	f8db 2028 	ldr.w	r2, [fp, #40]	; 0x28
 8004110:	9901      	ldr	r1, [sp, #4]
 8004112:	f10b 0018 	add.w	r0, fp, #24
 8004116:	b112      	cbz	r2, 800411e <xTaskIncrementTick+0x56>
 8004118:	f7ff fcae 	bl	8003a78 <uxListRemove>
 800411c:	9901      	ldr	r1, [sp, #4]
 800411e:	f8db 002c 	ldr.w	r0, [fp, #44]	; 0x2c
 8004122:	f8da 3000 	ldr.w	r3, [sl]
 8004126:	2201      	movs	r2, #1
 8004128:	4082      	lsls	r2, r0
 800412a:	eb00 0080 	add.w	r0, r0, r0, lsl #2
 800412e:	431a      	orrs	r2, r3
 8004130:	eb07 0080 	add.w	r0, r7, r0, lsl #2
 8004134:	f8ca 2000 	str.w	r2, [sl]
 8004138:	f7ff fc76 	bl	8003a28 <vListInsertEnd>
 800413c:	f8d8 2000 	ldr.w	r2, [r8]
 8004140:	f8d9 0000 	ldr.w	r0, [r9]
 8004144:	f8db 102c 	ldr.w	r1, [fp, #44]	; 0x2c
 8004148:	6ad2      	ldr	r2, [r2, #44]	; 0x2c
 800414a:	6803      	ldr	r3, [r0, #0]
 800414c:	4291      	cmp	r1, r2
 800414e:	bf28      	it	cs
 8004150:	2401      	movcs	r4, #1
 8004152:	2b00      	cmp	r3, #0
 8004154:	d04b      	beq.n	80041ee <xTaskIncrementTick+0x126>
 8004156:	f8d9 3000 	ldr.w	r3, [r9]
 800415a:	68db      	ldr	r3, [r3, #12]
 800415c:	f8d3 b00c 	ldr.w	fp, [r3, #12]
 8004160:	f8db 2004 	ldr.w	r2, [fp, #4]
 8004164:	f10b 0104 	add.w	r1, fp, #4
 8004168:	4296      	cmp	r6, r2
 800416a:	4608      	mov	r0, r1
 800416c:	d2cb      	bcs.n	8004106 <xTaskIncrementTick+0x3e>
 800416e:	602a      	str	r2, [r5, #0]
 8004170:	e026      	b.n	80041c0 <xTaskIncrementTick+0xf8>
 8004172:	4a28      	ldr	r2, [pc, #160]	; (8004214 <xTaskIncrementTick+0x14c>)
 8004174:	6813      	ldr	r3, [r2, #0]
 8004176:	3301      	adds	r3, #1
 8004178:	6013      	str	r3, [r2, #0]
 800417a:	2400      	movs	r4, #0
 800417c:	4b26      	ldr	r3, [pc, #152]	; (8004218 <xTaskIncrementTick+0x150>)
 800417e:	681b      	ldr	r3, [r3, #0]
 8004180:	2b00      	cmp	r3, #0
 8004182:	bf0c      	ite	eq
 8004184:	4620      	moveq	r0, r4
 8004186:	2001      	movne	r0, #1
 8004188:	b003      	add	sp, #12
 800418a:	e8bd 8ff0 	ldmia.w	sp!, {r4, r5, r6, r7, r8, r9, sl, fp, pc}
 800418e:	4b23      	ldr	r3, [pc, #140]	; (800421c <xTaskIncrementTick+0x154>)
 8004190:	681a      	ldr	r2, [r3, #0]
 8004192:	6812      	ldr	r2, [r2, #0]
 8004194:	b9fa      	cbnz	r2, 80041d6 <xTaskIncrementTick+0x10e>
 8004196:	4a22      	ldr	r2, [pc, #136]	; (8004220 <xTaskIncrementTick+0x158>)
 8004198:	6818      	ldr	r0, [r3, #0]
 800419a:	4922      	ldr	r1, [pc, #136]	; (8004224 <xTaskIncrementTick+0x15c>)
 800419c:	6814      	ldr	r4, [r2, #0]
 800419e:	601c      	str	r4, [r3, #0]
 80041a0:	6010      	str	r0, [r2, #0]
 80041a2:	680a      	ldr	r2, [r1, #0]
 80041a4:	3201      	adds	r2, #1
 80041a6:	600a      	str	r2, [r1, #0]
 80041a8:	681a      	ldr	r2, [r3, #0]
 80041aa:	6812      	ldr	r2, [r2, #0]
 80041ac:	bb1a      	cbnz	r2, 80041f6 <xTaskIncrementTick+0x12e>
 80041ae:	4d17      	ldr	r5, [pc, #92]	; (800420c <xTaskIncrementTick+0x144>)
 80041b0:	f04f 33ff 	mov.w	r3, #4294967295
 80041b4:	602b      	str	r3, [r5, #0]
 80041b6:	e795      	b.n	80040e4 <xTaskIncrementTick+0x1c>
 80041b8:	4f15      	ldr	r7, [pc, #84]	; (8004210 <xTaskIncrementTick+0x148>)
 80041ba:	f8df 806c 	ldr.w	r8, [pc, #108]	; 8004228 <xTaskIncrementTick+0x160>
 80041be:	2400      	movs	r4, #0
 80041c0:	f8d8 3000 	ldr.w	r3, [r8]
 80041c4:	6adb      	ldr	r3, [r3, #44]	; 0x2c
 80041c6:	eb03 0383 	add.w	r3, r3, r3, lsl #2
 80041ca:	009b      	lsls	r3, r3, #2
 80041cc:	58fb      	ldr	r3, [r7, r3]
 80041ce:	2b02      	cmp	r3, #2
 80041d0:	bf28      	it	cs
 80041d2:	2401      	movcs	r4, #1
 80041d4:	e7d2      	b.n	800417c <xTaskIncrementTick+0xb4>
 80041d6:	f04f 0350 	mov.w	r3, #80	; 0x50
 80041da:	f383 8811 	msr	BASEPRI, r3
 80041de:	f3bf 8f6f 	isb	sy
 80041e2:	f3bf 8f4f 	dsb	sy
 80041e6:	e7fe      	b.n	80041e6 <xTaskIncrementTick+0x11e>
 80041e8:	4f09      	ldr	r7, [pc, #36]	; (8004210 <xTaskIncrementTick+0x148>)
 80041ea:	f8df 803c 	ldr.w	r8, [pc, #60]	; 8004228 <xTaskIncrementTick+0x160>
 80041ee:	f04f 33ff 	mov.w	r3, #4294967295
 80041f2:	602b      	str	r3, [r5, #0]
 80041f4:	e7e4      	b.n	80041c0 <xTaskIncrementTick+0xf8>
 80041f6:	681b      	ldr	r3, [r3, #0]
 80041f8:	4d04      	ldr	r5, [pc, #16]	; (800420c <xTaskIncrementTick+0x144>)
 80041fa:	68db      	ldr	r3, [r3, #12]
 80041fc:	68db      	ldr	r3, [r3, #12]
 80041fe:	685b      	ldr	r3, [r3, #4]
 8004200:	602b      	str	r3, [r5, #0]
 8004202:	e76f      	b.n	80040e4 <xTaskIncrementTick+0x1c>
 8004204:	2000015c 	.word	0x2000015c
 8004208:	200001d8 	.word	0x200001d8
 800420c:	20000190 	.word	0x20000190
 8004210:	200000c4 	.word	0x200000c4
 8004214:	20000158 	.word	0x20000158
 8004218:	200001dc 	.word	0x200001dc
 800421c:	200000bc 	.word	0x200000bc
 8004220:	200000c0 	.word	0x200000c0
 8004224:	20000194 	.word	0x20000194
 8004228:	200000b8 	.word	0x200000b8
 800422c:	20000164 	.word	0x20000164

08004230 <xTaskResumeAll>:
 8004230:	e92d 4ff8 	stmdb	sp!, {r3, r4, r5, r6, r7, r8, r9, sl, fp, lr}
 8004234:	4c3d      	ldr	r4, [pc, #244]	; (800432c <xTaskResumeAll+0xfc>)
 8004236:	6823      	ldr	r3, [r4, #0]
 8004238:	b943      	cbnz	r3, 800424c <xTaskResumeAll+0x1c>
 800423a:	f04f 0350 	mov.w	r3, #80	; 0x50
 800423e:	f383 8811 	msr	BASEPRI, r3
 8004242:	f3bf 8f6f 	isb	sy
 8004246:	f3bf 8f4f 	dsb	sy
 800424a:	e7fe      	b.n	800424a <xTaskResumeAll+0x1a>
 800424c:	f000 f952 	bl	80044f4 <vPortEnterCritical>
 8004250:	6823      	ldr	r3, [r4, #0]
 8004252:	3b01      	subs	r3, #1
 8004254:	6023      	str	r3, [r4, #0]
 8004256:	6823      	ldr	r3, [r4, #0]
 8004258:	2b00      	cmp	r3, #0
 800425a:	d13c      	bne.n	80042d6 <xTaskResumeAll+0xa6>
 800425c:	4b34      	ldr	r3, [pc, #208]	; (8004330 <xTaskResumeAll+0x100>)
 800425e:	681b      	ldr	r3, [r3, #0]
 8004260:	2b00      	cmp	r3, #0
 8004262:	d038      	beq.n	80042d6 <xTaskResumeAll+0xa6>
 8004264:	4c33      	ldr	r4, [pc, #204]	; (8004334 <xTaskResumeAll+0x104>)
 8004266:	6823      	ldr	r3, [r4, #0]
 8004268:	2b00      	cmp	r3, #0
 800426a:	d03e      	beq.n	80042ea <xTaskResumeAll+0xba>
 800426c:	f8df 80dc 	ldr.w	r8, [pc, #220]	; 800434c <xTaskResumeAll+0x11c>
 8004270:	f8df 90dc 	ldr.w	r9, [pc, #220]	; 8004350 <xTaskResumeAll+0x120>
 8004274:	f8df a0dc 	ldr.w	sl, [pc, #220]	; 8004354 <xTaskResumeAll+0x124>
 8004278:	4d2f      	ldr	r5, [pc, #188]	; (8004338 <xTaskResumeAll+0x108>)
 800427a:	2701      	movs	r7, #1
 800427c:	68e3      	ldr	r3, [r4, #12]
 800427e:	68de      	ldr	r6, [r3, #12]
 8004280:	f106 0b04 	add.w	fp, r6, #4
 8004284:	f106 0018 	add.w	r0, r6, #24
 8004288:	f7ff fbf6 	bl	8003a78 <uxListRemove>
 800428c:	4658      	mov	r0, fp
 800428e:	f7ff fbf3 	bl	8003a78 <uxListRemove>
 8004292:	6af0      	ldr	r0, [r6, #44]	; 0x2c
 8004294:	f8d8 2000 	ldr.w	r2, [r8]
 8004298:	fa07 f300 	lsl.w	r3, r7, r0
 800429c:	eb00 0080 	add.w	r0, r0, r0, lsl #2
 80042a0:	4313      	orrs	r3, r2
 80042a2:	4659      	mov	r1, fp
 80042a4:	eb09 0080 	add.w	r0, r9, r0, lsl #2
 80042a8:	f8c8 3000 	str.w	r3, [r8]
 80042ac:	f7ff fbbc 	bl	8003a28 <vListInsertEnd>
 80042b0:	f8da 3000 	ldr.w	r3, [sl]
 80042b4:	6af2      	ldr	r2, [r6, #44]	; 0x2c
 80042b6:	6adb      	ldr	r3, [r3, #44]	; 0x2c
 80042b8:	429a      	cmp	r2, r3
 80042ba:	d312      	bcc.n	80042e2 <xTaskResumeAll+0xb2>
 80042bc:	602f      	str	r7, [r5, #0]
 80042be:	6823      	ldr	r3, [r4, #0]
 80042c0:	2b00      	cmp	r3, #0
 80042c2:	d1db      	bne.n	800427c <xTaskResumeAll+0x4c>
 80042c4:	4b1d      	ldr	r3, [pc, #116]	; (800433c <xTaskResumeAll+0x10c>)
 80042c6:	681a      	ldr	r2, [r3, #0]
 80042c8:	6812      	ldr	r2, [r2, #0]
 80042ca:	bb3a      	cbnz	r2, 800431c <xTaskResumeAll+0xec>
 80042cc:	4b1c      	ldr	r3, [pc, #112]	; (8004340 <xTaskResumeAll+0x110>)
 80042ce:	f04f 32ff 	mov.w	r2, #4294967295
 80042d2:	601a      	str	r2, [r3, #0]
 80042d4:	e00a      	b.n	80042ec <xTaskResumeAll+0xbc>
 80042d6:	2400      	movs	r4, #0
 80042d8:	f000 f92e 	bl	8004538 <vPortExitCritical>
 80042dc:	4620      	mov	r0, r4
 80042de:	e8bd 8ff8 	ldmia.w	sp!, {r3, r4, r5, r6, r7, r8, r9, sl, fp, pc}
 80042e2:	6823      	ldr	r3, [r4, #0]
 80042e4:	2b00      	cmp	r3, #0
 80042e6:	d1c9      	bne.n	800427c <xTaskResumeAll+0x4c>
 80042e8:	e7ec      	b.n	80042c4 <xTaskResumeAll+0x94>
 80042ea:	4d13      	ldr	r5, [pc, #76]	; (8004338 <xTaskResumeAll+0x108>)
 80042ec:	4e15      	ldr	r6, [pc, #84]	; (8004344 <xTaskResumeAll+0x114>)
 80042ee:	6834      	ldr	r4, [r6, #0]
 80042f0:	b13c      	cbz	r4, 8004302 <xTaskResumeAll+0xd2>
 80042f2:	2701      	movs	r7, #1
 80042f4:	f7ff fee8 	bl	80040c8 <xTaskIncrementTick>
 80042f8:	b100      	cbz	r0, 80042fc <xTaskResumeAll+0xcc>
 80042fa:	602f      	str	r7, [r5, #0]
 80042fc:	3c01      	subs	r4, #1
 80042fe:	d1f9      	bne.n	80042f4 <xTaskResumeAll+0xc4>
 8004300:	6034      	str	r4, [r6, #0]
 8004302:	682b      	ldr	r3, [r5, #0]
 8004304:	2b00      	cmp	r3, #0
 8004306:	d0e6      	beq.n	80042d6 <xTaskResumeAll+0xa6>
 8004308:	4b0f      	ldr	r3, [pc, #60]	; (8004348 <xTaskResumeAll+0x118>)
 800430a:	f04f 5280 	mov.w	r2, #268435456	; 0x10000000
 800430e:	601a      	str	r2, [r3, #0]
 8004310:	f3bf 8f4f 	dsb	sy
 8004314:	f3bf 8f6f 	isb	sy
 8004318:	2401      	movs	r4, #1
 800431a:	e7dd      	b.n	80042d8 <xTaskResumeAll+0xa8>
 800431c:	681a      	ldr	r2, [r3, #0]
 800431e:	4b08      	ldr	r3, [pc, #32]	; (8004340 <xTaskResumeAll+0x110>)
 8004320:	68d2      	ldr	r2, [r2, #12]
 8004322:	68d2      	ldr	r2, [r2, #12]
 8004324:	6852      	ldr	r2, [r2, #4]
 8004326:	601a      	str	r2, [r3, #0]
 8004328:	e7e0      	b.n	80042ec <xTaskResumeAll+0xbc>
 800432a:	bf00      	nop
 800432c:	2000015c 	.word	0x2000015c
 8004330:	20000150 	.word	0x20000150
 8004334:	20000198 	.word	0x20000198
 8004338:	200001dc 	.word	0x200001dc
 800433c:	200000bc 	.word	0x200000bc
 8004340:	20000190 	.word	0x20000190
 8004344:	20000158 	.word	0x20000158
 8004348:	e000ed04 	.word	0xe000ed04
 800434c:	20000164 	.word	0x20000164
 8004350:	200000c4 	.word	0x200000c4
 8004354:	200000b8 	.word	0x200000b8

08004358 <vTaskDelay>:
 8004358:	b508      	push	{r3, lr}
 800435a:	b198      	cbz	r0, 8004384 <vTaskDelay+0x2c>
 800435c:	4b0e      	ldr	r3, [pc, #56]	; (8004398 <vTaskDelay+0x40>)
 800435e:	6819      	ldr	r1, [r3, #0]
 8004360:	b141      	cbz	r1, 8004374 <vTaskDelay+0x1c>
 8004362:	f04f 0350 	mov.w	r3, #80	; 0x50
 8004366:	f383 8811 	msr	BASEPRI, r3
 800436a:	f3bf 8f6f 	isb	sy
 800436e:	f3bf 8f4f 	dsb	sy
 8004372:	e7fe      	b.n	8004372 <vTaskDelay+0x1a>
 8004374:	681a      	ldr	r2, [r3, #0]
 8004376:	3201      	adds	r2, #1
 8004378:	601a      	str	r2, [r3, #0]
 800437a:	f7ff fc2f 	bl	8003bdc <prvAddCurrentTaskToDelayedList>
 800437e:	f7ff ff57 	bl	8004230 <xTaskResumeAll>
 8004382:	b938      	cbnz	r0, 8004394 <vTaskDelay+0x3c>
 8004384:	4b05      	ldr	r3, [pc, #20]	; (800439c <vTaskDelay+0x44>)
 8004386:	f04f 5280 	mov.w	r2, #268435456	; 0x10000000
 800438a:	601a      	str	r2, [r3, #0]
 800438c:	f3bf 8f4f 	dsb	sy
 8004390:	f3bf 8f6f 	isb	sy
 8004394:	bd08      	pop	{r3, pc}
 8004396:	bf00      	nop
 8004398:	2000015c 	.word	0x2000015c
 800439c:	e000ed04 	.word	0xe000ed04

080043a0 <vTaskSwitchContext>:
 80043a0:	4b18      	ldr	r3, [pc, #96]	; (8004404 <vTaskSwitchContext+0x64>)
 80043a2:	681b      	ldr	r3, [r3, #0]
 80043a4:	b11b      	cbz	r3, 80043ae <vTaskSwitchContext+0xe>
 80043a6:	4b18      	ldr	r3, [pc, #96]	; (8004408 <vTaskSwitchContext+0x68>)
 80043a8:	2201      	movs	r2, #1
 80043aa:	601a      	str	r2, [r3, #0]
 80043ac:	4770      	bx	lr
 80043ae:	4916      	ldr	r1, [pc, #88]	; (8004408 <vTaskSwitchContext+0x68>)
 80043b0:	4a16      	ldr	r2, [pc, #88]	; (800440c <vTaskSwitchContext+0x6c>)
 80043b2:	600b      	str	r3, [r1, #0]
 80043b4:	6813      	ldr	r3, [r2, #0]
 80043b6:	fab3 f383 	clz	r3, r3
 80043ba:	b2db      	uxtb	r3, r3
 80043bc:	f1c3 031f 	rsb	r3, r3, #31
 80043c0:	eb03 0383 	add.w	r3, r3, r3, lsl #2
 80043c4:	4912      	ldr	r1, [pc, #72]	; (8004410 <vTaskSwitchContext+0x70>)
 80043c6:	009a      	lsls	r2, r3, #2
 80043c8:	eb01 0383 	add.w	r3, r1, r3, lsl #2
 80043cc:	5888      	ldr	r0, [r1, r2]
 80043ce:	b940      	cbnz	r0, 80043e2 <vTaskSwitchContext+0x42>
 80043d0:	f04f 0350 	mov.w	r3, #80	; 0x50
 80043d4:	f383 8811 	msr	BASEPRI, r3
 80043d8:	f3bf 8f6f 	isb	sy
 80043dc:	f3bf 8f4f 	dsb	sy
 80043e0:	e7fe      	b.n	80043e0 <vTaskSwitchContext+0x40>
 80043e2:	b410      	push	{r4}
 80043e4:	685c      	ldr	r4, [r3, #4]
 80043e6:	f102 0008 	add.w	r0, r2, #8
 80043ea:	6862      	ldr	r2, [r4, #4]
 80043ec:	605a      	str	r2, [r3, #4]
 80043ee:	4401      	add	r1, r0
 80043f0:	428a      	cmp	r2, r1
 80043f2:	bf04      	itt	eq
 80043f4:	6852      	ldreq	r2, [r2, #4]
 80043f6:	605a      	streq	r2, [r3, #4]
 80043f8:	4b06      	ldr	r3, [pc, #24]	; (8004414 <vTaskSwitchContext+0x74>)
 80043fa:	68d2      	ldr	r2, [r2, #12]
 80043fc:	f85d 4b04 	ldr.w	r4, [sp], #4
 8004400:	601a      	str	r2, [r3, #0]
 8004402:	4770      	bx	lr
 8004404:	2000015c 	.word	0x2000015c
 8004408:	200001dc 	.word	0x200001dc
 800440c:	20000164 	.word	0x20000164
 8004410:	200000c4 	.word	0x200000c4
 8004414:	200000b8 	.word	0x200000b8

08004418 <prvPortStartFirstTask>:
 8004418:	4808      	ldr	r0, [pc, #32]	; (800443c <prvPortStartFirstTask+0x24>)
 800441a:	6800      	ldr	r0, [r0, #0]
 800441c:	6800      	ldr	r0, [r0, #0]
 800441e:	f380 8808 	msr	MSP, r0
 8004422:	f04f 0000 	mov.w	r0, #0
 8004426:	f380 8814 	msr	CONTROL, r0
 800442a:	b662      	cpsie	i
 800442c:	b661      	cpsie	f
 800442e:	f3bf 8f4f 	dsb	sy
 8004432:	f3bf 8f6f 	isb	sy
 8004436:	df00      	svc	0
 8004438:	bf00      	nop
 800443a:	0000      	.short	0x0000
 800443c:	e000ed08 	.word	0xe000ed08

08004440 <vPortEnableVFP>:
 8004440:	f8df 000c 	ldr.w	r0, [pc, #12]	; 8004450 <vPortEnableVFP+0x10>
 8004444:	6801      	ldr	r1, [r0, #0]
 8004446:	f441 0170 	orr.w	r1, r1, #15728640	; 0xf00000
 800444a:	6001      	str	r1, [r0, #0]
 800444c:	4770      	bx	lr
 800444e:	0000      	.short	0x0000
 8004450:	e000ed88 	.word	0xe000ed88

08004454 <prvTaskExitError>:
 8004454:	4b0e      	ldr	r3, [pc, #56]	; (8004490 <prvTaskExitError+0x3c>)
 8004456:	681b      	ldr	r3, [r3, #0]
 8004458:	b082      	sub	sp, #8
 800445a:	2200      	movs	r2, #0
 800445c:	3301      	adds	r3, #1
 800445e:	9201      	str	r2, [sp, #4]
 8004460:	d008      	beq.n	8004474 <prvTaskExitError+0x20>
 8004462:	f04f 0350 	mov.w	r3, #80	; 0x50
 8004466:	f383 8811 	msr	BASEPRI, r3
 800446a:	f3bf 8f6f 	isb	sy
 800446e:	f3bf 8f4f 	dsb	sy
 8004472:	e7fe      	b.n	8004472 <prvTaskExitError+0x1e>
 8004474:	f04f 0350 	mov.w	r3, #80	; 0x50
 8004478:	f383 8811 	msr	BASEPRI, r3
 800447c:	f3bf 8f6f 	isb	sy
 8004480:	f3bf 8f4f 	dsb	sy
 8004484:	9b01      	ldr	r3, [sp, #4]
 8004486:	2b00      	cmp	r3, #0
 8004488:	d0fc      	beq.n	8004484 <prvTaskExitError+0x30>
 800448a:	b002      	add	sp, #8
 800448c:	4770      	bx	lr
 800448e:	bf00      	nop
 8004490:	20000008 	.word	0x20000008

08004494 <pxPortInitialiseStack>:
 8004494:	b430      	push	{r4, r5}
 8004496:	f021 0101 	bic.w	r1, r1, #1
 800449a:	4c09      	ldr	r4, [pc, #36]	; (80044c0 <pxPortInitialiseStack+0x2c>)
 800449c:	f840 4c0c 	str.w	r4, [r0, #-12]
 80044a0:	f04f 7580 	mov.w	r5, #16777216	; 0x1000000
 80044a4:	f06f 0302 	mvn.w	r3, #2
 80044a8:	f840 5c04 	str.w	r5, [r0, #-4]
 80044ac:	f840 1c08 	str.w	r1, [r0, #-8]
 80044b0:	f840 2c20 	str.w	r2, [r0, #-32]
 80044b4:	f840 3c24 	str.w	r3, [r0, #-36]
 80044b8:	bc30      	pop	{r4, r5}
 80044ba:	3844      	subs	r0, #68	; 0x44
 80044bc:	4770      	bx	lr
 80044be:	bf00      	nop
 80044c0:	08004455 	.word	0x08004455
	...

080044d0 <SVC_Handler>:
 80044d0:	4b07      	ldr	r3, [pc, #28]	; (80044f0 <pxCurrentTCBConst2>)
 80044d2:	6819      	ldr	r1, [r3, #0]
 80044d4:	6808      	ldr	r0, [r1, #0]
 80044d6:	e8b0 4ff0 	ldmia.w	r0!, {r4, r5, r6, r7, r8, r9, sl, fp, lr}
 80044da:	f380 8809 	msr	PSP, r0
 80044de:	f3bf 8f6f 	isb	sy
 80044e2:	f04f 0000 	mov.w	r0, #0
 80044e6:	f380 8811 	msr	BASEPRI, r0
 80044ea:	4770      	bx	lr
 80044ec:	f3af 8000 	nop.w

080044f0 <pxCurrentTCBConst2>:
 80044f0:	200000b8 	.word	0x200000b8

080044f4 <vPortEnterCritical>:
 80044f4:	f04f 0350 	mov.w	r3, #80	; 0x50
 80044f8:	f383 8811 	msr	BASEPRI, r3
 80044fc:	f3bf 8f6f 	isb	sy
 8004500:	f3bf 8f4f 	dsb	sy
 8004504:	4a0a      	ldr	r2, [pc, #40]	; (8004530 <vPortEnterCritical+0x3c>)
 8004506:	6813      	ldr	r3, [r2, #0]
 8004508:	3301      	adds	r3, #1
 800450a:	2b01      	cmp	r3, #1
 800450c:	6013      	str	r3, [r2, #0]
 800450e:	d000      	beq.n	8004512 <vPortEnterCritical+0x1e>
 8004510:	4770      	bx	lr
 8004512:	4b08      	ldr	r3, [pc, #32]	; (8004534 <vPortEnterCritical+0x40>)
 8004514:	681b      	ldr	r3, [r3, #0]
 8004516:	f013 0fff 	tst.w	r3, #255	; 0xff
 800451a:	d0f9      	beq.n	8004510 <vPortEnterCritical+0x1c>
 800451c:	f04f 0350 	mov.w	r3, #80	; 0x50
 8004520:	f383 8811 	msr	BASEPRI, r3
 8004524:	f3bf 8f6f 	isb	sy
 8004528:	f3bf 8f4f 	dsb	sy
 800452c:	e7fe      	b.n	800452c <vPortEnterCritical+0x38>
 800452e:	bf00      	nop
 8004530:	20000008 	.word	0x20000008
 8004534:	e000ed04 	.word	0xe000ed04

08004538 <vPortExitCritical>:
 8004538:	4a08      	ldr	r2, [pc, #32]	; (800455c <vPortExitCritical+0x24>)
 800453a:	6813      	ldr	r3, [r2, #0]
 800453c:	b943      	cbnz	r3, 8004550 <vPortExitCritical+0x18>
 800453e:	f04f 0350 	mov.w	r3, #80	; 0x50
 8004542:	f383 8811 	msr	BASEPRI, r3
 8004546:	f3bf 8f6f 	isb	sy
 800454a:	f3bf 8f4f 	dsb	sy
 800454e:	e7fe      	b.n	800454e <vPortExitCritical+0x16>
 8004550:	3b01      	subs	r3, #1
 8004552:	6013      	str	r3, [r2, #0]
 8004554:	b90b      	cbnz	r3, 800455a <vPortExitCritical+0x22>
 8004556:	f383 8811 	msr	BASEPRI, r3
 800455a:	4770      	bx	lr
 800455c:	20000008 	.word	0x20000008

08004560 <PendSV_Handler>:
 8004560:	f3ef 8009 	mrs	r0, PSP
 8004564:	f3bf 8f6f 	isb	sy
 8004568:	4b15      	ldr	r3, [pc, #84]	; (80045c0 <pxCurrentTCBConst>)
 800456a:	681a      	ldr	r2, [r3, #0]
 800456c:	f01e 0f10 	tst.w	lr, #16
 8004570:	bf08      	it	eq
 8004572:	ed20 8a10 	vstmdbeq	r0!, {s16-s31}
 8004576:	e920 4ff0 	stmdb	r0!, {r4, r5, r6, r7, r8, r9, sl, fp, lr}
 800457a:	6010      	str	r0, [r2, #0]
 800457c:	e92d 0009 	stmdb	sp!, {r0, r3}
 8004580:	f04f 0050 	mov.w	r0, #80	; 0x50
 8004584:	f380 8811 	msr	BASEPRI, r0
 8004588:	f3bf 8f4f 	dsb	sy
 800458c:	f3bf 8f6f 	isb	sy
 8004590:	f7ff ff06 	bl	80043a0 <vTaskSwitchContext>
 8004594:	f04f 0000 	mov.w	r0, #0
 8004598:	f380 8811 	msr	BASEPRI, r0
 800459c:	bc09      	pop	{r0, r3}
 800459e:	6819      	ldr	r1, [r3, #0]
 80045a0:	6808      	ldr	r0, [r1, #0]
 80045a2:	e8b0 4ff0 	ldmia.w	r0!, {r4, r5, r6, r7, r8, r9, sl, fp, lr}
 80045a6:	f01e 0f10 	tst.w	lr, #16
 80045aa:	bf08      	it	eq
 80045ac:	ecb0 8a10 	vldmiaeq	r0!, {s16-s31}
 80045b0:	f380 8809 	msr	PSP, r0
 80045b4:	f3bf 8f6f 	isb	sy
 80045b8:	4770      	bx	lr
 80045ba:	bf00      	nop
 80045bc:	f3af 8000 	nop.w

080045c0 <pxCurrentTCBConst>:
 80045c0:	200000b8 	.word	0x200000b8

080045c4 <SysTick_Handler>:
 80045c4:	b508      	push	{r3, lr}
 80045c6:	f04f 0350 	mov.w	r3, #80	; 0x50
 80045ca:	f383 8811 	msr	BASEPRI, r3
 80045ce:	f3bf 8f6f 	isb	sy
 80045d2:	f3bf 8f4f 	dsb	sy
 80045d6:	f7ff fd77 	bl	80040c8 <xTaskIncrementTick>
 80045da:	b118      	cbz	r0, 80045e4 <SysTick_Handler+0x20>
 80045dc:	4b03      	ldr	r3, [pc, #12]	; (80045ec <SysTick_Handler+0x28>)
 80045de:	f04f 5280 	mov.w	r2, #268435456	; 0x10000000
 80045e2:	601a      	str	r2, [r3, #0]
 80045e4:	2300      	movs	r3, #0
 80045e6:	f383 8811 	msr	BASEPRI, r3
 80045ea:	bd08      	pop	{r3, pc}
 80045ec:	e000ed04 	.word	0xe000ed04

080045f0 <vPortSetupTimerInterrupt>:
 80045f0:	b430      	push	{r4, r5}
 80045f2:	4a09      	ldr	r2, [pc, #36]	; (8004618 <vPortSetupTimerInterrupt+0x28>)
 80045f4:	4d09      	ldr	r5, [pc, #36]	; (800461c <vPortSetupTimerInterrupt+0x2c>)
 80045f6:	4b0a      	ldr	r3, [pc, #40]	; (8004620 <vPortSetupTimerInterrupt+0x30>)
 80045f8:	4c0a      	ldr	r4, [pc, #40]	; (8004624 <vPortSetupTimerInterrupt+0x34>)
 80045fa:	480b      	ldr	r0, [pc, #44]	; (8004628 <vPortSetupTimerInterrupt+0x38>)
 80045fc:	2100      	movs	r1, #0
 80045fe:	6011      	str	r1, [r2, #0]
 8004600:	6029      	str	r1, [r5, #0]
 8004602:	681b      	ldr	r3, [r3, #0]
 8004604:	fba4 1303 	umull	r1, r3, r4, r3
 8004608:	099b      	lsrs	r3, r3, #6
 800460a:	3b01      	subs	r3, #1
 800460c:	2107      	movs	r1, #7
 800460e:	6003      	str	r3, [r0, #0]
 8004610:	bc30      	pop	{r4, r5}
 8004612:	6011      	str	r1, [r2, #0]
 8004614:	4770      	bx	lr
 8004616:	bf00      	nop
 8004618:	e000e010 	.word	0xe000e010
 800461c:	e000e018 	.word	0xe000e018
 8004620:	2000000c 	.word	0x2000000c
 8004624:	10624dd3 	.word	0x10624dd3
 8004628:	e000e014 	.word	0xe000e014

0800462c <xPortStartScheduler>:
 800462c:	4b44      	ldr	r3, [pc, #272]	; (8004740 <xPortStartScheduler+0x114>)
 800462e:	4a45      	ldr	r2, [pc, #276]	; (8004744 <xPortStartScheduler+0x118>)
 8004630:	6819      	ldr	r1, [r3, #0]
 8004632:	4291      	cmp	r1, r2
 8004634:	d040      	beq.n	80046b8 <xPortStartScheduler+0x8c>
 8004636:	681a      	ldr	r2, [r3, #0]
 8004638:	4b43      	ldr	r3, [pc, #268]	; (8004748 <xPortStartScheduler+0x11c>)
 800463a:	429a      	cmp	r2, r3
 800463c:	d033      	beq.n	80046a6 <xPortStartScheduler+0x7a>
 800463e:	b530      	push	{r4, r5, lr}
 8004640:	4b42      	ldr	r3, [pc, #264]	; (800474c <xPortStartScheduler+0x120>)
 8004642:	4c43      	ldr	r4, [pc, #268]	; (8004750 <xPortStartScheduler+0x124>)
 8004644:	781a      	ldrb	r2, [r3, #0]
 8004646:	4943      	ldr	r1, [pc, #268]	; (8004754 <xPortStartScheduler+0x128>)
 8004648:	b085      	sub	sp, #20
 800464a:	b2d2      	uxtb	r2, r2
 800464c:	20ff      	movs	r0, #255	; 0xff
 800464e:	9202      	str	r2, [sp, #8]
 8004650:	7018      	strb	r0, [r3, #0]
 8004652:	781b      	ldrb	r3, [r3, #0]
 8004654:	b2db      	uxtb	r3, r3
 8004656:	f88d 3007 	strb.w	r3, [sp, #7]
 800465a:	f89d 3007 	ldrb.w	r3, [sp, #7]
 800465e:	f89d 2007 	ldrb.w	r2, [sp, #7]
 8004662:	f003 0350 	and.w	r3, r3, #80	; 0x50
 8004666:	2007      	movs	r0, #7
 8004668:	7023      	strb	r3, [r4, #0]
 800466a:	0614      	lsls	r4, r2, #24
 800466c:	6008      	str	r0, [r1, #0]
 800466e:	bf48      	it	mi
 8004670:	2206      	movmi	r2, #6
 8004672:	d50f      	bpl.n	8004694 <xPortStartScheduler+0x68>
 8004674:	f89d 3007 	ldrb.w	r3, [sp, #7]
 8004678:	005b      	lsls	r3, r3, #1
 800467a:	b2db      	uxtb	r3, r3
 800467c:	f88d 3007 	strb.w	r3, [sp, #7]
 8004680:	f89d 0007 	ldrb.w	r0, [sp, #7]
 8004684:	0600      	lsls	r0, r0, #24
 8004686:	4613      	mov	r3, r2
 8004688:	f102 32ff 	add.w	r2, r2, #4294967295
 800468c:	d4f2      	bmi.n	8004674 <xPortStartScheduler+0x48>
 800468e:	2b03      	cmp	r3, #3
 8004690:	d01b      	beq.n	80046ca <xPortStartScheduler+0x9e>
 8004692:	600b      	str	r3, [r1, #0]
 8004694:	f04f 0350 	mov.w	r3, #80	; 0x50
 8004698:	f383 8811 	msr	BASEPRI, r3
 800469c:	f3bf 8f6f 	isb	sy
 80046a0:	f3bf 8f4f 	dsb	sy
 80046a4:	e7fe      	b.n	80046a4 <xPortStartScheduler+0x78>
 80046a6:	f04f 0350 	mov.w	r3, #80	; 0x50
 80046aa:	f383 8811 	msr	BASEPRI, r3
 80046ae:	f3bf 8f6f 	isb	sy
 80046b2:	f3bf 8f4f 	dsb	sy
 80046b6:	e7fe      	b.n	80046b6 <xPortStartScheduler+0x8a>
 80046b8:	f04f 0350 	mov.w	r3, #80	; 0x50
 80046bc:	f383 8811 	msr	BASEPRI, r3
 80046c0:	f3bf 8f6f 	isb	sy
 80046c4:	f3bf 8f4f 	dsb	sy
 80046c8:	e7fe      	b.n	80046c8 <xPortStartScheduler+0x9c>
 80046ca:	9a02      	ldr	r2, [sp, #8]
 80046cc:	481f      	ldr	r0, [pc, #124]	; (800474c <xPortStartScheduler+0x120>)
 80046ce:	4b22      	ldr	r3, [pc, #136]	; (8004758 <xPortStartScheduler+0x12c>)
 80046d0:	4c22      	ldr	r4, [pc, #136]	; (800475c <xPortStartScheduler+0x130>)
 80046d2:	b2d2      	uxtb	r2, r2
 80046d4:	f44f 7540 	mov.w	r5, #768	; 0x300
 80046d8:	600d      	str	r5, [r1, #0]
 80046da:	7002      	strb	r2, [r0, #0]
 80046dc:	681a      	ldr	r2, [r3, #0]
 80046de:	f442 0270 	orr.w	r2, r2, #15728640	; 0xf00000
 80046e2:	601a      	str	r2, [r3, #0]
 80046e4:	681a      	ldr	r2, [r3, #0]
 80046e6:	f042 4270 	orr.w	r2, r2, #4026531840	; 0xf0000000
 80046ea:	601a      	str	r2, [r3, #0]
 80046ec:	2500      	movs	r5, #0
 80046ee:	f7ff ff7f 	bl	80045f0 <vPortSetupTimerInterrupt>
 80046f2:	6025      	str	r5, [r4, #0]
 80046f4:	f7ff fea4 	bl	8004440 <vPortEnableVFP>
 80046f8:	4a19      	ldr	r2, [pc, #100]	; (8004760 <xPortStartScheduler+0x134>)
 80046fa:	6813      	ldr	r3, [r2, #0]
 80046fc:	f043 4340 	orr.w	r3, r3, #3221225472	; 0xc0000000
 8004700:	6013      	str	r3, [r2, #0]
 8004702:	f7ff fe89 	bl	8004418 <prvPortStartFirstTask>
 8004706:	f7ff fe4b 	bl	80043a0 <vTaskSwitchContext>
 800470a:	6823      	ldr	r3, [r4, #0]
 800470c:	9503      	str	r5, [sp, #12]
 800470e:	3301      	adds	r3, #1
 8004710:	d008      	beq.n	8004724 <xPortStartScheduler+0xf8>
 8004712:	f04f 0350 	mov.w	r3, #80	; 0x50
 8004716:	f383 8811 	msr	BASEPRI, r3
 800471a:	f3bf 8f6f 	isb	sy
 800471e:	f3bf 8f4f 	dsb	sy
 8004722:	e7fe      	b.n	8004722 <xPortStartScheduler+0xf6>
 8004724:	f04f 0350 	mov.w	r3, #80	; 0x50
 8004728:	f383 8811 	msr	BASEPRI, r3
 800472c:	f3bf 8f6f 	isb	sy
 8004730:	f3bf 8f4f 	dsb	sy
 8004734:	9b03      	ldr	r3, [sp, #12]
 8004736:	2b00      	cmp	r3, #0
 8004738:	d0fc      	beq.n	8004734 <xPortStartScheduler+0x108>
 800473a:	2000      	movs	r0, #0
 800473c:	b005      	add	sp, #20
 800473e:	bd30      	pop	{r4, r5, pc}
 8004740:	e000ed00 	.word	0xe000ed00
 8004744:	410fc271 	.word	0x410fc271
 8004748:	410fc270 	.word	0x410fc270
 800474c:	e000e400 	.word	0xe000e400
 8004750:	200001e0 	.word	0x200001e0
 8004754:	200001e4 	.word	0x200001e4
 8004758:	e000ed20 	.word	0xe000ed20
 800475c:	20000008 	.word	0x20000008
 8004760:	e000ef34 	.word	0xe000ef34

08004764 <pvPortMalloc>:
 8004764:	e92d 41f0 	stmdb	sp!, {r4, r5, r6, r7, r8, lr}
 8004768:	4606      	mov	r6, r0
 800476a:	f7ff fca5 	bl	80040b8 <vTaskSuspendAll>
 800476e:	4851      	ldr	r0, [pc, #324]	; (80048b4 <pvPortMalloc+0x150>)
 8004770:	6803      	ldr	r3, [r0, #0]
 8004772:	2b00      	cmp	r3, #0
 8004774:	d03a      	beq.n	80047ec <pvPortMalloc+0x88>
 8004776:	4a50      	ldr	r2, [pc, #320]	; (80048b8 <pvPortMalloc+0x154>)
 8004778:	6815      	ldr	r5, [r2, #0]
 800477a:	422e      	tst	r6, r5
 800477c:	d130      	bne.n	80047e0 <pvPortMalloc+0x7c>
 800477e:	b37e      	cbz	r6, 80047e0 <pvPortMalloc+0x7c>
 8004780:	f106 0408 	add.w	r4, r6, #8
 8004784:	0776      	lsls	r6, r6, #29
 8004786:	bf1c      	itt	ne
 8004788:	f024 0407 	bicne.w	r4, r4, #7
 800478c:	3408      	addne	r4, #8
 800478e:	b33c      	cbz	r4, 80047e0 <pvPortMalloc+0x7c>
 8004790:	f8df c130 	ldr.w	ip, [pc, #304]	; 80048c4 <pvPortMalloc+0x160>
 8004794:	f8dc 7000 	ldr.w	r7, [ip]
 8004798:	42a7      	cmp	r7, r4
 800479a:	d321      	bcc.n	80047e0 <pvPortMalloc+0x7c>
 800479c:	4a47      	ldr	r2, [pc, #284]	; (80048bc <pvPortMalloc+0x158>)
 800479e:	6811      	ldr	r1, [r2, #0]
 80047a0:	e003      	b.n	80047aa <pvPortMalloc+0x46>
 80047a2:	680e      	ldr	r6, [r1, #0]
 80047a4:	b126      	cbz	r6, 80047b0 <pvPortMalloc+0x4c>
 80047a6:	460a      	mov	r2, r1
 80047a8:	4631      	mov	r1, r6
 80047aa:	6848      	ldr	r0, [r1, #4]
 80047ac:	42a0      	cmp	r0, r4
 80047ae:	d3f8      	bcc.n	80047a2 <pvPortMalloc+0x3e>
 80047b0:	4299      	cmp	r1, r3
 80047b2:	d015      	beq.n	80047e0 <pvPortMalloc+0x7c>
 80047b4:	460e      	mov	r6, r1
 80047b6:	eba0 0e04 	sub.w	lr, r0, r4
 80047ba:	f856 8b08 	ldr.w	r8, [r6], #8
 80047be:	f8c2 8000 	str.w	r8, [r2]
 80047c2:	f1be 0f10 	cmp.w	lr, #16
 80047c6:	d952      	bls.n	800486e <pvPortMalloc+0x10a>
 80047c8:	190a      	adds	r2, r1, r4
 80047ca:	0750      	lsls	r0, r2, #29
 80047cc:	d032      	beq.n	8004834 <pvPortMalloc+0xd0>
 80047ce:	f04f 0350 	mov.w	r3, #80	; 0x50
 80047d2:	f383 8811 	msr	BASEPRI, r3
 80047d6:	f3bf 8f6f 	isb	sy
 80047da:	f3bf 8f4f 	dsb	sy
 80047de:	e7fe      	b.n	80047de <pvPortMalloc+0x7a>
 80047e0:	f7ff fd26 	bl	8004230 <xTaskResumeAll>
 80047e4:	2600      	movs	r6, #0
 80047e6:	4630      	mov	r0, r6
 80047e8:	e8bd 81f0 	ldmia.w	sp!, {r4, r5, r6, r7, r8, pc}
 80047ec:	4b34      	ldr	r3, [pc, #208]	; (80048c0 <pvPortMalloc+0x15c>)
 80047ee:	4c33      	ldr	r4, [pc, #204]	; (80048bc <pvPortMalloc+0x158>)
 80047f0:	4d34      	ldr	r5, [pc, #208]	; (80048c4 <pvPortMalloc+0x160>)
 80047f2:	f8df c0d4 	ldr.w	ip, [pc, #212]	; 80048c8 <pvPortMalloc+0x164>
 80047f6:	075f      	lsls	r7, r3, #29
 80047f8:	bf14      	ite	ne
 80047fa:	1dda      	addne	r2, r3, #7
 80047fc:	461a      	moveq	r2, r3
 80047fe:	f503 6320 	add.w	r3, r3, #2560	; 0xa00
 8004802:	f1a3 0308 	sub.w	r3, r3, #8
 8004806:	f023 0307 	bic.w	r3, r3, #7
 800480a:	bf18      	it	ne
 800480c:	f022 0207 	bicne.w	r2, r2, #7
 8004810:	6022      	str	r2, [r4, #0]
 8004812:	4611      	mov	r1, r2
 8004814:	4f28      	ldr	r7, [pc, #160]	; (80048b8 <pvPortMalloc+0x154>)
 8004816:	6003      	str	r3, [r0, #0]
 8004818:	1a9a      	subs	r2, r3, r2
 800481a:	2000      	movs	r0, #0
 800481c:	602a      	str	r2, [r5, #0]
 800481e:	f04f 4500 	mov.w	r5, #2147483648	; 0x80000000
 8004822:	6060      	str	r0, [r4, #4]
 8004824:	f8cc 2000 	str.w	r2, [ip]
 8004828:	e9c3 0000 	strd	r0, r0, [r3]
 800482c:	603d      	str	r5, [r7, #0]
 800482e:	e9c1 3200 	strd	r3, r2, [r1]
 8004832:	e7a2      	b.n	800477a <pvPortMalloc+0x16>
 8004834:	4821      	ldr	r0, [pc, #132]	; (80048bc <pvPortMalloc+0x158>)
 8004836:	f8c2 e004 	str.w	lr, [r2, #4]
 800483a:	604c      	str	r4, [r1, #4]
 800483c:	4686      	mov	lr, r0
 800483e:	6800      	ldr	r0, [r0, #0]
 8004840:	4282      	cmp	r2, r0
 8004842:	d8fb      	bhi.n	800483c <pvPortMalloc+0xd8>
 8004844:	f8de 4004 	ldr.w	r4, [lr, #4]
 8004848:	eb0e 0804 	add.w	r8, lr, r4
 800484c:	4542      	cmp	r2, r8
 800484e:	d127      	bne.n	80048a0 <pvPortMalloc+0x13c>
 8004850:	6852      	ldr	r2, [r2, #4]
 8004852:	4414      	add	r4, r2
 8004854:	f8ce 4004 	str.w	r4, [lr, #4]
 8004858:	4672      	mov	r2, lr
 800485a:	eb02 0804 	add.w	r8, r2, r4
 800485e:	4540      	cmp	r0, r8
 8004860:	d020      	beq.n	80048a4 <pvPortMalloc+0x140>
 8004862:	6010      	str	r0, [r2, #0]
 8004864:	4596      	cmp	lr, r2
 8004866:	6848      	ldr	r0, [r1, #4]
 8004868:	bf18      	it	ne
 800486a:	f8ce 2000 	strne.w	r2, [lr]
 800486e:	4c16      	ldr	r4, [pc, #88]	; (80048c8 <pvPortMalloc+0x164>)
 8004870:	6822      	ldr	r2, [r4, #0]
 8004872:	1a3f      	subs	r7, r7, r0
 8004874:	2300      	movs	r3, #0
 8004876:	4328      	orrs	r0, r5
 8004878:	4297      	cmp	r7, r2
 800487a:	e9c1 3000 	strd	r3, r0, [r1]
 800487e:	bf38      	it	cc
 8004880:	6027      	strcc	r7, [r4, #0]
 8004882:	f8cc 7000 	str.w	r7, [ip]
 8004886:	f7ff fcd3 	bl	8004230 <xTaskResumeAll>
 800488a:	0773      	lsls	r3, r6, #29
 800488c:	d0ab      	beq.n	80047e6 <pvPortMalloc+0x82>
 800488e:	f04f 0350 	mov.w	r3, #80	; 0x50
 8004892:	f383 8811 	msr	BASEPRI, r3
 8004896:	f3bf 8f6f 	isb	sy
 800489a:	f3bf 8f4f 	dsb	sy
 800489e:	e7fe      	b.n	800489e <pvPortMalloc+0x13a>
 80048a0:	6854      	ldr	r4, [r2, #4]
 80048a2:	e7da      	b.n	800485a <pvPortMalloc+0xf6>
 80048a4:	4298      	cmp	r0, r3
 80048a6:	d0dc      	beq.n	8004862 <pvPortMalloc+0xfe>
 80048a8:	e9d0 0300 	ldrd	r0, r3, [r0]
 80048ac:	441c      	add	r4, r3
 80048ae:	6010      	str	r0, [r2, #0]
 80048b0:	6054      	str	r4, [r2, #4]
 80048b2:	e7d7      	b.n	8004864 <pvPortMalloc+0x100>
 80048b4:	200001e8 	.word	0x200001e8
 80048b8:	20000bec 	.word	0x20000bec
 80048bc:	20000bf8 	.word	0x20000bf8
 80048c0:	200001ec 	.word	0x200001ec
 80048c4:	20000bf0 	.word	0x20000bf0
 80048c8:	20000bf4 	.word	0x20000bf4

080048cc <vPortFree>:
 80048cc:	b1e0      	cbz	r0, 8004908 <vPortFree+0x3c>
 80048ce:	4a27      	ldr	r2, [pc, #156]	; (800496c <vPortFree+0xa0>)
 80048d0:	b538      	push	{r3, r4, r5, lr}
 80048d2:	6812      	ldr	r2, [r2, #0]
 80048d4:	f850 3c04 	ldr.w	r3, [r0, #-4]
 80048d8:	4213      	tst	r3, r2
 80048da:	4604      	mov	r4, r0
 80048dc:	d00b      	beq.n	80048f6 <vPortFree+0x2a>
 80048de:	f850 1c08 	ldr.w	r1, [r0, #-8]
 80048e2:	b191      	cbz	r1, 800490a <vPortFree+0x3e>
 80048e4:	f04f 0350 	mov.w	r3, #80	; 0x50
 80048e8:	f383 8811 	msr	BASEPRI, r3
 80048ec:	f3bf 8f6f 	isb	sy
 80048f0:	f3bf 8f4f 	dsb	sy
 80048f4:	e7fe      	b.n	80048f4 <vPortFree+0x28>
 80048f6:	f04f 0350 	mov.w	r3, #80	; 0x50
 80048fa:	f383 8811 	msr	BASEPRI, r3
 80048fe:	f3bf 8f6f 	isb	sy
 8004902:	f3bf 8f4f 	dsb	sy
 8004906:	e7fe      	b.n	8004906 <vPortFree+0x3a>
 8004908:	4770      	bx	lr
 800490a:	ea23 0302 	bic.w	r3, r3, r2
 800490e:	f840 3c04 	str.w	r3, [r0, #-4]
 8004912:	f7ff fbd1 	bl	80040b8 <vTaskSuspendAll>
 8004916:	4916      	ldr	r1, [pc, #88]	; (8004970 <vPortFree+0xa4>)
 8004918:	f854 0c04 	ldr.w	r0, [r4, #-4]
 800491c:	680b      	ldr	r3, [r1, #0]
 800491e:	4a15      	ldr	r2, [pc, #84]	; (8004974 <vPortFree+0xa8>)
 8004920:	4403      	add	r3, r0
 8004922:	600b      	str	r3, [r1, #0]
 8004924:	f1a4 0308 	sub.w	r3, r4, #8
 8004928:	4611      	mov	r1, r2
 800492a:	6812      	ldr	r2, [r2, #0]
 800492c:	4293      	cmp	r3, r2
 800492e:	d8fb      	bhi.n	8004928 <vPortFree+0x5c>
 8004930:	684c      	ldr	r4, [r1, #4]
 8004932:	190d      	adds	r5, r1, r4
 8004934:	42ab      	cmp	r3, r5
 8004936:	d00a      	beq.n	800494e <vPortFree+0x82>
 8004938:	181c      	adds	r4, r3, r0
 800493a:	42a2      	cmp	r2, r4
 800493c:	d00b      	beq.n	8004956 <vPortFree+0x8a>
 800493e:	601a      	str	r2, [r3, #0]
 8004940:	4299      	cmp	r1, r3
 8004942:	bf18      	it	ne
 8004944:	600b      	strne	r3, [r1, #0]
 8004946:	e8bd 4038 	ldmia.w	sp!, {r3, r4, r5, lr}
 800494a:	f7ff bc71 	b.w	8004230 <xTaskResumeAll>
 800494e:	4420      	add	r0, r4
 8004950:	6048      	str	r0, [r1, #4]
 8004952:	460b      	mov	r3, r1
 8004954:	e7f0      	b.n	8004938 <vPortFree+0x6c>
 8004956:	4c08      	ldr	r4, [pc, #32]	; (8004978 <vPortFree+0xac>)
 8004958:	6824      	ldr	r4, [r4, #0]
 800495a:	42a2      	cmp	r2, r4
 800495c:	d0ef      	beq.n	800493e <vPortFree+0x72>
 800495e:	e9d2 2400 	ldrd	r2, r4, [r2]
 8004962:	4420      	add	r0, r4
 8004964:	601a      	str	r2, [r3, #0]
 8004966:	6058      	str	r0, [r3, #4]
 8004968:	e7ea      	b.n	8004940 <vPortFree+0x74>
 800496a:	bf00      	nop
 800496c:	20000bec 	.word	0x20000bec
 8004970:	20000bf0 	.word	0x20000bf0
 8004974:	20000bf8 	.word	0x20000bf8
 8004978:	200001e8 	.word	0x200001e8

0800497c <ScreenAndButtonTask>:
 800497c:	b580      	push	{r7, lr}
 800497e:	4d18      	ldr	r5, [pc, #96]	; (80049e0 <ScreenAndButtonTask+0x64>)
 8004980:	4c18      	ldr	r4, [pc, #96]	; (80049e4 <ScreenAndButtonTask+0x68>)
 8004982:	4f19      	ldr	r7, [pc, #100]	; (80049e8 <ScreenAndButtonTask+0x6c>)
 8004984:	f44f 5680 	mov.w	r6, #4096	; 0x1000
 8004988:	e006      	b.n	8004998 <ScreenAndButtonTask+0x1c>
 800498a:	f002 fe35 	bl	80075f8 <ssd1306_off>
 800498e:	f001 f89f 	bl	8005ad0 <STORING_SaveSetting>
 8004992:	2032      	movs	r0, #50	; 0x32
 8004994:	f7ff f830 	bl	80039f8 <osDelay>
 8004998:	6863      	ldr	r3, [r4, #4]
 800499a:	05db      	lsls	r3, r3, #23
 800499c:	d50e      	bpl.n	80049bc <ScreenAndButtonTask+0x40>
 800499e:	f7fb feff 	bl	80007a0 <HAL_GetTick>
 80049a2:	682a      	ldr	r2, [r5, #0]
 80049a4:	f64e 2360 	movw	r3, #60000	; 0xea60
 80049a8:	1a80      	subs	r0, r0, r2
 80049aa:	4298      	cmp	r0, r3
 80049ac:	d903      	bls.n	80049b6 <ScreenAndButtonTask+0x3a>
 80049ae:	f002 fe3d 	bl	800762c <ssd1306_CheckDisplayStatus>
 80049b2:	2800      	cmp	r0, #0
 80049b4:	d1e9      	bne.n	800498a <ScreenAndButtonTask+0xe>
 80049b6:	f7fb fc5b 	bl	8000270 <DISPLAY_ShowMenu>
 80049ba:	e7ea      	b.n	8004992 <ScreenAndButtonTask+0x16>
 80049bc:	f002 fe36 	bl	800762c <ssd1306_CheckDisplayStatus>
 80049c0:	2801      	cmp	r0, #1
 80049c2:	d00a      	beq.n	80049da <ScreenAndButtonTask+0x5e>
 80049c4:	f002 fdfe 	bl	80075c4 <ssd1306_on>
 80049c8:	f44f 7380 	mov.w	r3, #256	; 0x100
 80049cc:	617e      	str	r6, [r7, #20]
 80049ce:	2028      	movs	r0, #40	; 0x28
 80049d0:	f8c4 3184 	str.w	r3, [r4, #388]	; 0x184
 80049d4:	f7fb ff48 	bl	8000868 <HAL_NVIC_EnableIRQ>
 80049d8:	e7e1      	b.n	800499e <ScreenAndButtonTask+0x22>
 80049da:	f7fe ffbf 	bl	800395c <KEYBOARD_ButtonClick>
 80049de:	e7f3      	b.n	80049c8 <ScreenAndButtonTask+0x4c>
 80049e0:	200000b4 	.word	0x200000b4
 80049e4:	e000e100 	.word	0xe000e100
 80049e8:	40010400 	.word	0x40010400

080049ec <FansTask>:
 80049ec:	e92d 4ff8 	stmdb	sp!, {r3, r4, r5, r6, r7, r8, r9, sl, fp, lr}
 80049f0:	4d22      	ldr	r5, [pc, #136]	; (8004a7c <FansTask+0x90>)
 80049f2:	f8df a09c 	ldr.w	sl, [pc, #156]	; 8004a90 <FansTask+0xa4>
 80049f6:	f8df b09c 	ldr.w	fp, [pc, #156]	; 8004a94 <FansTask+0xa8>
 80049fa:	f8df 909c 	ldr.w	r9, [pc, #156]	; 8004a98 <FansTask+0xac>
 80049fe:	4f20      	ldr	r7, [pc, #128]	; (8004a80 <FansTask+0x94>)
 8004a00:	4e20      	ldr	r6, [pc, #128]	; (8004a84 <FansTask+0x98>)
 8004a02:	46a8      	mov	r8, r5
 8004a04:	e01c      	b.n	8004a40 <FansTask+0x54>
 8004a06:	f8db 2014 	ldr.w	r2, [fp, #20]
 8004a0a:	4293      	cmp	r3, r2
 8004a0c:	bf8c      	ite	hi
 8004a0e:	2300      	movhi	r3, #0
 8004a10:	2301      	movls	r3, #1
 8004a12:	f889 3000 	strb.w	r3, [r9]
 8004a16:	f7fe fe8d 	bl	8003734 <FANS_SetSpeed>
 8004a1a:	783b      	ldrb	r3, [r7, #0]
 8004a1c:	b133      	cbz	r3, 8004a2c <FansTask+0x40>
 8004a1e:	f7fe fcf9 	bl	8003414 <FANS_CalculationDate>
 8004a22:	f7fe fb13 	bl	800304c <FANS_UpdateCyrrentDays>
 8004a26:	f04f 0300 	mov.w	r3, #0
 8004a2a:	703b      	strb	r3, [r7, #0]
 8004a2c:	4816      	ldr	r0, [pc, #88]	; (8004a88 <FansTask+0x9c>)
 8004a2e:	f7fc fc77 	bl	8001320 <HAL_IWDG_Refresh>
 8004a32:	f7fb feb5 	bl	80007a0 <HAL_GetTick>
 8004a36:	f504 747a 	add.w	r4, r4, #1000	; 0x3e8
 8004a3a:	1a20      	subs	r0, r4, r0
 8004a3c:	f7fe ffdc 	bl	80039f8 <osDelay>
 8004a40:	f7fb feae 	bl	80007a0 <HAL_GetTick>
 8004a44:	2200      	movs	r2, #0
 8004a46:	4641      	mov	r1, r8
 8004a48:	4604      	mov	r4, r0
 8004a4a:	4630      	mov	r0, r6
 8004a4c:	f7fd fac8 	bl	8001fe0 <HAL_RTC_GetTime>
 8004a50:	490e      	ldr	r1, [pc, #56]	; (8004a8c <FansTask+0xa0>)
 8004a52:	2200      	movs	r2, #0
 8004a54:	4630      	mov	r0, r6
 8004a56:	f7fd fb9f 	bl	8002198 <HAL_RTC_GetDate>
 8004a5a:	7869      	ldrb	r1, [r5, #1]
 8004a5c:	782b      	ldrb	r3, [r5, #0]
 8004a5e:	78a8      	ldrb	r0, [r5, #2]
 8004a60:	f8da 2014 	ldr.w	r2, [sl, #20]
 8004a64:	ebc1 1101 	rsb	r1, r1, r1, lsl #4
 8004a68:	0089      	lsls	r1, r1, #2
 8004a6a:	f44f 6c61 	mov.w	ip, #3600	; 0xe10
 8004a6e:	fb0c 1303 	mla	r3, ip, r3, r1
 8004a72:	4403      	add	r3, r0
 8004a74:	4293      	cmp	r3, r2
 8004a76:	d2c6      	bcs.n	8004a06 <FansTask+0x1a>
 8004a78:	2300      	movs	r3, #0
 8004a7a:	e7ca      	b.n	8004a12 <FansTask+0x26>
 8004a7c:	20000e58 	.word	0x20000e58
 8004a80:	200000b0 	.word	0x200000b0
 8004a84:	2000179c 	.word	0x2000179c
 8004a88:	2000178c 	.word	0x2000178c
 8004a8c:	20000e54 	.word	0x20000e54
 8004a90:	20000e88 	.word	0x20000e88
 8004a94:	20000e70 	.word	0x20000e70
 8004a98:	20001304 	.word	0x20001304

08004a9c <vApplicationGetIdleTaskMemory>:
 8004a9c:	4b04      	ldr	r3, [pc, #16]	; (8004ab0 <vApplicationGetIdleTaskMemory+0x14>)
 8004a9e:	6003      	str	r3, [r0, #0]
 8004aa0:	b410      	push	{r4}
 8004aa2:	2380      	movs	r3, #128	; 0x80
 8004aa4:	4c03      	ldr	r4, [pc, #12]	; (8004ab4 <vApplicationGetIdleTaskMemory+0x18>)
 8004aa6:	600c      	str	r4, [r1, #0]
 8004aa8:	f85d 4b04 	ldr.w	r4, [sp], #4
 8004aac:	6013      	str	r3, [r2, #0]
 8004aae:	4770      	bx	lr
 8004ab0:	20000e00 	.word	0x20000e00
 8004ab4:	20000c00 	.word	0x20000c00

08004ab8 <MX_FREERTOS_Init>:
 8004ab8:	b570      	push	{r4, r5, r6, lr}
 8004aba:	4c10      	ldr	r4, [pc, #64]	; (8004afc <MX_FREERTOS_Init+0x44>)
 8004abc:	4626      	mov	r6, r4
 8004abe:	ce0f      	ldmia	r6!, {r0, r1, r2, r3}
 8004ac0:	b08e      	sub	sp, #56	; 0x38
 8004ac2:	466d      	mov	r5, sp
 8004ac4:	c50f      	stmia	r5!, {r0, r1, r2, r3}
 8004ac6:	e896 0007 	ldmia.w	r6, {r0, r1, r2}
 8004aca:	e885 0007 	stmia.w	r5, {r0, r1, r2}
 8004ace:	2100      	movs	r1, #0
 8004ad0:	4668      	mov	r0, sp
 8004ad2:	f7fe ff65 	bl	80039a0 <osThreadCreate>
 8004ad6:	341c      	adds	r4, #28
 8004ad8:	4606      	mov	r6, r0
 8004ada:	cc0f      	ldmia	r4!, {r0, r1, r2, r3}
 8004adc:	ad07      	add	r5, sp, #28
 8004ade:	c50f      	stmia	r5!, {r0, r1, r2, r3}
 8004ae0:	e894 0007 	ldmia.w	r4, {r0, r1, r2}
 8004ae4:	4b06      	ldr	r3, [pc, #24]	; (8004b00 <MX_FREERTOS_Init+0x48>)
 8004ae6:	e885 0007 	stmia.w	r5, {r0, r1, r2}
 8004aea:	2100      	movs	r1, #0
 8004aec:	a807      	add	r0, sp, #28
 8004aee:	601e      	str	r6, [r3, #0]
 8004af0:	f7fe ff56 	bl	80039a0 <osThreadCreate>
 8004af4:	4b03      	ldr	r3, [pc, #12]	; (8004b04 <MX_FREERTOS_Init+0x4c>)
 8004af6:	6018      	str	r0, [r3, #0]
 8004af8:	b00e      	add	sp, #56	; 0x38
 8004afa:	bd70      	pop	{r4, r5, r6, pc}
 8004afc:	08008510 	.word	0x08008510
 8004b00:	20001738 	.word	0x20001738
 8004b04:	2000173c 	.word	0x2000173c

08004b08 <MX_GPIO_Init>:
 8004b08:	b5f0      	push	{r4, r5, r6, r7, lr}
 8004b0a:	2400      	movs	r4, #0
 8004b0c:	b08b      	sub	sp, #44	; 0x2c
 8004b0e:	e9cd 4404 	strd	r4, r4, [sp, #16]
 8004b12:	e9cd 4406 	strd	r4, r4, [sp, #24]
 8004b16:	4b37      	ldr	r3, [pc, #220]	; (8004bf4 <MX_GPIO_Init+0xec>)
 8004b18:	9408      	str	r4, [sp, #32]
 8004b1a:	695a      	ldr	r2, [r3, #20]
 8004b1c:	4d36      	ldr	r5, [pc, #216]	; (8004bf8 <MX_GPIO_Init+0xf0>)
 8004b1e:	f442 2200 	orr.w	r2, r2, #524288	; 0x80000
 8004b22:	615a      	str	r2, [r3, #20]
 8004b24:	695a      	ldr	r2, [r3, #20]
 8004b26:	f402 2200 	and.w	r2, r2, #524288	; 0x80000
 8004b2a:	9200      	str	r2, [sp, #0]
 8004b2c:	9a00      	ldr	r2, [sp, #0]
 8004b2e:	695a      	ldr	r2, [r3, #20]
 8004b30:	f442 0280 	orr.w	r2, r2, #4194304	; 0x400000
 8004b34:	615a      	str	r2, [r3, #20]
 8004b36:	695a      	ldr	r2, [r3, #20]
 8004b38:	f402 0280 	and.w	r2, r2, #4194304	; 0x400000
 8004b3c:	9201      	str	r2, [sp, #4]
 8004b3e:	9a01      	ldr	r2, [sp, #4]
 8004b40:	695a      	ldr	r2, [r3, #20]
 8004b42:	f442 3200 	orr.w	r2, r2, #131072	; 0x20000
 8004b46:	615a      	str	r2, [r3, #20]
 8004b48:	695a      	ldr	r2, [r3, #20]
 8004b4a:	f402 3200 	and.w	r2, r2, #131072	; 0x20000
 8004b4e:	9202      	str	r2, [sp, #8]
 8004b50:	9a02      	ldr	r2, [sp, #8]
 8004b52:	695a      	ldr	r2, [r3, #20]
 8004b54:	f442 2280 	orr.w	r2, r2, #262144	; 0x40000
 8004b58:	615a      	str	r2, [r3, #20]
 8004b5a:	695b      	ldr	r3, [r3, #20]
 8004b5c:	f403 2380 	and.w	r3, r3, #262144	; 0x40000
 8004b60:	9303      	str	r3, [sp, #12]
 8004b62:	4622      	mov	r2, r4
 8004b64:	213c      	movs	r1, #60	; 0x3c
 8004b66:	f04f 4090 	mov.w	r0, #1207959552	; 0x48000000
 8004b6a:	9b03      	ldr	r3, [sp, #12]
 8004b6c:	f7fc f918 	bl	8000da0 <HAL_GPIO_WritePin>
 8004b70:	4622      	mov	r2, r4
 8004b72:	4628      	mov	r0, r5
 8004b74:	f44f 4170 	mov.w	r1, #61440	; 0xf000
 8004b78:	f7fc f912 	bl	8000da0 <HAL_GPIO_WritePin>
 8004b7c:	2600      	movs	r6, #0
 8004b7e:	2700      	movs	r7, #0
 8004b80:	a904      	add	r1, sp, #16
 8004b82:	223c      	movs	r2, #60	; 0x3c
 8004b84:	2301      	movs	r3, #1
 8004b86:	f04f 4090 	mov.w	r0, #1207959552	; 0x48000000
 8004b8a:	e9cd 2304 	strd	r2, r3, [sp, #16]
 8004b8e:	e9cd 6706 	strd	r6, r7, [sp, #24]
 8004b92:	f7fc f81b 	bl	8000bcc <HAL_GPIO_Init>
 8004b96:	f44f 5280 	mov.w	r2, #4096	; 0x1000
 8004b9a:	2301      	movs	r3, #1
 8004b9c:	e9cd 2304 	strd	r2, r3, [sp, #16]
 8004ba0:	a904      	add	r1, sp, #16
 8004ba2:	4628      	mov	r0, r5
 8004ba4:	2202      	movs	r2, #2
 8004ba6:	2301      	movs	r3, #1
 8004ba8:	e9cd 2306 	strd	r2, r3, [sp, #24]
 8004bac:	f7fc f80e 	bl	8000bcc <HAL_GPIO_Init>
 8004bb0:	e9cd 6706 	strd	r6, r7, [sp, #24]
 8004bb4:	f44f 4260 	mov.w	r2, #57344	; 0xe000
 8004bb8:	4628      	mov	r0, r5
 8004bba:	a904      	add	r1, sp, #16
 8004bbc:	2301      	movs	r3, #1
 8004bbe:	4f0f      	ldr	r7, [pc, #60]	; (8004bfc <MX_GPIO_Init+0xf4>)
 8004bc0:	e9cd 2304 	strd	r2, r3, [sp, #16]
 8004bc4:	f44f 5680 	mov.w	r6, #4096	; 0x1000
 8004bc8:	f7fc f800 	bl	8000bcc <HAL_GPIO_Init>
 8004bcc:	2302      	movs	r3, #2
 8004bce:	a904      	add	r1, sp, #16
 8004bd0:	f04f 4090 	mov.w	r0, #1207959552	; 0x48000000
 8004bd4:	9306      	str	r3, [sp, #24]
 8004bd6:	e9cd 6704 	strd	r6, r7, [sp, #16]
 8004bda:	f7fb fff7 	bl	8000bcc <HAL_GPIO_Init>
 8004bde:	4622      	mov	r2, r4
 8004be0:	2105      	movs	r1, #5
 8004be2:	2028      	movs	r0, #40	; 0x28
 8004be4:	f7fb fe08 	bl	80007f8 <HAL_NVIC_SetPriority>
 8004be8:	2028      	movs	r0, #40	; 0x28
 8004bea:	f7fb fe3d 	bl	8000868 <HAL_NVIC_EnableIRQ>
 8004bee:	b00b      	add	sp, #44	; 0x2c
 8004bf0:	bdf0      	pop	{r4, r5, r6, r7, pc}
 8004bf2:	bf00      	nop
 8004bf4:	40021000 	.word	0x40021000
 8004bf8:	48000400 	.word	0x48000400
 8004bfc:	10110000 	.word	0x10110000

08004c00 <MX_I2C1_Init>:
 8004c00:	4818      	ldr	r0, [pc, #96]	; (8004c64 <MX_I2C1_Init+0x64>)
 8004c02:	4919      	ldr	r1, [pc, #100]	; (8004c68 <MX_I2C1_Init+0x68>)
 8004c04:	b508      	push	{r3, lr}
 8004c06:	4b19      	ldr	r3, [pc, #100]	; (8004c6c <MX_I2C1_Init+0x6c>)
 8004c08:	6003      	str	r3, [r0, #0]
 8004c0a:	2201      	movs	r2, #1
 8004c0c:	2300      	movs	r3, #0
 8004c0e:	e9c0 3202 	strd	r3, r2, [r0, #8]
 8004c12:	e9c0 3304 	strd	r3, r3, [r0, #16]
 8004c16:	e9c0 3306 	strd	r3, r3, [r0, #24]
 8004c1a:	6041      	str	r1, [r0, #4]
 8004c1c:	6203      	str	r3, [r0, #32]
 8004c1e:	f7fc f97b 	bl	8000f18 <HAL_I2C_Init>
 8004c22:	b950      	cbnz	r0, 8004c3a <MX_I2C1_Init+0x3a>
 8004c24:	480f      	ldr	r0, [pc, #60]	; (8004c64 <MX_I2C1_Init+0x64>)
 8004c26:	2100      	movs	r1, #0
 8004c28:	f7fc faf8 	bl	800121c <HAL_I2CEx_ConfigAnalogFilter>
 8004c2c:	b968      	cbnz	r0, 8004c4a <MX_I2C1_Init+0x4a>
 8004c2e:	480d      	ldr	r0, [pc, #52]	; (8004c64 <MX_I2C1_Init+0x64>)
 8004c30:	2100      	movs	r1, #0
 8004c32:	f7fc fb1f 	bl	8001274 <HAL_I2CEx_ConfigDigitalFilter>
 8004c36:	b980      	cbnz	r0, 8004c5a <MX_I2C1_Init+0x5a>
 8004c38:	bd08      	pop	{r3, pc}
 8004c3a:	f000 f959 	bl	8004ef0 <Error_Handler>
 8004c3e:	4809      	ldr	r0, [pc, #36]	; (8004c64 <MX_I2C1_Init+0x64>)
 8004c40:	2100      	movs	r1, #0
 8004c42:	f7fc faeb 	bl	800121c <HAL_I2CEx_ConfigAnalogFilter>
 8004c46:	2800      	cmp	r0, #0
 8004c48:	d0f1      	beq.n	8004c2e <MX_I2C1_Init+0x2e>
 8004c4a:	f000 f951 	bl	8004ef0 <Error_Handler>
 8004c4e:	4805      	ldr	r0, [pc, #20]	; (8004c64 <MX_I2C1_Init+0x64>)
 8004c50:	2100      	movs	r1, #0
 8004c52:	f7fc fb0f 	bl	8001274 <HAL_I2CEx_ConfigDigitalFilter>
 8004c56:	2800      	cmp	r0, #0
 8004c58:	d0ee      	beq.n	8004c38 <MX_I2C1_Init+0x38>
 8004c5a:	e8bd 4008 	ldmia.w	sp!, {r3, lr}
 8004c5e:	f000 b947 	b.w	8004ef0 <Error_Handler>
 8004c62:	bf00      	nop
 8004c64:	20001740 	.word	0x20001740
 8004c68:	2000090e 	.word	0x2000090e
 8004c6c:	40005400 	.word	0x40005400

08004c70 <HAL_I2C_MspInit>:
 8004c70:	b570      	push	{r4, r5, r6, lr}
 8004c72:	6801      	ldr	r1, [r0, #0]
 8004c74:	4a17      	ldr	r2, [pc, #92]	; (8004cd4 <HAL_I2C_MspInit+0x64>)
 8004c76:	b088      	sub	sp, #32
 8004c78:	2300      	movs	r3, #0
 8004c7a:	4291      	cmp	r1, r2
 8004c7c:	e9cd 3302 	strd	r3, r3, [sp, #8]
 8004c80:	e9cd 3304 	strd	r3, r3, [sp, #16]
 8004c84:	9306      	str	r3, [sp, #24]
 8004c86:	d001      	beq.n	8004c8c <HAL_I2C_MspInit+0x1c>
 8004c88:	b008      	add	sp, #32
 8004c8a:	bd70      	pop	{r4, r5, r6, pc}
 8004c8c:	4c12      	ldr	r4, [pc, #72]	; (8004cd8 <HAL_I2C_MspInit+0x68>)
 8004c8e:	4813      	ldr	r0, [pc, #76]	; (8004cdc <HAL_I2C_MspInit+0x6c>)
 8004c90:	6963      	ldr	r3, [r4, #20]
 8004c92:	f443 2380 	orr.w	r3, r3, #262144	; 0x40000
 8004c96:	6163      	str	r3, [r4, #20]
 8004c98:	6963      	ldr	r3, [r4, #20]
 8004c9a:	f403 2380 	and.w	r3, r3, #262144	; 0x40000
 8004c9e:	9300      	str	r3, [sp, #0]
 8004ca0:	22c0      	movs	r2, #192	; 0xc0
 8004ca2:	2312      	movs	r3, #18
 8004ca4:	e9cd 2302 	strd	r2, r3, [sp, #8]
 8004ca8:	a902      	add	r1, sp, #8
 8004caa:	2201      	movs	r2, #1
 8004cac:	2303      	movs	r3, #3
 8004cae:	2504      	movs	r5, #4
 8004cb0:	e9cd 2304 	strd	r2, r3, [sp, #16]
 8004cb4:	9e00      	ldr	r6, [sp, #0]
 8004cb6:	9506      	str	r5, [sp, #24]
 8004cb8:	f7fb ff88 	bl	8000bcc <HAL_GPIO_Init>
 8004cbc:	69e3      	ldr	r3, [r4, #28]
 8004cbe:	f443 1300 	orr.w	r3, r3, #2097152	; 0x200000
 8004cc2:	61e3      	str	r3, [r4, #28]
 8004cc4:	69e3      	ldr	r3, [r4, #28]
 8004cc6:	f403 1300 	and.w	r3, r3, #2097152	; 0x200000
 8004cca:	9301      	str	r3, [sp, #4]
 8004ccc:	9b01      	ldr	r3, [sp, #4]
 8004cce:	b008      	add	sp, #32
 8004cd0:	bd70      	pop	{r4, r5, r6, pc}
 8004cd2:	bf00      	nop
 8004cd4:	40005400 	.word	0x40005400
 8004cd8:	40021000 	.word	0x40021000
 8004cdc:	48000400 	.word	0x48000400

08004ce0 <MX_IWDG_Init>:
 8004ce0:	4808      	ldr	r0, [pc, #32]	; (8004d04 <MX_IWDG_Init+0x24>)
 8004ce2:	b508      	push	{r3, lr}
 8004ce4:	4b08      	ldr	r3, [pc, #32]	; (8004d08 <MX_IWDG_Init+0x28>)
 8004ce6:	6003      	str	r3, [r0, #0]
 8004ce8:	2203      	movs	r2, #3
 8004cea:	f640 13c3 	movw	r3, #2499	; 0x9c3
 8004cee:	e9c0 3302 	strd	r3, r3, [r0, #8]
 8004cf2:	6042      	str	r2, [r0, #4]
 8004cf4:	f7fc fae8 	bl	80012c8 <HAL_IWDG_Init>
 8004cf8:	b900      	cbnz	r0, 8004cfc <MX_IWDG_Init+0x1c>
 8004cfa:	bd08      	pop	{r3, pc}
 8004cfc:	e8bd 4008 	ldmia.w	sp!, {r3, lr}
 8004d00:	f000 b8f6 	b.w	8004ef0 <Error_Handler>
 8004d04:	2000178c 	.word	0x2000178c
 8004d08:	40003000 	.word	0x40003000

08004d0c <SystemClock_Config>:
 8004d0c:	b5d0      	push	{r4, r6, r7, lr}
 8004d0e:	2100      	movs	r1, #0
 8004d10:	b0a0      	sub	sp, #128	; 0x80
 8004d12:	460c      	mov	r4, r1
 8004d14:	a806      	add	r0, sp, #24
 8004d16:	2228      	movs	r2, #40	; 0x28
 8004d18:	f002 ffc6 	bl	8007ca8 <memset>
 8004d1c:	4621      	mov	r1, r4
 8004d1e:	223c      	movs	r2, #60	; 0x3c
 8004d20:	a810      	add	r0, sp, #64	; 0x40
 8004d22:	e9cd 4400 	strd	r4, r4, [sp]
 8004d26:	e9cd 4402 	strd	r4, r4, [sp, #8]
 8004d2a:	9404      	str	r4, [sp, #16]
 8004d2c:	f002 ffbc 	bl	8007ca8 <memset>
 8004d30:	f7fc fafc 	bl	800132c <HAL_PWR_EnableBkUpAccess>
 8004d34:	4a1b      	ldr	r2, [pc, #108]	; (8004da4 <SystemClock_Config+0x98>)
 8004d36:	6a13      	ldr	r3, [r2, #32]
 8004d38:	f023 0318 	bic.w	r3, r3, #24
 8004d3c:	6213      	str	r3, [r2, #32]
 8004d3e:	220f      	movs	r2, #15
 8004d40:	f44f 3380 	mov.w	r3, #65536	; 0x10000
 8004d44:	e9cd 2306 	strd	r2, r3, [sp, #24]
 8004d48:	2600      	movs	r6, #0
 8004d4a:	2701      	movs	r7, #1
 8004d4c:	2201      	movs	r2, #1
 8004d4e:	2310      	movs	r3, #16
 8004d50:	e9cd 6708 	strd	r6, r7, [sp, #32]
 8004d54:	e9cd 230a 	strd	r2, r3, [sp, #40]	; 0x28
 8004d58:	a806      	add	r0, sp, #24
 8004d5a:	f44f 3280 	mov.w	r2, #65536	; 0x10000
 8004d5e:	2300      	movs	r3, #0
 8004d60:	2601      	movs	r6, #1
 8004d62:	2702      	movs	r7, #2
 8004d64:	e9cd 670c 	strd	r6, r7, [sp, #48]	; 0x30
 8004d68:	e9cd 230e 	strd	r2, r3, [sp, #56]	; 0x38
 8004d6c:	260f      	movs	r6, #15
 8004d6e:	f7fc fae5 	bl	800133c <HAL_RCC_OscConfig>
 8004d72:	2702      	movs	r7, #2
 8004d74:	4621      	mov	r1, r4
 8004d76:	2280      	movs	r2, #128	; 0x80
 8004d78:	f44f 63a0 	mov.w	r3, #1280	; 0x500
 8004d7c:	4668      	mov	r0, sp
 8004d7e:	e9cd 2302 	strd	r2, r3, [sp, #8]
 8004d82:	e9cd 6700 	strd	r6, r7, [sp]
 8004d86:	9404      	str	r4, [sp, #16]
 8004d88:	f7fc fdc4 	bl	8001914 <HAL_RCC_ClockConfig>
 8004d8c:	4a06      	ldr	r2, [pc, #24]	; (8004da8 <SystemClock_Config+0x9c>)
 8004d8e:	9417      	str	r4, [sp, #92]	; 0x5c
 8004d90:	f44f 7380 	mov.w	r3, #256	; 0x100
 8004d94:	a810      	add	r0, sp, #64	; 0x40
 8004d96:	e9cd 2310 	strd	r2, r3, [sp, #64]	; 0x40
 8004d9a:	941c      	str	r4, [sp, #112]	; 0x70
 8004d9c:	f7fc fee8 	bl	8001b70 <HAL_RCCEx_PeriphCLKConfig>
 8004da0:	b020      	add	sp, #128	; 0x80
 8004da2:	bdd0      	pop	{r4, r6, r7, pc}
 8004da4:	40021000 	.word	0x40021000
 8004da8:	00011020 	.word	0x00011020

08004dac <main>:
 8004dac:	b508      	push	{r3, lr}
 8004dae:	f7fb fcd9 	bl	8000764 <HAL_Init>
 8004db2:	f7ff ffab 	bl	8004d0c <SystemClock_Config>
 8004db6:	f7ff fea7 	bl	8004b08 <MX_GPIO_Init>
 8004dba:	f7ff ff21 	bl	8004c00 <MX_I2C1_Init>
 8004dbe:	f000 f899 	bl	8004ef4 <MX_RTC_Init>
 8004dc2:	f000 fb75 	bl	80054b0 <MX_TIM1_Init>
 8004dc6:	f000 f9b3 	bl	8005130 <MX_TIM2_Init>
 8004dca:	f000 fc01 	bl	80055d0 <MX_TIM3_Init>
 8004dce:	f000 f9e7 	bl	80051a0 <MX_TIM4_Init>
 8004dd2:	f000 fa21 	bl	8005218 <MX_TIM6_Init>
 8004dd6:	f7ff ff83 	bl	8004ce0 <MX_IWDG_Init>
 8004dda:	4830      	ldr	r0, [pc, #192]	; (8004e9c <main+0xf0>)
 8004ddc:	4c30      	ldr	r4, [pc, #192]	; (8004ea0 <main+0xf4>)
 8004dde:	f7fc fa9f 	bl	8001320 <HAL_IWDG_Refresh>
 8004de2:	4830      	ldr	r0, [pc, #192]	; (8004ea4 <main+0xf8>)
 8004de4:	f7fd fc10 	bl	8002608 <HAL_TIM_Base_Start_IT>
 8004de8:	482f      	ldr	r0, [pc, #188]	; (8004ea8 <main+0xfc>)
 8004dea:	f7fd fc0d 	bl	8002608 <HAL_TIM_Base_Start_IT>
 8004dee:	2104      	movs	r1, #4
 8004df0:	482e      	ldr	r0, [pc, #184]	; (8004eac <main+0x100>)
 8004df2:	f7fd fd6f 	bl	80028d4 <HAL_TIM_Encoder_Start_IT>
 8004df6:	2100      	movs	r1, #0
 8004df8:	482d      	ldr	r0, [pc, #180]	; (8004eb0 <main+0x104>)
 8004dfa:	f7fd fc89 	bl	8002710 <HAL_TIM_PWM_Start>
 8004dfe:	2104      	movs	r1, #4
 8004e00:	482b      	ldr	r0, [pc, #172]	; (8004eb0 <main+0x104>)
 8004e02:	f7fd fc85 	bl	8002710 <HAL_TIM_PWM_Start>
 8004e06:	2108      	movs	r1, #8
 8004e08:	4829      	ldr	r0, [pc, #164]	; (8004eb0 <main+0x104>)
 8004e0a:	f7fd fc81 	bl	8002710 <HAL_TIM_PWM_Start>
 8004e0e:	210c      	movs	r1, #12
 8004e10:	4827      	ldr	r0, [pc, #156]	; (8004eb0 <main+0x104>)
 8004e12:	f7fd fc7d 	bl	8002710 <HAL_TIM_PWM_Start>
 8004e16:	2100      	movs	r1, #0
 8004e18:	4826      	ldr	r0, [pc, #152]	; (8004eb4 <main+0x108>)
 8004e1a:	f7fd fc79 	bl	8002710 <HAL_TIM_PWM_Start>
 8004e1e:	2104      	movs	r1, #4
 8004e20:	4824      	ldr	r0, [pc, #144]	; (8004eb4 <main+0x108>)
 8004e22:	f7fd fc75 	bl	8002710 <HAL_TIM_PWM_Start>
 8004e26:	2108      	movs	r1, #8
 8004e28:	4822      	ldr	r0, [pc, #136]	; (8004eb4 <main+0x108>)
 8004e2a:	f7fd fc71 	bl	8002710 <HAL_TIM_PWM_Start>
 8004e2e:	210c      	movs	r1, #12
 8004e30:	4820      	ldr	r0, [pc, #128]	; (8004eb4 <main+0x108>)
 8004e32:	f7fd fc6d 	bl	8002710 <HAL_TIM_PWM_Start>
 8004e36:	4920      	ldr	r1, [pc, #128]	; (8004eb8 <main+0x10c>)
 8004e38:	4820      	ldr	r0, [pc, #128]	; (8004ebc <main+0x110>)
 8004e3a:	2200      	movs	r2, #0
 8004e3c:	f7fd f8d0 	bl	8001fe0 <HAL_RTC_GetTime>
 8004e40:	481e      	ldr	r0, [pc, #120]	; (8004ebc <main+0x110>)
 8004e42:	4621      	mov	r1, r4
 8004e44:	2200      	movs	r2, #0
 8004e46:	f7fd f9a7 	bl	8002198 <HAL_RTC_GetDate>
 8004e4a:	78e3      	ldrb	r3, [r4, #3]
 8004e4c:	b123      	cbz	r3, 8004e58 <main+0xac>
 8004e4e:	e009      	b.n	8004e64 <main+0xb8>
 8004e50:	f7fb fcac 	bl	80007ac <HAL_Delay>
 8004e54:	78e3      	ldrb	r3, [r4, #3]
 8004e56:	b92b      	cbnz	r3, 8004e64 <main+0xb8>
 8004e58:	7862      	ldrb	r2, [r4, #1]
 8004e5a:	78a3      	ldrb	r3, [r4, #2]
 8004e5c:	4313      	orrs	r3, r2
 8004e5e:	f04f 0001 	mov.w	r0, #1
 8004e62:	d0f5      	beq.n	8004e50 <main+0xa4>
 8004e64:	f44f 70fa 	mov.w	r0, #500	; 0x1f4
 8004e68:	f7fb fca0 	bl	80007ac <HAL_Delay>
 8004e6c:	f7fe fad2 	bl	8003414 <FANS_CalculationDate>
 8004e70:	f000 ffba 	bl	8005de8 <STORING_ReadSetting>
 8004e74:	f000 fc38 	bl	80056e8 <STORING_CheckFirstStart>
 8004e78:	4b11      	ldr	r3, [pc, #68]	; (8004ec0 <main+0x114>)
 8004e7a:	6818      	ldr	r0, [r3, #0]
 8004e7c:	f7fe f9fa 	bl	8003274 <FANS_FillProgram>
 8004e80:	f7fe f8e4 	bl	800304c <FANS_UpdateCyrrentDays>
 8004e84:	f000 ffd8 	bl	8005e38 <MENU_Fill>
 8004e88:	f002 fc2c 	bl	80076e4 <ssd1306_Init>
 8004e8c:	f002 fb9a 	bl	80075c4 <ssd1306_on>
 8004e90:	f7ff fe12 	bl	8004ab8 <MX_FREERTOS_Init>
 8004e94:	f7fe fd7e 	bl	8003994 <osKernelStart>
 8004e98:	e7fe      	b.n	8004e98 <main+0xec>
 8004e9a:	bf00      	nop
 8004e9c:	2000178c 	.word	0x2000178c
 8004ea0:	20000e54 	.word	0x20000e54
 8004ea4:	200017fc 	.word	0x200017fc
 8004ea8:	2000187c 	.word	0x2000187c
 8004eac:	200018fc 	.word	0x200018fc
 8004eb0:	200018bc 	.word	0x200018bc
 8004eb4:	2000183c 	.word	0x2000183c
 8004eb8:	20000e58 	.word	0x20000e58
 8004ebc:	2000179c 	.word	0x2000179c
 8004ec0:	2000001c 	.word	0x2000001c

08004ec4 <HAL_TIM_PeriodElapsedCallback>:
 8004ec4:	4a07      	ldr	r2, [pc, #28]	; (8004ee4 <HAL_TIM_PeriodElapsedCallback+0x20>)
 8004ec6:	6803      	ldr	r3, [r0, #0]
 8004ec8:	4293      	cmp	r3, r2
 8004eca:	d003      	beq.n	8004ed4 <HAL_TIM_PeriodElapsedCallback+0x10>
 8004ecc:	4a06      	ldr	r2, [pc, #24]	; (8004ee8 <HAL_TIM_PeriodElapsedCallback+0x24>)
 8004ece:	4293      	cmp	r3, r2
 8004ed0:	d006      	beq.n	8004ee0 <HAL_TIM_PeriodElapsedCallback+0x1c>
 8004ed2:	4770      	bx	lr
 8004ed4:	4a05      	ldr	r2, [pc, #20]	; (8004eec <HAL_TIM_PeriodElapsedCallback+0x28>)
 8004ed6:	7813      	ldrb	r3, [r2, #0]
 8004ed8:	f083 0301 	eor.w	r3, r3, #1
 8004edc:	7013      	strb	r3, [r2, #0]
 8004ede:	4770      	bx	lr
 8004ee0:	f7fb bc52 	b.w	8000788 <HAL_IncTick>
 8004ee4:	40000800 	.word	0x40000800
 8004ee8:	40013400 	.word	0x40013400
 8004eec:	200000b1 	.word	0x200000b1

08004ef0 <Error_Handler>:
 8004ef0:	4770      	bx	lr
 8004ef2:	bf00      	nop

08004ef4 <MX_RTC_Init>:
 8004ef4:	b5d0      	push	{r4, r6, r7, lr}
 8004ef6:	b08c      	sub	sp, #48	; 0x30
 8004ef8:	222c      	movs	r2, #44	; 0x2c
 8004efa:	2100      	movs	r1, #0
 8004efc:	4668      	mov	r0, sp
 8004efe:	f002 fed3 	bl	8007ca8 <memset>
 8004f02:	4819      	ldr	r0, [pc, #100]	; (8004f68 <MX_RTC_Init+0x74>)
 8004f04:	4b19      	ldr	r3, [pc, #100]	; (8004f6c <MX_RTC_Init+0x78>)
 8004f06:	6003      	str	r3, [r0, #0]
 8004f08:	217f      	movs	r1, #127	; 0x7f
 8004f0a:	2300      	movs	r3, #0
 8004f0c:	22ff      	movs	r2, #255	; 0xff
 8004f0e:	e9c0 1202 	strd	r1, r2, [r0, #8]
 8004f12:	e9c0 3304 	strd	r3, r3, [r0, #16]
 8004f16:	6043      	str	r3, [r0, #4]
 8004f18:	6183      	str	r3, [r0, #24]
 8004f1a:	f7fc ff3b 	bl	8001d94 <HAL_RTC_Init>
 8004f1e:	b9d8      	cbnz	r0, 8004f58 <MX_RTC_Init+0x64>
 8004f20:	2002      	movs	r0, #2
 8004f22:	2200      	movs	r2, #0
 8004f24:	2401      	movs	r4, #1
 8004f26:	f44f 7380 	mov.w	r3, #256	; 0x100
 8004f2a:	f88d 0002 	strb.w	r0, [sp, #2]
 8004f2e:	f04f 4600 	mov.w	r6, #2147483648	; 0x80000000
 8004f32:	2700      	movs	r7, #0
 8004f34:	480c      	ldr	r0, [pc, #48]	; (8004f68 <MX_RTC_Init+0x74>)
 8004f36:	f8ad 2000 	strh.w	r2, [sp]
 8004f3a:	4669      	mov	r1, sp
 8004f3c:	e9cd 2203 	strd	r2, r2, [sp, #12]
 8004f40:	e9cd 6706 	strd	r6, r7, [sp, #24]
 8004f44:	9201      	str	r2, [sp, #4]
 8004f46:	9208      	str	r2, [sp, #32]
 8004f48:	f88d 4024 	strb.w	r4, [sp, #36]	; 0x24
 8004f4c:	930a      	str	r3, [sp, #40]	; 0x28
 8004f4e:	f7fd f951 	bl	80021f4 <HAL_RTC_SetAlarm_IT>
 8004f52:	b920      	cbnz	r0, 8004f5e <MX_RTC_Init+0x6a>
 8004f54:	b00c      	add	sp, #48	; 0x30
 8004f56:	bdd0      	pop	{r4, r6, r7, pc}
 8004f58:	f7ff ffca 	bl	8004ef0 <Error_Handler>
 8004f5c:	e7e0      	b.n	8004f20 <MX_RTC_Init+0x2c>
 8004f5e:	f7ff ffc7 	bl	8004ef0 <Error_Handler>
 8004f62:	b00c      	add	sp, #48	; 0x30
 8004f64:	bdd0      	pop	{r4, r6, r7, pc}
 8004f66:	bf00      	nop
 8004f68:	2000179c 	.word	0x2000179c
 8004f6c:	40002800 	.word	0x40002800

08004f70 <HAL_RTC_MspInit>:
 8004f70:	b508      	push	{r3, lr}
 8004f72:	6802      	ldr	r2, [r0, #0]
 8004f74:	4b0c      	ldr	r3, [pc, #48]	; (8004fa8 <HAL_RTC_MspInit+0x38>)
 8004f76:	429a      	cmp	r2, r3
 8004f78:	d000      	beq.n	8004f7c <HAL_RTC_MspInit+0xc>
 8004f7a:	bd08      	pop	{r3, pc}
 8004f7c:	f44f 4200 	mov.w	r2, #32768	; 0x8000
 8004f80:	fa92 f2a2 	rbit	r2, r2
 8004f84:	4b09      	ldr	r3, [pc, #36]	; (8004fac <HAL_RTC_MspInit+0x3c>)
 8004f86:	fab2 f282 	clz	r2, r2
 8004f8a:	4413      	add	r3, r2
 8004f8c:	009b      	lsls	r3, r3, #2
 8004f8e:	2201      	movs	r2, #1
 8004f90:	601a      	str	r2, [r3, #0]
 8004f92:	2029      	movs	r0, #41	; 0x29
 8004f94:	2200      	movs	r2, #0
 8004f96:	2105      	movs	r1, #5
 8004f98:	f7fb fc2e 	bl	80007f8 <HAL_NVIC_SetPriority>
 8004f9c:	e8bd 4008 	ldmia.w	sp!, {r3, lr}
 8004fa0:	2029      	movs	r0, #41	; 0x29
 8004fa2:	f7fb bc61 	b.w	8000868 <HAL_NVIC_EnableIRQ>
 8004fa6:	bf00      	nop
 8004fa8:	40002800 	.word	0x40002800
 8004fac:	10908100 	.word	0x10908100

08004fb0 <HAL_MspInit>:
 8004fb0:	4b0d      	ldr	r3, [pc, #52]	; (8004fe8 <HAL_MspInit+0x38>)
 8004fb2:	699a      	ldr	r2, [r3, #24]
 8004fb4:	f042 0201 	orr.w	r2, r2, #1
 8004fb8:	619a      	str	r2, [r3, #24]
 8004fba:	699a      	ldr	r2, [r3, #24]
 8004fbc:	b082      	sub	sp, #8
 8004fbe:	f002 0201 	and.w	r2, r2, #1
 8004fc2:	9200      	str	r2, [sp, #0]
 8004fc4:	9a00      	ldr	r2, [sp, #0]
 8004fc6:	69da      	ldr	r2, [r3, #28]
 8004fc8:	f042 5280 	orr.w	r2, r2, #268435456	; 0x10000000
 8004fcc:	61da      	str	r2, [r3, #28]
 8004fce:	69db      	ldr	r3, [r3, #28]
 8004fd0:	f003 5380 	and.w	r3, r3, #268435456	; 0x10000000
 8004fd4:	9301      	str	r3, [sp, #4]
 8004fd6:	9b01      	ldr	r3, [sp, #4]
 8004fd8:	2200      	movs	r2, #0
 8004fda:	210f      	movs	r1, #15
 8004fdc:	f06f 0001 	mvn.w	r0, #1
 8004fe0:	b002      	add	sp, #8
 8004fe2:	f7fb bc09 	b.w	80007f8 <HAL_NVIC_SetPriority>
 8004fe6:	bf00      	nop
 8004fe8:	40021000 	.word	0x40021000

08004fec <HAL_InitTick>:
 8004fec:	b510      	push	{r4, lr}
 8004fee:	4601      	mov	r1, r0
 8004ff0:	b088      	sub	sp, #32
 8004ff2:	2200      	movs	r2, #0
 8004ff4:	202c      	movs	r0, #44	; 0x2c
 8004ff6:	f7fb fbff 	bl	80007f8 <HAL_NVIC_SetPriority>
 8004ffa:	202c      	movs	r0, #44	; 0x2c
 8004ffc:	f7fb fc34 	bl	8000868 <HAL_NVIC_EnableIRQ>
 8005000:	4b15      	ldr	r3, [pc, #84]	; (8005058 <HAL_InitTick+0x6c>)
 8005002:	4c16      	ldr	r4, [pc, #88]	; (800505c <HAL_InitTick+0x70>)
 8005004:	699a      	ldr	r2, [r3, #24]
 8005006:	f442 5200 	orr.w	r2, r2, #8192	; 0x2000
 800500a:	619a      	str	r2, [r3, #24]
 800500c:	699b      	ldr	r3, [r3, #24]
 800500e:	f403 5300 	and.w	r3, r3, #8192	; 0x2000
 8005012:	a901      	add	r1, sp, #4
 8005014:	9302      	str	r3, [sp, #8]
 8005016:	a803      	add	r0, sp, #12
 8005018:	9b02      	ldr	r3, [sp, #8]
 800501a:	f7fc fd87 	bl	8001b2c <HAL_RCC_GetClockConfig>
 800501e:	f7fc fd6d 	bl	8001afc <HAL_RCC_GetPCLK2Freq>
 8005022:	4b0f      	ldr	r3, [pc, #60]	; (8005060 <HAL_InitTick+0x74>)
 8005024:	4a0f      	ldr	r2, [pc, #60]	; (8005064 <HAL_InitTick+0x78>)
 8005026:	6022      	str	r2, [r4, #0]
 8005028:	fba3 3000 	umull	r3, r0, r3, r0
 800502c:	0c83      	lsrs	r3, r0, #18
 800502e:	2200      	movs	r2, #0
 8005030:	3b01      	subs	r3, #1
 8005032:	f240 31e7 	movw	r1, #999	; 0x3e7
 8005036:	4620      	mov	r0, r4
 8005038:	e9c4 1203 	strd	r1, r2, [r4, #12]
 800503c:	6063      	str	r3, [r4, #4]
 800503e:	60a2      	str	r2, [r4, #8]
 8005040:	f7fd fa74 	bl	800252c <HAL_TIM_Base_Init>
 8005044:	b110      	cbz	r0, 800504c <HAL_InitTick+0x60>
 8005046:	2001      	movs	r0, #1
 8005048:	b008      	add	sp, #32
 800504a:	bd10      	pop	{r4, pc}
 800504c:	4620      	mov	r0, r4
 800504e:	f7fd fadb 	bl	8002608 <HAL_TIM_Base_Start_IT>
 8005052:	b008      	add	sp, #32
 8005054:	bd10      	pop	{r4, pc}
 8005056:	bf00      	nop
 8005058:	40021000 	.word	0x40021000
 800505c:	200017bc 	.word	0x200017bc
 8005060:	431bde83 	.word	0x431bde83
 8005064:	40013400 	.word	0x40013400

08005068 <NMI_Handler>:
 8005068:	4770      	bx	lr
 800506a:	bf00      	nop

0800506c <HardFault_Handler>:
 800506c:	e7fe      	b.n	800506c <HardFault_Handler>
 800506e:	bf00      	nop

08005070 <MemManage_Handler>:
 8005070:	e7fe      	b.n	8005070 <MemManage_Handler>
 8005072:	bf00      	nop

08005074 <BusFault_Handler>:
 8005074:	e7fe      	b.n	8005074 <BusFault_Handler>
 8005076:	bf00      	nop

08005078 <UsageFault_Handler>:
 8005078:	e7fe      	b.n	8005078 <UsageFault_Handler>
 800507a:	bf00      	nop

0800507c <DebugMon_Handler>:
 800507c:	4770      	bx	lr
 800507e:	bf00      	nop

08005080 <TIM1_TRG_COM_TIM17_IRQHandler>:
 8005080:	4801      	ldr	r0, [pc, #4]	; (8005088 <TIM1_TRG_COM_TIM17_IRQHandler+0x8>)
 8005082:	f7fd bd11 	b.w	8002aa8 <HAL_TIM_IRQHandler>
 8005086:	bf00      	nop
 8005088:	200018bc 	.word	0x200018bc

0800508c <TIM2_IRQHandler>:
 800508c:	4801      	ldr	r0, [pc, #4]	; (8005094 <TIM2_IRQHandler+0x8>)
 800508e:	f7fd bd0b 	b.w	8002aa8 <HAL_TIM_IRQHandler>
 8005092:	bf00      	nop
 8005094:	200018fc 	.word	0x200018fc

08005098 <TIM4_IRQHandler>:
 8005098:	4801      	ldr	r0, [pc, #4]	; (80050a0 <TIM4_IRQHandler+0x8>)
 800509a:	f7fd bd05 	b.w	8002aa8 <HAL_TIM_IRQHandler>
 800509e:	bf00      	nop
 80050a0:	200017fc 	.word	0x200017fc

080050a4 <EXTI15_10_IRQHandler>:
 80050a4:	f44f 5080 	mov.w	r0, #4096	; 0x1000
 80050a8:	f7fb be80 	b.w	8000dac <HAL_GPIO_EXTI_IRQHandler>

080050ac <RTC_Alarm_IRQHandler>:
 80050ac:	4801      	ldr	r0, [pc, #4]	; (80050b4 <RTC_Alarm_IRQHandler+0x8>)
 80050ae:	f7fd b991 	b.w	80023d4 <HAL_RTC_AlarmIRQHandler>
 80050b2:	bf00      	nop
 80050b4:	2000179c 	.word	0x2000179c

080050b8 <TIM8_UP_IRQHandler>:
 80050b8:	4801      	ldr	r0, [pc, #4]	; (80050c0 <TIM8_UP_IRQHandler+0x8>)
 80050ba:	f7fd bcf5 	b.w	8002aa8 <HAL_TIM_IRQHandler>
 80050be:	bf00      	nop
 80050c0:	200017bc 	.word	0x200017bc

080050c4 <TIM6_DAC_IRQHandler>:
 80050c4:	4801      	ldr	r0, [pc, #4]	; (80050cc <TIM6_DAC_IRQHandler+0x8>)
 80050c6:	f7fd bcef 	b.w	8002aa8 <HAL_TIM_IRQHandler>
 80050ca:	bf00      	nop
 80050cc:	2000187c 	.word	0x2000187c

080050d0 <_sbrk>:
 80050d0:	490c      	ldr	r1, [pc, #48]	; (8005104 <_sbrk+0x34>)
 80050d2:	4a0d      	ldr	r2, [pc, #52]	; (8005108 <_sbrk+0x38>)
 80050d4:	680b      	ldr	r3, [r1, #0]
 80050d6:	b510      	push	{r4, lr}
 80050d8:	4c0c      	ldr	r4, [pc, #48]	; (800510c <_sbrk+0x3c>)
 80050da:	1b12      	subs	r2, r2, r4
 80050dc:	b12b      	cbz	r3, 80050ea <_sbrk+0x1a>
 80050de:	4418      	add	r0, r3
 80050e0:	4290      	cmp	r0, r2
 80050e2:	d807      	bhi.n	80050f4 <_sbrk+0x24>
 80050e4:	6008      	str	r0, [r1, #0]
 80050e6:	4618      	mov	r0, r3
 80050e8:	bd10      	pop	{r4, pc}
 80050ea:	4b09      	ldr	r3, [pc, #36]	; (8005110 <_sbrk+0x40>)
 80050ec:	600b      	str	r3, [r1, #0]
 80050ee:	4418      	add	r0, r3
 80050f0:	4290      	cmp	r0, r2
 80050f2:	d9f7      	bls.n	80050e4 <_sbrk+0x14>
 80050f4:	f002 fda0 	bl	8007c38 <__errno>
 80050f8:	230c      	movs	r3, #12
 80050fa:	6003      	str	r3, [r0, #0]
 80050fc:	f04f 33ff 	mov.w	r3, #4294967295
 8005100:	4618      	mov	r0, r3
 8005102:	bd10      	pop	{r4, pc}
 8005104:	20000ebc 	.word	0x20000ebc
 8005108:	2000a000 	.word	0x2000a000
 800510c:	00000800 	.word	0x00000800
 8005110:	20002e60 	.word	0x20002e60

08005114 <SystemInit>:
 8005114:	4b05      	ldr	r3, [pc, #20]	; (800512c <SystemInit+0x18>)
 8005116:	f8d3 2088 	ldr.w	r2, [r3, #136]	; 0x88
 800511a:	f04f 6100 	mov.w	r1, #134217728	; 0x8000000
 800511e:	f442 0270 	orr.w	r2, r2, #15728640	; 0xf00000
 8005122:	f8c3 2088 	str.w	r2, [r3, #136]	; 0x88
 8005126:	6099      	str	r1, [r3, #8]
 8005128:	4770      	bx	lr
 800512a:	bf00      	nop
 800512c:	e000ed00 	.word	0xe000ed00

08005130 <MX_TIM2_Init>:
 8005130:	b510      	push	{r4, lr}
 8005132:	481a      	ldr	r0, [pc, #104]	; (800519c <MX_TIM2_Init+0x6c>)
 8005134:	b08e      	sub	sp, #56	; 0x38
 8005136:	2300      	movs	r3, #0
 8005138:	2214      	movs	r2, #20
 800513a:	e9cd 3302 	strd	r3, r3, [sp, #8]
 800513e:	60c2      	str	r2, [r0, #12]
 8005140:	6043      	str	r3, [r0, #4]
 8005142:	2202      	movs	r2, #2
 8005144:	9301      	str	r3, [sp, #4]
 8005146:	6083      	str	r3, [r0, #8]
 8005148:	6103      	str	r3, [r0, #16]
 800514a:	6183      	str	r3, [r0, #24]
 800514c:	2300      	movs	r3, #0
 800514e:	e9cd 2304 	strd	r2, r3, [sp, #16]
 8005152:	f04f 4180 	mov.w	r1, #1073741824	; 0x40000000
 8005156:	2201      	movs	r2, #1
 8005158:	2300      	movs	r3, #0
 800515a:	e9cd 2306 	strd	r2, r3, [sp, #24]
 800515e:	e9cd 230a 	strd	r2, r3, [sp, #40]	; 0x28
 8005162:	6001      	str	r1, [r0, #0]
 8005164:	240f      	movs	r4, #15
 8005166:	2207      	movs	r2, #7
 8005168:	2300      	movs	r3, #0
 800516a:	a904      	add	r1, sp, #16
 800516c:	e9cd 2308 	strd	r2, r3, [sp, #32]
 8005170:	940c      	str	r4, [sp, #48]	; 0x30
 8005172:	f7fd fb07 	bl	8002784 <HAL_TIM_Encoder_Init>
 8005176:	b948      	cbnz	r0, 800518c <MX_TIM2_Init+0x5c>
 8005178:	2300      	movs	r3, #0
 800517a:	4808      	ldr	r0, [pc, #32]	; (800519c <MX_TIM2_Init+0x6c>)
 800517c:	9301      	str	r3, [sp, #4]
 800517e:	a901      	add	r1, sp, #4
 8005180:	9303      	str	r3, [sp, #12]
 8005182:	f7fd fed3 	bl	8002f2c <HAL_TIMEx_MasterConfigSynchronization>
 8005186:	b920      	cbnz	r0, 8005192 <MX_TIM2_Init+0x62>
 8005188:	b00e      	add	sp, #56	; 0x38
 800518a:	bd10      	pop	{r4, pc}
 800518c:	f7ff feb0 	bl	8004ef0 <Error_Handler>
 8005190:	e7f2      	b.n	8005178 <MX_TIM2_Init+0x48>
 8005192:	f7ff fead 	bl	8004ef0 <Error_Handler>
 8005196:	b00e      	add	sp, #56	; 0x38
 8005198:	bd10      	pop	{r4, pc}
 800519a:	bf00      	nop
 800519c:	200018fc 	.word	0x200018fc

080051a0 <MX_TIM4_Init>:
 80051a0:	b500      	push	{lr}
 80051a2:	481b      	ldr	r0, [pc, #108]	; (8005210 <MX_TIM4_Init+0x70>)
 80051a4:	4b1b      	ldr	r3, [pc, #108]	; (8005214 <MX_TIM4_Init+0x74>)
 80051a6:	6003      	str	r3, [r0, #0]
 80051a8:	b089      	sub	sp, #36	; 0x24
 80051aa:	f641 733f 	movw	r3, #7999	; 0x1f3f
 80051ae:	f240 72cf 	movw	r2, #1999	; 0x7cf
 80051b2:	6043      	str	r3, [r0, #4]
 80051b4:	2300      	movs	r3, #0
 80051b6:	e9c0 3202 	strd	r3, r2, [r0, #8]
 80051ba:	e9cd 3305 	strd	r3, r3, [sp, #20]
 80051be:	e9cd 3302 	strd	r3, r3, [sp, #8]
 80051c2:	9304      	str	r3, [sp, #16]
 80051c4:	9301      	str	r3, [sp, #4]
 80051c6:	6103      	str	r3, [r0, #16]
 80051c8:	6183      	str	r3, [r0, #24]
 80051ca:	9307      	str	r3, [sp, #28]
 80051cc:	f7fd f9ae 	bl	800252c <HAL_TIM_Base_Init>
 80051d0:	b990      	cbnz	r0, 80051f8 <MX_TIM4_Init+0x58>
 80051d2:	f44f 5380 	mov.w	r3, #4096	; 0x1000
 80051d6:	480e      	ldr	r0, [pc, #56]	; (8005210 <MX_TIM4_Init+0x70>)
 80051d8:	9304      	str	r3, [sp, #16]
 80051da:	a904      	add	r1, sp, #16
 80051dc:	f7fd fbb8 	bl	8002950 <HAL_TIM_ConfigClockSource>
 80051e0:	b990      	cbnz	r0, 8005208 <MX_TIM4_Init+0x68>
 80051e2:	2300      	movs	r3, #0
 80051e4:	480a      	ldr	r0, [pc, #40]	; (8005210 <MX_TIM4_Init+0x70>)
 80051e6:	9301      	str	r3, [sp, #4]
 80051e8:	a901      	add	r1, sp, #4
 80051ea:	9303      	str	r3, [sp, #12]
 80051ec:	f7fd fe9e 	bl	8002f2c <HAL_TIMEx_MasterConfigSynchronization>
 80051f0:	b928      	cbnz	r0, 80051fe <MX_TIM4_Init+0x5e>
 80051f2:	b009      	add	sp, #36	; 0x24
 80051f4:	f85d fb04 	ldr.w	pc, [sp], #4
 80051f8:	f7ff fe7a 	bl	8004ef0 <Error_Handler>
 80051fc:	e7e9      	b.n	80051d2 <MX_TIM4_Init+0x32>
 80051fe:	f7ff fe77 	bl	8004ef0 <Error_Handler>
 8005202:	b009      	add	sp, #36	; 0x24
 8005204:	f85d fb04 	ldr.w	pc, [sp], #4
 8005208:	f7ff fe72 	bl	8004ef0 <Error_Handler>
 800520c:	e7e9      	b.n	80051e2 <MX_TIM4_Init+0x42>
 800520e:	bf00      	nop
 8005210:	200017fc 	.word	0x200017fc
 8005214:	40000800 	.word	0x40000800

08005218 <MX_TIM6_Init>:
 8005218:	b500      	push	{lr}
 800521a:	4813      	ldr	r0, [pc, #76]	; (8005268 <MX_TIM6_Init+0x50>)
 800521c:	4b13      	ldr	r3, [pc, #76]	; (800526c <MX_TIM6_Init+0x54>)
 800521e:	6003      	str	r3, [r0, #0]
 8005220:	b085      	sub	sp, #20
 8005222:	2300      	movs	r3, #0
 8005224:	f641 713f 	movw	r1, #7999	; 0x1f3f
 8005228:	f240 32e7 	movw	r2, #999	; 0x3e7
 800522c:	e9c0 3202 	strd	r3, r2, [r0, #8]
 8005230:	e9cd 3302 	strd	r3, r3, [sp, #8]
 8005234:	6041      	str	r1, [r0, #4]
 8005236:	9301      	str	r3, [sp, #4]
 8005238:	6183      	str	r3, [r0, #24]
 800523a:	f7fd f977 	bl	800252c <HAL_TIM_Base_Init>
 800523e:	b950      	cbnz	r0, 8005256 <MX_TIM6_Init+0x3e>
 8005240:	2300      	movs	r3, #0
 8005242:	4809      	ldr	r0, [pc, #36]	; (8005268 <MX_TIM6_Init+0x50>)
 8005244:	9301      	str	r3, [sp, #4]
 8005246:	a901      	add	r1, sp, #4
 8005248:	9303      	str	r3, [sp, #12]
 800524a:	f7fd fe6f 	bl	8002f2c <HAL_TIMEx_MasterConfigSynchronization>
 800524e:	b928      	cbnz	r0, 800525c <MX_TIM6_Init+0x44>
 8005250:	b005      	add	sp, #20
 8005252:	f85d fb04 	ldr.w	pc, [sp], #4
 8005256:	f7ff fe4b 	bl	8004ef0 <Error_Handler>
 800525a:	e7f1      	b.n	8005240 <MX_TIM6_Init+0x28>
 800525c:	f7ff fe48 	bl	8004ef0 <Error_Handler>
 8005260:	b005      	add	sp, #20
 8005262:	f85d fb04 	ldr.w	pc, [sp], #4
 8005266:	bf00      	nop
 8005268:	2000187c 	.word	0x2000187c
 800526c:	40001000 	.word	0x40001000

08005270 <HAL_TIM_PWM_MspInit>:
 8005270:	b500      	push	{lr}
 8005272:	4a16      	ldr	r2, [pc, #88]	; (80052cc <HAL_TIM_PWM_MspInit+0x5c>)
 8005274:	6803      	ldr	r3, [r0, #0]
 8005276:	4293      	cmp	r3, r2
 8005278:	b083      	sub	sp, #12
 800527a:	d012      	beq.n	80052a2 <HAL_TIM_PWM_MspInit+0x32>
 800527c:	4a14      	ldr	r2, [pc, #80]	; (80052d0 <HAL_TIM_PWM_MspInit+0x60>)
 800527e:	4293      	cmp	r3, r2
 8005280:	d002      	beq.n	8005288 <HAL_TIM_PWM_MspInit+0x18>
 8005282:	b003      	add	sp, #12
 8005284:	f85d fb04 	ldr.w	pc, [sp], #4
 8005288:	4b12      	ldr	r3, [pc, #72]	; (80052d4 <HAL_TIM_PWM_MspInit+0x64>)
 800528a:	69da      	ldr	r2, [r3, #28]
 800528c:	f042 0202 	orr.w	r2, r2, #2
 8005290:	61da      	str	r2, [r3, #28]
 8005292:	69db      	ldr	r3, [r3, #28]
 8005294:	f003 0302 	and.w	r3, r3, #2
 8005298:	9301      	str	r3, [sp, #4]
 800529a:	9b01      	ldr	r3, [sp, #4]
 800529c:	b003      	add	sp, #12
 800529e:	f85d fb04 	ldr.w	pc, [sp], #4
 80052a2:	4b0c      	ldr	r3, [pc, #48]	; (80052d4 <HAL_TIM_PWM_MspInit+0x64>)
 80052a4:	699a      	ldr	r2, [r3, #24]
 80052a6:	f442 6200 	orr.w	r2, r2, #2048	; 0x800
 80052aa:	619a      	str	r2, [r3, #24]
 80052ac:	699b      	ldr	r3, [r3, #24]
 80052ae:	f403 6300 	and.w	r3, r3, #2048	; 0x800
 80052b2:	9300      	str	r3, [sp, #0]
 80052b4:	2200      	movs	r2, #0
 80052b6:	2105      	movs	r1, #5
 80052b8:	201a      	movs	r0, #26
 80052ba:	9b00      	ldr	r3, [sp, #0]
 80052bc:	f7fb fa9c 	bl	80007f8 <HAL_NVIC_SetPriority>
 80052c0:	201a      	movs	r0, #26
 80052c2:	b003      	add	sp, #12
 80052c4:	f85d eb04 	ldr.w	lr, [sp], #4
 80052c8:	f7fb bace 	b.w	8000868 <HAL_NVIC_EnableIRQ>
 80052cc:	40012c00 	.word	0x40012c00
 80052d0:	40000400 	.word	0x40000400
 80052d4:	40021000 	.word	0x40021000

080052d8 <HAL_TIM_Encoder_MspInit>:
 80052d8:	b570      	push	{r4, r5, r6, lr}
 80052da:	6803      	ldr	r3, [r0, #0]
 80052dc:	b088      	sub	sp, #32
 80052de:	2400      	movs	r4, #0
 80052e0:	f1b3 4f80 	cmp.w	r3, #1073741824	; 0x40000000
 80052e4:	e9cd 4402 	strd	r4, r4, [sp, #8]
 80052e8:	e9cd 4404 	strd	r4, r4, [sp, #16]
 80052ec:	9406      	str	r4, [sp, #24]
 80052ee:	d001      	beq.n	80052f4 <HAL_TIM_Encoder_MspInit+0x1c>
 80052f0:	b008      	add	sp, #32
 80052f2:	bd70      	pop	{r4, r5, r6, pc}
 80052f4:	f503 3304 	add.w	r3, r3, #135168	; 0x21000
 80052f8:	a902      	add	r1, sp, #8
 80052fa:	69da      	ldr	r2, [r3, #28]
 80052fc:	f042 0201 	orr.w	r2, r2, #1
 8005300:	61da      	str	r2, [r3, #28]
 8005302:	69da      	ldr	r2, [r3, #28]
 8005304:	f002 0201 	and.w	r2, r2, #1
 8005308:	9200      	str	r2, [sp, #0]
 800530a:	9a00      	ldr	r2, [sp, #0]
 800530c:	695a      	ldr	r2, [r3, #20]
 800530e:	f442 3200 	orr.w	r2, r2, #131072	; 0x20000
 8005312:	615a      	str	r2, [r3, #20]
 8005314:	695b      	ldr	r3, [r3, #20]
 8005316:	f403 3300 	and.w	r3, r3, #131072	; 0x20000
 800531a:	9301      	str	r3, [sp, #4]
 800531c:	2203      	movs	r2, #3
 800531e:	2302      	movs	r3, #2
 8005320:	e9cd 2302 	strd	r2, r3, [sp, #8]
 8005324:	2501      	movs	r5, #1
 8005326:	2300      	movs	r3, #0
 8005328:	2201      	movs	r2, #1
 800532a:	f04f 4090 	mov.w	r0, #1207959552	; 0x48000000
 800532e:	e9cd 2304 	strd	r2, r3, [sp, #16]
 8005332:	9e01      	ldr	r6, [sp, #4]
 8005334:	9506      	str	r5, [sp, #24]
 8005336:	f7fb fc49 	bl	8000bcc <HAL_GPIO_Init>
 800533a:	4622      	mov	r2, r4
 800533c:	2105      	movs	r1, #5
 800533e:	201c      	movs	r0, #28
 8005340:	f7fb fa5a 	bl	80007f8 <HAL_NVIC_SetPriority>
 8005344:	201c      	movs	r0, #28
 8005346:	f7fb fa8f 	bl	8000868 <HAL_NVIC_EnableIRQ>
 800534a:	b008      	add	sp, #32
 800534c:	bd70      	pop	{r4, r5, r6, pc}
 800534e:	bf00      	nop

08005350 <HAL_TIM_Base_MspInit>:
 8005350:	b500      	push	{lr}
 8005352:	4a1a      	ldr	r2, [pc, #104]	; (80053bc <HAL_TIM_Base_MspInit+0x6c>)
 8005354:	6803      	ldr	r3, [r0, #0]
 8005356:	4293      	cmp	r3, r2
 8005358:	b083      	sub	sp, #12
 800535a:	d005      	beq.n	8005368 <HAL_TIM_Base_MspInit+0x18>
 800535c:	4a18      	ldr	r2, [pc, #96]	; (80053c0 <HAL_TIM_Base_MspInit+0x70>)
 800535e:	4293      	cmp	r3, r2
 8005360:	d017      	beq.n	8005392 <HAL_TIM_Base_MspInit+0x42>
 8005362:	b003      	add	sp, #12
 8005364:	f85d fb04 	ldr.w	pc, [sp], #4
 8005368:	4b16      	ldr	r3, [pc, #88]	; (80053c4 <HAL_TIM_Base_MspInit+0x74>)
 800536a:	69da      	ldr	r2, [r3, #28]
 800536c:	f042 0204 	orr.w	r2, r2, #4
 8005370:	61da      	str	r2, [r3, #28]
 8005372:	69db      	ldr	r3, [r3, #28]
 8005374:	f003 0304 	and.w	r3, r3, #4
 8005378:	9300      	str	r3, [sp, #0]
 800537a:	2200      	movs	r2, #0
 800537c:	2105      	movs	r1, #5
 800537e:	201e      	movs	r0, #30
 8005380:	9b00      	ldr	r3, [sp, #0]
 8005382:	f7fb fa39 	bl	80007f8 <HAL_NVIC_SetPriority>
 8005386:	201e      	movs	r0, #30
 8005388:	b003      	add	sp, #12
 800538a:	f85d eb04 	ldr.w	lr, [sp], #4
 800538e:	f7fb ba6b 	b.w	8000868 <HAL_NVIC_EnableIRQ>
 8005392:	4b0c      	ldr	r3, [pc, #48]	; (80053c4 <HAL_TIM_Base_MspInit+0x74>)
 8005394:	69da      	ldr	r2, [r3, #28]
 8005396:	f042 0210 	orr.w	r2, r2, #16
 800539a:	61da      	str	r2, [r3, #28]
 800539c:	69db      	ldr	r3, [r3, #28]
 800539e:	f003 0310 	and.w	r3, r3, #16
 80053a2:	9301      	str	r3, [sp, #4]
 80053a4:	2200      	movs	r2, #0
 80053a6:	2105      	movs	r1, #5
 80053a8:	2036      	movs	r0, #54	; 0x36
 80053aa:	9b01      	ldr	r3, [sp, #4]
 80053ac:	f7fb fa24 	bl	80007f8 <HAL_NVIC_SetPriority>
 80053b0:	2036      	movs	r0, #54	; 0x36
 80053b2:	b003      	add	sp, #12
 80053b4:	f85d eb04 	ldr.w	lr, [sp], #4
 80053b8:	f7fb ba56 	b.w	8000868 <HAL_NVIC_EnableIRQ>
 80053bc:	40000800 	.word	0x40000800
 80053c0:	40001000 	.word	0x40001000
 80053c4:	40021000 	.word	0x40021000

080053c8 <HAL_TIM_MspPostInit>:
 80053c8:	b5f0      	push	{r4, r5, r6, r7, lr}
 80053ca:	6802      	ldr	r2, [r0, #0]
 80053cc:	4935      	ldr	r1, [pc, #212]	; (80054a4 <HAL_TIM_MspPostInit+0xdc>)
 80053ce:	b08b      	sub	sp, #44	; 0x2c
 80053d0:	2300      	movs	r3, #0
 80053d2:	428a      	cmp	r2, r1
 80053d4:	e9cd 3304 	strd	r3, r3, [sp, #16]
 80053d8:	e9cd 3306 	strd	r3, r3, [sp, #24]
 80053dc:	9308      	str	r3, [sp, #32]
 80053de:	d004      	beq.n	80053ea <HAL_TIM_MspPostInit+0x22>
 80053e0:	4b31      	ldr	r3, [pc, #196]	; (80054a8 <HAL_TIM_MspPostInit+0xe0>)
 80053e2:	429a      	cmp	r2, r3
 80053e4:	d02e      	beq.n	8005444 <HAL_TIM_MspPostInit+0x7c>
 80053e6:	b00b      	add	sp, #44	; 0x2c
 80053e8:	bdf0      	pop	{r4, r5, r6, r7, pc}
 80053ea:	f103 4380 	add.w	r3, r3, #1073741824	; 0x40000000
 80053ee:	f503 3304 	add.w	r3, r3, #135168	; 0x21000
 80053f2:	2106      	movs	r1, #6
 80053f4:	695a      	ldr	r2, [r3, #20]
 80053f6:	f442 3200 	orr.w	r2, r2, #131072	; 0x20000
 80053fa:	615a      	str	r2, [r3, #20]
 80053fc:	695b      	ldr	r3, [r3, #20]
 80053fe:	9108      	str	r1, [sp, #32]
 8005400:	f403 3300 	and.w	r3, r3, #131072	; 0x20000
 8005404:	9301      	str	r3, [sp, #4]
 8005406:	f44f 62e0 	mov.w	r2, #1792	; 0x700
 800540a:	9801      	ldr	r0, [sp, #4]
 800540c:	2302      	movs	r3, #2
 800540e:	2400      	movs	r4, #0
 8005410:	2500      	movs	r5, #0
 8005412:	a904      	add	r1, sp, #16
 8005414:	f04f 4090 	mov.w	r0, #1207959552	; 0x48000000
 8005418:	e9cd 2304 	strd	r2, r3, [sp, #16]
 800541c:	e9cd 4506 	strd	r4, r5, [sp, #24]
 8005420:	f44f 6600 	mov.w	r6, #2048	; 0x800
 8005424:	f7fb fbd2 	bl	8000bcc <HAL_GPIO_Init>
 8005428:	2702      	movs	r7, #2
 800542a:	230b      	movs	r3, #11
 800542c:	a904      	add	r1, sp, #16
 800542e:	f04f 4090 	mov.w	r0, #1207959552	; 0x48000000
 8005432:	e9cd 4506 	strd	r4, r5, [sp, #24]
 8005436:	e9cd 6704 	strd	r6, r7, [sp, #16]
 800543a:	9308      	str	r3, [sp, #32]
 800543c:	f7fb fbc6 	bl	8000bcc <HAL_GPIO_Init>
 8005440:	b00b      	add	sp, #44	; 0x2c
 8005442:	bdf0      	pop	{r4, r5, r6, r7, pc}
 8005444:	f503 3303 	add.w	r3, r3, #134144	; 0x20c00
 8005448:	2400      	movs	r4, #0
 800544a:	695a      	ldr	r2, [r3, #20]
 800544c:	f442 3200 	orr.w	r2, r2, #131072	; 0x20000
 8005450:	615a      	str	r2, [r3, #20]
 8005452:	695a      	ldr	r2, [r3, #20]
 8005454:	f402 3200 	and.w	r2, r2, #131072	; 0x20000
 8005458:	9202      	str	r2, [sp, #8]
 800545a:	9a02      	ldr	r2, [sp, #8]
 800545c:	695a      	ldr	r2, [r3, #20]
 800545e:	f442 2280 	orr.w	r2, r2, #262144	; 0x40000
 8005462:	615a      	str	r2, [r3, #20]
 8005464:	695b      	ldr	r3, [r3, #20]
 8005466:	f403 2380 	and.w	r3, r3, #262144	; 0x40000
 800546a:	9303      	str	r3, [sp, #12]
 800546c:	9803      	ldr	r0, [sp, #12]
 800546e:	22c0      	movs	r2, #192	; 0xc0
 8005470:	2302      	movs	r3, #2
 8005472:	2500      	movs	r5, #0
 8005474:	2602      	movs	r6, #2
 8005476:	a904      	add	r1, sp, #16
 8005478:	f04f 4090 	mov.w	r0, #1207959552	; 0x48000000
 800547c:	e9cd 2304 	strd	r2, r3, [sp, #16]
 8005480:	e9cd 4506 	strd	r4, r5, [sp, #24]
 8005484:	9608      	str	r6, [sp, #32]
 8005486:	f7fb fba1 	bl	8000bcc <HAL_GPIO_Init>
 800548a:	2203      	movs	r2, #3
 800548c:	2302      	movs	r3, #2
 800548e:	4807      	ldr	r0, [pc, #28]	; (80054ac <HAL_TIM_MspPostInit+0xe4>)
 8005490:	9608      	str	r6, [sp, #32]
 8005492:	a904      	add	r1, sp, #16
 8005494:	e9cd 4506 	strd	r4, r5, [sp, #24]
 8005498:	e9cd 2304 	strd	r2, r3, [sp, #16]
 800549c:	f7fb fb96 	bl	8000bcc <HAL_GPIO_Init>
 80054a0:	b00b      	add	sp, #44	; 0x2c
 80054a2:	bdf0      	pop	{r4, r5, r6, r7, pc}
 80054a4:	40012c00 	.word	0x40012c00
 80054a8:	40000400 	.word	0x40000400
 80054ac:	48000400 	.word	0x48000400

080054b0 <MX_TIM1_Init>:
 80054b0:	b570      	push	{r4, r5, r6, lr}
 80054b2:	2400      	movs	r4, #0
 80054b4:	b098      	sub	sp, #96	; 0x60
 80054b6:	4621      	mov	r1, r4
 80054b8:	222c      	movs	r2, #44	; 0x2c
 80054ba:	a80c      	add	r0, sp, #48	; 0x30
 80054bc:	e9cd 4400 	strd	r4, r4, [sp]
 80054c0:	e9cd 4404 	strd	r4, r4, [sp, #16]
 80054c4:	e9cd 4406 	strd	r4, r4, [sp, #24]
 80054c8:	e9cd 4408 	strd	r4, r4, [sp, #32]
 80054cc:	9402      	str	r4, [sp, #8]
 80054ce:	940a      	str	r4, [sp, #40]	; 0x28
 80054d0:	f002 fbea 	bl	8007ca8 <memset>
 80054d4:	483c      	ldr	r0, [pc, #240]	; (80055c8 <MX_TIM1_Init+0x118>)
 80054d6:	493d      	ldr	r1, [pc, #244]	; (80055cc <MX_TIM1_Init+0x11c>)
 80054d8:	6084      	str	r4, [r0, #8]
 80054da:	2227      	movs	r2, #39	; 0x27
 80054dc:	2309      	movs	r3, #9
 80054de:	e9c0 4404 	strd	r4, r4, [r0, #16]
 80054e2:	e9c0 1200 	strd	r1, r2, [r0]
 80054e6:	6184      	str	r4, [r0, #24]
 80054e8:	60c3      	str	r3, [r0, #12]
 80054ea:	f7fd f8a3 	bl	8002634 <HAL_TIM_PWM_Init>
 80054ee:	2800      	cmp	r0, #0
 80054f0:	d150      	bne.n	8005594 <MX_TIM1_Init+0xe4>
 80054f2:	2400      	movs	r4, #0
 80054f4:	2500      	movs	r5, #0
 80054f6:	2300      	movs	r3, #0
 80054f8:	4833      	ldr	r0, [pc, #204]	; (80055c8 <MX_TIM1_Init+0x118>)
 80054fa:	9302      	str	r3, [sp, #8]
 80054fc:	4669      	mov	r1, sp
 80054fe:	e9cd 4500 	strd	r4, r5, [sp]
 8005502:	f7fd fd13 	bl	8002f2c <HAL_TIMEx_MasterConfigSynchronization>
 8005506:	2800      	cmp	r0, #0
 8005508:	d15a      	bne.n	80055c0 <MX_TIM1_Init+0x110>
 800550a:	2460      	movs	r4, #96	; 0x60
 800550c:	2500      	movs	r5, #0
 800550e:	e9cd 4504 	strd	r4, r5, [sp, #16]
 8005512:	2402      	movs	r4, #2
 8005514:	2500      	movs	r5, #0
 8005516:	e9cd 4506 	strd	r4, r5, [sp, #24]
 800551a:	2200      	movs	r2, #0
 800551c:	2400      	movs	r4, #0
 800551e:	2500      	movs	r5, #0
 8005520:	4829      	ldr	r0, [pc, #164]	; (80055c8 <MX_TIM1_Init+0x118>)
 8005522:	920a      	str	r2, [sp, #40]	; 0x28
 8005524:	a904      	add	r1, sp, #16
 8005526:	e9cd 4508 	strd	r4, r5, [sp, #32]
 800552a:	f7fd fbb5 	bl	8002c98 <HAL_TIM_PWM_ConfigChannel>
 800552e:	2800      	cmp	r0, #0
 8005530:	d143      	bne.n	80055ba <MX_TIM1_Init+0x10a>
 8005532:	4825      	ldr	r0, [pc, #148]	; (80055c8 <MX_TIM1_Init+0x118>)
 8005534:	2204      	movs	r2, #4
 8005536:	a904      	add	r1, sp, #16
 8005538:	f7fd fbae 	bl	8002c98 <HAL_TIM_PWM_ConfigChannel>
 800553c:	2800      	cmp	r0, #0
 800553e:	d139      	bne.n	80055b4 <MX_TIM1_Init+0x104>
 8005540:	4821      	ldr	r0, [pc, #132]	; (80055c8 <MX_TIM1_Init+0x118>)
 8005542:	2208      	movs	r2, #8
 8005544:	a904      	add	r1, sp, #16
 8005546:	f7fd fba7 	bl	8002c98 <HAL_TIM_PWM_ConfigChannel>
 800554a:	bb80      	cbnz	r0, 80055ae <MX_TIM1_Init+0xfe>
 800554c:	481e      	ldr	r0, [pc, #120]	; (80055c8 <MX_TIM1_Init+0x118>)
 800554e:	a904      	add	r1, sp, #16
 8005550:	220c      	movs	r2, #12
 8005552:	f7fd fba1 	bl	8002c98 <HAL_TIM_PWM_ConfigChannel>
 8005556:	bb38      	cbnz	r0, 80055a8 <MX_TIM1_Init+0xf8>
 8005558:	2200      	movs	r2, #0
 800555a:	2300      	movs	r3, #0
 800555c:	e9cd 230c 	strd	r2, r3, [sp, #48]	; 0x30
 8005560:	e9cd 230e 	strd	r2, r3, [sp, #56]	; 0x38
 8005564:	e9cd 2312 	strd	r2, r3, [sp, #72]	; 0x48
 8005568:	2400      	movs	r4, #0
 800556a:	f44f 5500 	mov.w	r5, #8192	; 0x2000
 800556e:	2600      	movs	r6, #0
 8005570:	f04f 7200 	mov.w	r2, #33554432	; 0x2000000
 8005574:	2300      	movs	r3, #0
 8005576:	4814      	ldr	r0, [pc, #80]	; (80055c8 <MX_TIM1_Init+0x118>)
 8005578:	9616      	str	r6, [sp, #88]	; 0x58
 800557a:	a90c      	add	r1, sp, #48	; 0x30
 800557c:	e9cd 4510 	strd	r4, r5, [sp, #64]	; 0x40
 8005580:	e9cd 2314 	strd	r2, r3, [sp, #80]	; 0x50
 8005584:	f7fd fd16 	bl	8002fb4 <HAL_TIMEx_ConfigBreakDeadTime>
 8005588:	b938      	cbnz	r0, 800559a <MX_TIM1_Init+0xea>
 800558a:	480f      	ldr	r0, [pc, #60]	; (80055c8 <MX_TIM1_Init+0x118>)
 800558c:	f7ff ff1c 	bl	80053c8 <HAL_TIM_MspPostInit>
 8005590:	b018      	add	sp, #96	; 0x60
 8005592:	bd70      	pop	{r4, r5, r6, pc}
 8005594:	f7ff fcac 	bl	8004ef0 <Error_Handler>
 8005598:	e7ab      	b.n	80054f2 <MX_TIM1_Init+0x42>
 800559a:	f7ff fca9 	bl	8004ef0 <Error_Handler>
 800559e:	480a      	ldr	r0, [pc, #40]	; (80055c8 <MX_TIM1_Init+0x118>)
 80055a0:	f7ff ff12 	bl	80053c8 <HAL_TIM_MspPostInit>
 80055a4:	b018      	add	sp, #96	; 0x60
 80055a6:	bd70      	pop	{r4, r5, r6, pc}
 80055a8:	f7ff fca2 	bl	8004ef0 <Error_Handler>
 80055ac:	e7d4      	b.n	8005558 <MX_TIM1_Init+0xa8>
 80055ae:	f7ff fc9f 	bl	8004ef0 <Error_Handler>
 80055b2:	e7cb      	b.n	800554c <MX_TIM1_Init+0x9c>
 80055b4:	f7ff fc9c 	bl	8004ef0 <Error_Handler>
 80055b8:	e7c2      	b.n	8005540 <MX_TIM1_Init+0x90>
 80055ba:	f7ff fc99 	bl	8004ef0 <Error_Handler>
 80055be:	e7b8      	b.n	8005532 <MX_TIM1_Init+0x82>
 80055c0:	f7ff fc96 	bl	8004ef0 <Error_Handler>
 80055c4:	e7a1      	b.n	800550a <MX_TIM1_Init+0x5a>
 80055c6:	bf00      	nop
 80055c8:	200018bc 	.word	0x200018bc
 80055cc:	40012c00 	.word	0x40012c00

080055d0 <MX_TIM3_Init>:
 80055d0:	b530      	push	{r4, r5, lr}
 80055d2:	482e      	ldr	r0, [pc, #184]	; (800568c <MX_TIM3_Init+0xbc>)
 80055d4:	4b2e      	ldr	r3, [pc, #184]	; (8005690 <MX_TIM3_Init+0xc0>)
 80055d6:	6003      	str	r3, [r0, #0]
 80055d8:	b08d      	sub	sp, #52	; 0x34
 80055da:	2327      	movs	r3, #39	; 0x27
 80055dc:	2209      	movs	r2, #9
 80055de:	6043      	str	r3, [r0, #4]
 80055e0:	2300      	movs	r3, #0
 80055e2:	e9c0 3202 	strd	r3, r2, [r0, #8]
 80055e6:	e9cd 3302 	strd	r3, r3, [sp, #8]
 80055ea:	e9cd 3305 	strd	r3, r3, [sp, #20]
 80055ee:	e9cd 3307 	strd	r3, r3, [sp, #28]
 80055f2:	e9cd 3309 	strd	r3, r3, [sp, #36]	; 0x24
 80055f6:	9301      	str	r3, [sp, #4]
 80055f8:	9304      	str	r3, [sp, #16]
 80055fa:	6103      	str	r3, [r0, #16]
 80055fc:	6183      	str	r3, [r0, #24]
 80055fe:	f7fd f819 	bl	8002634 <HAL_TIM_PWM_Init>
 8005602:	bb60      	cbnz	r0, 800565e <MX_TIM3_Init+0x8e>
 8005604:	2300      	movs	r3, #0
 8005606:	4821      	ldr	r0, [pc, #132]	; (800568c <MX_TIM3_Init+0xbc>)
 8005608:	9301      	str	r3, [sp, #4]
 800560a:	a901      	add	r1, sp, #4
 800560c:	9303      	str	r3, [sp, #12]
 800560e:	f7fd fc8d 	bl	8002f2c <HAL_TIMEx_MasterConfigSynchronization>
 8005612:	2800      	cmp	r0, #0
 8005614:	d136      	bne.n	8005684 <MX_TIM3_Init+0xb4>
 8005616:	2200      	movs	r2, #0
 8005618:	2460      	movs	r4, #96	; 0x60
 800561a:	2500      	movs	r5, #0
 800561c:	2302      	movs	r3, #2
 800561e:	481b      	ldr	r0, [pc, #108]	; (800568c <MX_TIM3_Init+0xbc>)
 8005620:	9208      	str	r2, [sp, #32]
 8005622:	a904      	add	r1, sp, #16
 8005624:	e9cd 4504 	strd	r4, r5, [sp, #16]
 8005628:	9306      	str	r3, [sp, #24]
 800562a:	f7fd fb35 	bl	8002c98 <HAL_TIM_PWM_ConfigChannel>
 800562e:	bb30      	cbnz	r0, 800567e <MX_TIM3_Init+0xae>
 8005630:	4816      	ldr	r0, [pc, #88]	; (800568c <MX_TIM3_Init+0xbc>)
 8005632:	2204      	movs	r2, #4
 8005634:	a904      	add	r1, sp, #16
 8005636:	f7fd fb2f 	bl	8002c98 <HAL_TIM_PWM_ConfigChannel>
 800563a:	b9e8      	cbnz	r0, 8005678 <MX_TIM3_Init+0xa8>
 800563c:	4813      	ldr	r0, [pc, #76]	; (800568c <MX_TIM3_Init+0xbc>)
 800563e:	2208      	movs	r2, #8
 8005640:	a904      	add	r1, sp, #16
 8005642:	f7fd fb29 	bl	8002c98 <HAL_TIM_PWM_ConfigChannel>
 8005646:	b9a0      	cbnz	r0, 8005672 <MX_TIM3_Init+0xa2>
 8005648:	4810      	ldr	r0, [pc, #64]	; (800568c <MX_TIM3_Init+0xbc>)
 800564a:	a904      	add	r1, sp, #16
 800564c:	220c      	movs	r2, #12
 800564e:	f7fd fb23 	bl	8002c98 <HAL_TIM_PWM_ConfigChannel>
 8005652:	b938      	cbnz	r0, 8005664 <MX_TIM3_Init+0x94>
 8005654:	480d      	ldr	r0, [pc, #52]	; (800568c <MX_TIM3_Init+0xbc>)
 8005656:	f7ff feb7 	bl	80053c8 <HAL_TIM_MspPostInit>
 800565a:	b00d      	add	sp, #52	; 0x34
 800565c:	bd30      	pop	{r4, r5, pc}
 800565e:	f7ff fc47 	bl	8004ef0 <Error_Handler>
 8005662:	e7cf      	b.n	8005604 <MX_TIM3_Init+0x34>
 8005664:	f7ff fc44 	bl	8004ef0 <Error_Handler>
 8005668:	4808      	ldr	r0, [pc, #32]	; (800568c <MX_TIM3_Init+0xbc>)
 800566a:	f7ff fead 	bl	80053c8 <HAL_TIM_MspPostInit>
 800566e:	b00d      	add	sp, #52	; 0x34
 8005670:	bd30      	pop	{r4, r5, pc}
 8005672:	f7ff fc3d 	bl	8004ef0 <Error_Handler>
 8005676:	e7e7      	b.n	8005648 <MX_TIM3_Init+0x78>
 8005678:	f7ff fc3a 	bl	8004ef0 <Error_Handler>
 800567c:	e7de      	b.n	800563c <MX_TIM3_Init+0x6c>
 800567e:	f7ff fc37 	bl	8004ef0 <Error_Handler>
 8005682:	e7d5      	b.n	8005630 <MX_TIM3_Init+0x60>
 8005684:	f7ff fc34 	bl	8004ef0 <Error_Handler>
 8005688:	e7c5      	b.n	8005616 <MX_TIM3_Init+0x46>
 800568a:	bf00      	nop
 800568c:	2000183c 	.word	0x2000183c
 8005690:	40000400 	.word	0x40000400

08005694 <Reset_Handler>:
 8005694:	f8df d034 	ldr.w	sp, [pc, #52]	; 80056cc <LoopForever+0x2>
 8005698:	2100      	movs	r1, #0
 800569a:	e003      	b.n	80056a4 <LoopCopyDataInit>

0800569c <CopyDataInit>:
 800569c:	4b0c      	ldr	r3, [pc, #48]	; (80056d0 <LoopForever+0x6>)
 800569e:	585b      	ldr	r3, [r3, r1]
 80056a0:	5043      	str	r3, [r0, r1]
 80056a2:	3104      	adds	r1, #4

080056a4 <LoopCopyDataInit>:
 80056a4:	480b      	ldr	r0, [pc, #44]	; (80056d4 <LoopForever+0xa>)
 80056a6:	4b0c      	ldr	r3, [pc, #48]	; (80056d8 <LoopForever+0xe>)
 80056a8:	1842      	adds	r2, r0, r1
 80056aa:	429a      	cmp	r2, r3
 80056ac:	d3f6      	bcc.n	800569c <CopyDataInit>
 80056ae:	4a0b      	ldr	r2, [pc, #44]	; (80056dc <LoopForever+0x12>)
 80056b0:	e002      	b.n	80056b8 <LoopFillZerobss>

080056b2 <FillZerobss>:
 80056b2:	2300      	movs	r3, #0
 80056b4:	f842 3b04 	str.w	r3, [r2], #4

080056b8 <LoopFillZerobss>:
 80056b8:	4b09      	ldr	r3, [pc, #36]	; (80056e0 <LoopForever+0x16>)
 80056ba:	429a      	cmp	r2, r3
 80056bc:	d3f9      	bcc.n	80056b2 <FillZerobss>
 80056be:	f7ff fd29 	bl	8005114 <SystemInit>
 80056c2:	f002 fabf 	bl	8007c44 <__libc_init_array>
 80056c6:	f7ff fb71 	bl	8004dac <main>

080056ca <LoopForever>:
 80056ca:	e7fe      	b.n	80056ca <LoopForever>
 80056cc:	2000a000 	.word	0x2000a000
 80056d0:	08009068 	.word	0x08009068
 80056d4:	20000000 	.word	0x20000000
 80056d8:	2000008c 	.word	0x2000008c
 80056dc:	20000090 	.word	0x20000090
 80056e0:	20002e5c 	.word	0x20002e5c

080056e4 <ADC1_2_IRQHandler>:
 80056e4:	e7fe      	b.n	80056e4 <ADC1_2_IRQHandler>
	...

080056e8 <STORING_CheckFirstStart>:
 80056e8:	4bc0      	ldr	r3, [pc, #768]	; (80059ec <STORING_CheckFirstStart+0x304>)
 80056ea:	f893 206c 	ldrb.w	r2, [r3, #108]	; 0x6c
 80056ee:	2aff      	cmp	r2, #255	; 0xff
 80056f0:	b4f0      	push	{r4, r5, r6, r7}
 80056f2:	f000 8189 	beq.w	8005a08 <STORING_CheckFirstStart+0x320>
 80056f6:	785a      	ldrb	r2, [r3, #1]
 80056f8:	48bd      	ldr	r0, [pc, #756]	; (80059f0 <STORING_CheckFirstStart+0x308>)
 80056fa:	781f      	ldrb	r7, [r3, #0]
 80056fc:	7042      	strb	r2, [r0, #1]
 80056fe:	ebc2 1202 	rsb	r2, r2, r2, lsl #4
 8005702:	791c      	ldrb	r4, [r3, #4]
 8005704:	7007      	strb	r7, [r0, #0]
 8005706:	f44f 6161 	mov.w	r1, #3600	; 0xe10
 800570a:	0092      	lsls	r2, r2, #2
 800570c:	fb01 2207 	mla	r2, r1, r7, r2
 8005710:	789f      	ldrb	r7, [r3, #2]
 8005712:	78de      	ldrb	r6, [r3, #3]
 8005714:	7087      	strb	r7, [r0, #2]
 8005716:	ebc4 1504 	rsb	r5, r4, r4, lsl #4
 800571a:	443a      	add	r2, r7
 800571c:	00ad      	lsls	r5, r5, #2
 800571e:	795f      	ldrb	r7, [r3, #5]
 8005720:	6142      	str	r2, [r0, #20]
 8005722:	fb01 5106 	mla	r1, r1, r6, r5
 8005726:	48b3      	ldr	r0, [pc, #716]	; (80059f4 <STORING_CheckFirstStart+0x30c>)
 8005728:	799d      	ldrb	r5, [r3, #6]
 800572a:	7006      	strb	r6, [r0, #0]
 800572c:	4439      	add	r1, r7
 800572e:	f44f 727a 	mov.w	r2, #1000	; 0x3e8
 8005732:	7044      	strb	r4, [r0, #1]
 8005734:	6141      	str	r1, [r0, #20]
 8005736:	7087      	strb	r7, [r0, #2]
 8005738:	4caf      	ldr	r4, [pc, #700]	; (80059f8 <STORING_CheckFirstStart+0x310>)
 800573a:	48b0      	ldr	r0, [pc, #704]	; (80059fc <STORING_CheckFirstStart+0x314>)
 800573c:	49b0      	ldr	r1, [pc, #704]	; (8005a00 <STORING_CheckFirstStart+0x318>)
 800573e:	79de      	ldrb	r6, [r3, #7]
 8005740:	7025      	strb	r5, [r4, #0]
 8005742:	fb02 f205 	mul.w	r2, r2, r5
 8005746:	3a01      	subs	r2, #1
 8005748:	7a1d      	ldrb	r5, [r3, #8]
 800574a:	7a5c      	ldrb	r4, [r3, #9]
 800574c:	62c2      	str	r2, [r0, #44]	; 0x2c
 800574e:	7a98      	ldrb	r0, [r3, #10]
 8005750:	7ada      	ldrb	r2, [r3, #11]
 8005752:	708d      	strb	r5, [r1, #2]
 8005754:	700c      	strb	r4, [r1, #0]
 8005756:	7b1d      	ldrb	r5, [r3, #12]
 8005758:	7b5c      	ldrb	r4, [r3, #13]
 800575a:	7108      	strb	r0, [r1, #4]
 800575c:	7b98      	ldrb	r0, [r3, #14]
 800575e:	704e      	strb	r6, [r1, #1]
 8005760:	714a      	strb	r2, [r1, #5]
 8005762:	70cd      	strb	r5, [r1, #3]
 8005764:	71cc      	strb	r4, [r1, #7]
 8005766:	7208      	strb	r0, [r1, #8]
 8005768:	7bd8      	ldrb	r0, [r3, #15]
 800576a:	4aa6      	ldr	r2, [pc, #664]	; (8005a04 <STORING_CheckFirstStart+0x31c>)
 800576c:	7c1d      	ldrb	r5, [r3, #16]
 800576e:	7c5c      	ldrb	r4, [r3, #17]
 8005770:	7188      	strb	r0, [r1, #6]
 8005772:	7c98      	ldrb	r0, [r3, #18]
 8005774:	728d      	strb	r5, [r1, #10]
 8005776:	72cc      	strb	r4, [r1, #11]
 8005778:	8a9d      	ldrh	r5, [r3, #20]
 800577a:	f893 4024 	ldrb.w	r4, [r3, #36]	; 0x24
 800577e:	7248      	strb	r0, [r1, #9]
 8005780:	f893 002c 	ldrb.w	r0, [r3, #44]	; 0x2c
 8005784:	f893 1034 	ldrb.w	r1, [r3, #52]	; 0x34
 8005788:	8095      	strh	r5, [r2, #4]
 800578a:	7054      	strb	r4, [r2, #1]
 800578c:	f893 503c 	ldrb.w	r5, [r3, #60]	; 0x3c
 8005790:	f893 4044 	ldrb.w	r4, [r3, #68]	; 0x44
 8005794:	f882 007e 	strb.w	r0, [r2, #126]	; 0x7e
 8005798:	f882 1080 	strb.w	r1, [r2, #128]	; 0x80
 800579c:	f893 004c 	ldrb.w	r0, [r3, #76]	; 0x4c
 80057a0:	f893 1054 	ldrb.w	r1, [r3, #84]	; 0x54
 80057a4:	f882 5082 	strb.w	r5, [r2, #130]	; 0x82
 80057a8:	f882 4084 	strb.w	r4, [r2, #132]	; 0x84
 80057ac:	f893 505c 	ldrb.w	r5, [r3, #92]	; 0x5c
 80057b0:	f893 4064 	ldrb.w	r4, [r3, #100]	; 0x64
 80057b4:	f882 007f 	strb.w	r0, [r2, #127]	; 0x7f
 80057b8:	f882 1081 	strb.w	r1, [r2, #129]	; 0x81
 80057bc:	8ad8      	ldrh	r0, [r3, #22]
 80057be:	f893 1025 	ldrb.w	r1, [r3, #37]	; 0x25
 80057c2:	f882 4085 	strb.w	r4, [r2, #133]	; 0x85
 80057c6:	f8a2 008a 	strh.w	r0, [r2, #138]	; 0x8a
 80057ca:	f882 1087 	strb.w	r1, [r2, #135]	; 0x87
 80057ce:	f882 5083 	strb.w	r5, [r2, #131]	; 0x83
 80057d2:	f893 502d 	ldrb.w	r5, [r3, #45]	; 0x2d
 80057d6:	f893 4035 	ldrb.w	r4, [r3, #53]	; 0x35
 80057da:	f893 003d 	ldrb.w	r0, [r3, #61]	; 0x3d
 80057de:	f893 1045 	ldrb.w	r1, [r3, #69]	; 0x45
 80057e2:	f882 5104 	strb.w	r5, [r2, #260]	; 0x104
 80057e6:	f882 4106 	strb.w	r4, [r2, #262]	; 0x106
 80057ea:	f893 504d 	ldrb.w	r5, [r3, #77]	; 0x4d
 80057ee:	f893 4055 	ldrb.w	r4, [r3, #85]	; 0x55
 80057f2:	f882 0108 	strb.w	r0, [r2, #264]	; 0x108
 80057f6:	f882 110a 	strb.w	r1, [r2, #266]	; 0x10a
 80057fa:	f893 005d 	ldrb.w	r0, [r3, #93]	; 0x5d
 80057fe:	f893 1065 	ldrb.w	r1, [r3, #101]	; 0x65
 8005802:	f882 5105 	strb.w	r5, [r2, #261]	; 0x105
 8005806:	f882 4107 	strb.w	r4, [r2, #263]	; 0x107
 800580a:	8b1d      	ldrh	r5, [r3, #24]
 800580c:	f893 4026 	ldrb.w	r4, [r3, #38]	; 0x26
 8005810:	f882 0109 	strb.w	r0, [r2, #265]	; 0x109
 8005814:	f882 110b 	strb.w	r1, [r2, #267]	; 0x10b
 8005818:	f893 002e 	ldrb.w	r0, [r3, #46]	; 0x2e
 800581c:	f893 1036 	ldrb.w	r1, [r3, #54]	; 0x36
 8005820:	f8a2 5110 	strh.w	r5, [r2, #272]	; 0x110
 8005824:	f882 410d 	strb.w	r4, [r2, #269]	; 0x10d
 8005828:	f893 503e 	ldrb.w	r5, [r3, #62]	; 0x3e
 800582c:	f893 4046 	ldrb.w	r4, [r3, #70]	; 0x46
 8005830:	f882 018a 	strb.w	r0, [r2, #394]	; 0x18a
 8005834:	f882 118c 	strb.w	r1, [r2, #396]	; 0x18c
 8005838:	f893 004e 	ldrb.w	r0, [r3, #78]	; 0x4e
 800583c:	f893 1056 	ldrb.w	r1, [r3, #86]	; 0x56
 8005840:	f882 4190 	strb.w	r4, [r2, #400]	; 0x190
 8005844:	f882 018b 	strb.w	r0, [r2, #395]	; 0x18b
 8005848:	f882 118d 	strb.w	r1, [r2, #397]	; 0x18d
 800584c:	f882 518e 	strb.w	r5, [r2, #398]	; 0x18e
 8005850:	f893 505e 	ldrb.w	r5, [r3, #94]	; 0x5e
 8005854:	f893 4066 	ldrb.w	r4, [r3, #102]	; 0x66
 8005858:	8b58      	ldrh	r0, [r3, #26]
 800585a:	f893 1027 	ldrb.w	r1, [r3, #39]	; 0x27
 800585e:	f882 518f 	strb.w	r5, [r2, #399]	; 0x18f
 8005862:	f882 4191 	strb.w	r4, [r2, #401]	; 0x191
 8005866:	f893 502f 	ldrb.w	r5, [r3, #47]	; 0x2f
 800586a:	f893 4037 	ldrb.w	r4, [r3, #55]	; 0x37
 800586e:	f8a2 0196 	strh.w	r0, [r2, #406]	; 0x196
 8005872:	f882 1193 	strb.w	r1, [r2, #403]	; 0x193
 8005876:	f893 003f 	ldrb.w	r0, [r3, #63]	; 0x3f
 800587a:	f893 1047 	ldrb.w	r1, [r3, #71]	; 0x47
 800587e:	f882 5210 	strb.w	r5, [r2, #528]	; 0x210
 8005882:	f882 4212 	strb.w	r4, [r2, #530]	; 0x212
 8005886:	f893 504f 	ldrb.w	r5, [r3, #79]	; 0x4f
 800588a:	f893 4057 	ldrb.w	r4, [r3, #87]	; 0x57
 800588e:	f882 0214 	strb.w	r0, [r2, #532]	; 0x214
 8005892:	f882 1216 	strb.w	r1, [r2, #534]	; 0x216
 8005896:	f893 005f 	ldrb.w	r0, [r3, #95]	; 0x5f
 800589a:	f893 1067 	ldrb.w	r1, [r3, #103]	; 0x67
 800589e:	f882 5211 	strb.w	r5, [r2, #529]	; 0x211
 80058a2:	f882 4213 	strb.w	r4, [r2, #531]	; 0x213
 80058a6:	8b9d      	ldrh	r5, [r3, #28]
 80058a8:	f893 4028 	ldrb.w	r4, [r3, #40]	; 0x28
 80058ac:	f882 0215 	strb.w	r0, [r2, #533]	; 0x215
 80058b0:	f882 1217 	strb.w	r1, [r2, #535]	; 0x217
 80058b4:	f893 0030 	ldrb.w	r0, [r3, #48]	; 0x30
 80058b8:	f893 1038 	ldrb.w	r1, [r3, #56]	; 0x38
 80058bc:	f882 4219 	strb.w	r4, [r2, #537]	; 0x219
 80058c0:	f882 0296 	strb.w	r0, [r2, #662]	; 0x296
 80058c4:	f882 1298 	strb.w	r1, [r2, #664]	; 0x298
 80058c8:	f8a2 521c 	strh.w	r5, [r2, #540]	; 0x21c
 80058cc:	f893 5040 	ldrb.w	r5, [r3, #64]	; 0x40
 80058d0:	f893 4048 	ldrb.w	r4, [r3, #72]	; 0x48
 80058d4:	f893 0050 	ldrb.w	r0, [r3, #80]	; 0x50
 80058d8:	f893 1058 	ldrb.w	r1, [r3, #88]	; 0x58
 80058dc:	f882 529a 	strb.w	r5, [r2, #666]	; 0x29a
 80058e0:	f882 429c 	strb.w	r4, [r2, #668]	; 0x29c
 80058e4:	f893 5060 	ldrb.w	r5, [r3, #96]	; 0x60
 80058e8:	f893 4068 	ldrb.w	r4, [r3, #104]	; 0x68
 80058ec:	f882 0297 	strb.w	r0, [r2, #663]	; 0x297
 80058f0:	f882 1299 	strb.w	r1, [r2, #665]	; 0x299
 80058f4:	8bd8      	ldrh	r0, [r3, #30]
 80058f6:	f893 1029 	ldrb.w	r1, [r3, #41]	; 0x29
 80058fa:	f882 529b 	strb.w	r5, [r2, #667]	; 0x29b
 80058fe:	f882 429d 	strb.w	r4, [r2, #669]	; 0x29d
 8005902:	f893 5031 	ldrb.w	r5, [r3, #49]	; 0x31
 8005906:	f893 4039 	ldrb.w	r4, [r3, #57]	; 0x39
 800590a:	f8a2 02a2 	strh.w	r0, [r2, #674]	; 0x2a2
 800590e:	f882 129f 	strb.w	r1, [r2, #671]	; 0x29f
 8005912:	f893 0041 	ldrb.w	r0, [r3, #65]	; 0x41
 8005916:	f893 1049 	ldrb.w	r1, [r3, #73]	; 0x49
 800591a:	f882 531c 	strb.w	r5, [r2, #796]	; 0x31c
 800591e:	f882 431e 	strb.w	r4, [r2, #798]	; 0x31e
 8005922:	f893 5051 	ldrb.w	r5, [r3, #81]	; 0x51
 8005926:	f893 4059 	ldrb.w	r4, [r3, #89]	; 0x59
 800592a:	f882 0320 	strb.w	r0, [r2, #800]	; 0x320
 800592e:	f882 1322 	strb.w	r1, [r2, #802]	; 0x322
 8005932:	f893 0061 	ldrb.w	r0, [r3, #97]	; 0x61
 8005936:	f893 1069 	ldrb.w	r1, [r3, #105]	; 0x69
 800593a:	f882 431f 	strb.w	r4, [r2, #799]	; 0x31f
 800593e:	f882 0321 	strb.w	r0, [r2, #801]	; 0x321
 8005942:	f882 1323 	strb.w	r1, [r2, #803]	; 0x323
 8005946:	f882 531d 	strb.w	r5, [r2, #797]	; 0x31d
 800594a:	8c1d      	ldrh	r5, [r3, #32]
 800594c:	f893 402a 	ldrb.w	r4, [r3, #42]	; 0x2a
 8005950:	f893 0032 	ldrb.w	r0, [r3, #50]	; 0x32
 8005954:	f893 103a 	ldrb.w	r1, [r3, #58]	; 0x3a
 8005958:	f8a2 5328 	strh.w	r5, [r2, #808]	; 0x328
 800595c:	f882 4325 	strb.w	r4, [r2, #805]	; 0x325
 8005960:	f893 5042 	ldrb.w	r5, [r3, #66]	; 0x42
 8005964:	f893 404a 	ldrb.w	r4, [r3, #74]	; 0x4a
 8005968:	f882 03a2 	strb.w	r0, [r2, #930]	; 0x3a2
 800596c:	f882 13a4 	strb.w	r1, [r2, #932]	; 0x3a4
 8005970:	f893 0052 	ldrb.w	r0, [r3, #82]	; 0x52
 8005974:	f893 105a 	ldrb.w	r1, [r3, #90]	; 0x5a
 8005978:	f882 53a6 	strb.w	r5, [r2, #934]	; 0x3a6
 800597c:	f882 43a8 	strb.w	r4, [r2, #936]	; 0x3a8
 8005980:	f893 5062 	ldrb.w	r5, [r3, #98]	; 0x62
 8005984:	f893 406a 	ldrb.w	r4, [r3, #106]	; 0x6a
 8005988:	f882 03a3 	strb.w	r0, [r2, #931]	; 0x3a3
 800598c:	f882 13a5 	strb.w	r1, [r2, #933]	; 0x3a5
 8005990:	8c58      	ldrh	r0, [r3, #34]	; 0x22
 8005992:	f893 102b 	ldrb.w	r1, [r3, #43]	; 0x2b
 8005996:	f882 53a7 	strb.w	r5, [r2, #935]	; 0x3a7
 800599a:	f882 43a9 	strb.w	r4, [r2, #937]	; 0x3a9
 800599e:	f893 5033 	ldrb.w	r5, [r3, #51]	; 0x33
 80059a2:	f893 403b 	ldrb.w	r4, [r3, #59]	; 0x3b
 80059a6:	f8a2 03ae 	strh.w	r0, [r2, #942]	; 0x3ae
 80059aa:	f882 13ab 	strb.w	r1, [r2, #939]	; 0x3ab
 80059ae:	f893 0043 	ldrb.w	r0, [r3, #67]	; 0x43
 80059b2:	f893 104b 	ldrb.w	r1, [r3, #75]	; 0x4b
 80059b6:	f882 5428 	strb.w	r5, [r2, #1064]	; 0x428
 80059ba:	f882 042c 	strb.w	r0, [r2, #1068]	; 0x42c
 80059be:	f882 142e 	strb.w	r1, [r2, #1070]	; 0x42e
 80059c2:	f882 442a 	strb.w	r4, [r2, #1066]	; 0x42a
 80059c6:	f893 4053 	ldrb.w	r4, [r3, #83]	; 0x53
 80059ca:	f893 005b 	ldrb.w	r0, [r3, #91]	; 0x5b
 80059ce:	f893 1063 	ldrb.w	r1, [r3, #99]	; 0x63
 80059d2:	f893 306b 	ldrb.w	r3, [r3, #107]	; 0x6b
 80059d6:	f882 4429 	strb.w	r4, [r2, #1065]	; 0x429
 80059da:	f882 042b 	strb.w	r0, [r2, #1067]	; 0x42b
 80059de:	f882 142d 	strb.w	r1, [r2, #1069]	; 0x42d
 80059e2:	f882 342f 	strb.w	r3, [r2, #1071]	; 0x42f
 80059e6:	bcf0      	pop	{r4, r5, r6, r7}
 80059e8:	4770      	bx	lr
 80059ea:	bf00      	nop
 80059ec:	2000193c 	.word	0x2000193c
 80059f0:	20000e88 	.word	0x20000e88
 80059f4:	20000e70 	.word	0x20000e70
 80059f8:	200000b2 	.word	0x200000b2
 80059fc:	40000800 	.word	0x40000800
 8005a00:	200012f8 	.word	0x200012f8
 8005a04:	20001308 	.word	0x20001308
 8005a08:	4c2a      	ldr	r4, [pc, #168]	; (8005ab4 <STORING_CheckFirstStart+0x3cc>)
 8005a0a:	4d2b      	ldr	r5, [pc, #172]	; (8005ab8 <STORING_CheckFirstStart+0x3d0>)
 8005a0c:	4e2b      	ldr	r6, [pc, #172]	; (8005abc <STORING_CheckFirstStart+0x3d4>)
 8005a0e:	492c      	ldr	r1, [pc, #176]	; (8005ac0 <STORING_CheckFirstStart+0x3d8>)
 8005a10:	482c      	ldr	r0, [pc, #176]	; (8005ac4 <STORING_CheckFirstStart+0x3dc>)
 8005a12:	2200      	movs	r2, #0
 8005a14:	8022      	strh	r2, [r4, #0]
 8005a16:	70a2      	strb	r2, [r4, #2]
 8005a18:	7032      	strb	r2, [r6, #0]
 8005a1a:	802a      	strh	r2, [r5, #0]
 8005a1c:	70aa      	strb	r2, [r5, #2]
 8005a1e:	62ca      	str	r2, [r1, #44]	; 0x2c
 8005a20:	4929      	ldr	r1, [pc, #164]	; (8005ac8 <STORING_CheckFirstStart+0x3e0>)
 8005a22:	6162      	str	r2, [r4, #20]
 8005a24:	4c29      	ldr	r4, [pc, #164]	; (8005acc <STORING_CheckFirstStart+0x3e4>)
 8005a26:	8800      	ldrh	r0, [r0, #0]
 8005a28:	616a      	str	r2, [r5, #20]
 8005a2a:	6022      	str	r2, [r4, #0]
 8005a2c:	6062      	str	r2, [r4, #4]
 8005a2e:	60a2      	str	r2, [r4, #8]
 8005a30:	8088      	strh	r0, [r1, #4]
 8005a32:	f8a1 008a 	strh.w	r0, [r1, #138]	; 0x8a
 8005a36:	f8a1 0110 	strh.w	r0, [r1, #272]	; 0x110
 8005a3a:	f8a1 0196 	strh.w	r0, [r1, #406]	; 0x196
 8005a3e:	f8a1 021c 	strh.w	r0, [r1, #540]	; 0x21c
 8005a42:	704a      	strb	r2, [r1, #1]
 8005a44:	f8c1 207e 	str.w	r2, [r1, #126]	; 0x7e
 8005a48:	f8c1 2082 	str.w	r2, [r1, #130]	; 0x82
 8005a4c:	f881 2087 	strb.w	r2, [r1, #135]	; 0x87
 8005a50:	f8c1 2104 	str.w	r2, [r1, #260]	; 0x104
 8005a54:	f8c1 2108 	str.w	r2, [r1, #264]	; 0x108
 8005a58:	f881 210d 	strb.w	r2, [r1, #269]	; 0x10d
 8005a5c:	f8c1 218a 	str.w	r2, [r1, #394]	; 0x18a
 8005a60:	f8c1 218e 	str.w	r2, [r1, #398]	; 0x18e
 8005a64:	f881 2193 	strb.w	r2, [r1, #403]	; 0x193
 8005a68:	f8c1 2210 	str.w	r2, [r1, #528]	; 0x210
 8005a6c:	f8c1 2214 	str.w	r2, [r1, #532]	; 0x214
 8005a70:	f881 2219 	strb.w	r2, [r1, #537]	; 0x219
 8005a74:	f8c1 2296 	str.w	r2, [r1, #662]	; 0x296
 8005a78:	f8c1 229a 	str.w	r2, [r1, #666]	; 0x29a
 8005a7c:	f8a1 02a2 	strh.w	r0, [r1, #674]	; 0x2a2
 8005a80:	f881 229f 	strb.w	r2, [r1, #671]	; 0x29f
 8005a84:	f8c1 231c 	str.w	r2, [r1, #796]	; 0x31c
 8005a88:	f8c1 2320 	str.w	r2, [r1, #800]	; 0x320
 8005a8c:	f881 2325 	strb.w	r2, [r1, #805]	; 0x325
 8005a90:	f8c1 23a2 	str.w	r2, [r1, #930]	; 0x3a2
 8005a94:	f8c1 23a6 	str.w	r2, [r1, #934]	; 0x3a6
 8005a98:	f881 23ab 	strb.w	r2, [r1, #939]	; 0x3ab
 8005a9c:	f8c1 2428 	str.w	r2, [r1, #1064]	; 0x428
 8005aa0:	f8c1 242c 	str.w	r2, [r1, #1068]	; 0x42c
 8005aa4:	bcf0      	pop	{r4, r5, r6, r7}
 8005aa6:	f883 206c 	strb.w	r2, [r3, #108]	; 0x6c
 8005aaa:	f8a1 0328 	strh.w	r0, [r1, #808]	; 0x328
 8005aae:	f8a1 03ae 	strh.w	r0, [r1, #942]	; 0x3ae
 8005ab2:	4770      	bx	lr
 8005ab4:	20000e88 	.word	0x20000e88
 8005ab8:	20000e70 	.word	0x20000e70
 8005abc:	200000b2 	.word	0x200000b2
 8005ac0:	40000800 	.word	0x40000800
 8005ac4:	200000ae 	.word	0x200000ae
 8005ac8:	20001308 	.word	0x20001308
 8005acc:	200012f8 	.word	0x200012f8

08005ad0 <STORING_SaveSetting>:
 8005ad0:	b570      	push	{r4, r5, r6, lr}
 8005ad2:	4bbe      	ldr	r3, [pc, #760]	; (8005dcc <STORING_SaveSetting+0x2fc>)
 8005ad4:	4dbe      	ldr	r5, [pc, #760]	; (8005dd0 <STORING_SaveSetting+0x300>)
 8005ad6:	49bf      	ldr	r1, [pc, #764]	; (8005dd4 <STORING_SaveSetting+0x304>)
 8005ad8:	4abf      	ldr	r2, [pc, #764]	; (8005dd8 <STORING_SaveSetting+0x308>)
 8005ada:	789c      	ldrb	r4, [r3, #2]
 8005adc:	48bf      	ldr	r0, [pc, #764]	; (8005ddc <STORING_SaveSetting+0x30c>)
 8005ade:	70ac      	strb	r4, [r5, #2]
 8005ae0:	780c      	ldrb	r4, [r1, #0]
 8005ae2:	784e      	ldrb	r6, [r1, #1]
 8005ae4:	7800      	ldrb	r0, [r0, #0]
 8005ae6:	70ec      	strb	r4, [r5, #3]
 8005ae8:	788c      	ldrb	r4, [r1, #2]
 8005aea:	7851      	ldrb	r1, [r2, #1]
 8005aec:	881b      	ldrh	r3, [r3, #0]
 8005aee:	716c      	strb	r4, [r5, #5]
 8005af0:	71a8      	strb	r0, [r5, #6]
 8005af2:	7894      	ldrb	r4, [r2, #2]
 8005af4:	7810      	ldrb	r0, [r2, #0]
 8005af6:	71e9      	strb	r1, [r5, #7]
 8005af8:	7911      	ldrb	r1, [r2, #4]
 8005afa:	802b      	strh	r3, [r5, #0]
 8005afc:	722c      	strb	r4, [r5, #8]
 8005afe:	4bb8      	ldr	r3, [pc, #736]	; (8005de0 <STORING_SaveSetting+0x310>)
 8005b00:	7954      	ldrb	r4, [r2, #5]
 8005b02:	7268      	strb	r0, [r5, #9]
 8005b04:	72a9      	strb	r1, [r5, #10]
 8005b06:	78d0      	ldrb	r0, [r2, #3]
 8005b08:	79d1      	ldrb	r1, [r2, #7]
 8005b0a:	72ec      	strb	r4, [r5, #11]
 8005b0c:	7328      	strb	r0, [r5, #12]
 8005b0e:	7a14      	ldrb	r4, [r2, #8]
 8005b10:	7990      	ldrb	r0, [r2, #6]
 8005b12:	7369      	strb	r1, [r5, #13]
 8005b14:	7a91      	ldrb	r1, [r2, #10]
 8005b16:	712e      	strb	r6, [r5, #4]
 8005b18:	73ac      	strb	r4, [r5, #14]
 8005b1a:	73e8      	strb	r0, [r5, #15]
 8005b1c:	7429      	strb	r1, [r5, #16]
 8005b1e:	7ad4      	ldrb	r4, [r2, #11]
 8005b20:	7a50      	ldrb	r0, [r2, #9]
 8005b22:	8899      	ldrh	r1, [r3, #4]
 8005b24:	785a      	ldrb	r2, [r3, #1]
 8005b26:	746c      	strb	r4, [r5, #17]
 8005b28:	74a8      	strb	r0, [r5, #18]
 8005b2a:	f893 407e 	ldrb.w	r4, [r3, #126]	; 0x7e
 8005b2e:	f893 0080 	ldrb.w	r0, [r3, #128]	; 0x80
 8005b32:	82a9      	strh	r1, [r5, #20]
 8005b34:	f885 2024 	strb.w	r2, [r5, #36]	; 0x24
 8005b38:	f893 1082 	ldrb.w	r1, [r3, #130]	; 0x82
 8005b3c:	f893 2084 	ldrb.w	r2, [r3, #132]	; 0x84
 8005b40:	f885 402c 	strb.w	r4, [r5, #44]	; 0x2c
 8005b44:	f885 0034 	strb.w	r0, [r5, #52]	; 0x34
 8005b48:	f893 407f 	ldrb.w	r4, [r3, #127]	; 0x7f
 8005b4c:	f893 0081 	ldrb.w	r0, [r3, #129]	; 0x81
 8005b50:	f885 103c 	strb.w	r1, [r5, #60]	; 0x3c
 8005b54:	f885 2044 	strb.w	r2, [r5, #68]	; 0x44
 8005b58:	f893 1083 	ldrb.w	r1, [r3, #131]	; 0x83
 8005b5c:	f893 2085 	ldrb.w	r2, [r3, #133]	; 0x85
 8005b60:	f885 404c 	strb.w	r4, [r5, #76]	; 0x4c
 8005b64:	f885 0054 	strb.w	r0, [r5, #84]	; 0x54
 8005b68:	f8b3 408a 	ldrh.w	r4, [r3, #138]	; 0x8a
 8005b6c:	f893 0087 	ldrb.w	r0, [r3, #135]	; 0x87
 8005b70:	f885 105c 	strb.w	r1, [r5, #92]	; 0x5c
 8005b74:	f885 2064 	strb.w	r2, [r5, #100]	; 0x64
 8005b78:	f893 1104 	ldrb.w	r1, [r3, #260]	; 0x104
 8005b7c:	f893 2106 	ldrb.w	r2, [r3, #262]	; 0x106
 8005b80:	f885 0025 	strb.w	r0, [r5, #37]	; 0x25
 8005b84:	f885 102d 	strb.w	r1, [r5, #45]	; 0x2d
 8005b88:	f885 2035 	strb.w	r2, [r5, #53]	; 0x35
 8005b8c:	82ec      	strh	r4, [r5, #22]
 8005b8e:	f893 4108 	ldrb.w	r4, [r3, #264]	; 0x108
 8005b92:	f893 010a 	ldrb.w	r0, [r3, #266]	; 0x10a
 8005b96:	f893 1105 	ldrb.w	r1, [r3, #261]	; 0x105
 8005b9a:	f893 2107 	ldrb.w	r2, [r3, #263]	; 0x107
 8005b9e:	f885 403d 	strb.w	r4, [r5, #61]	; 0x3d
 8005ba2:	f885 0045 	strb.w	r0, [r5, #69]	; 0x45
 8005ba6:	f893 4109 	ldrb.w	r4, [r3, #265]	; 0x109
 8005baa:	f893 010b 	ldrb.w	r0, [r3, #267]	; 0x10b
 8005bae:	f885 104d 	strb.w	r1, [r5, #77]	; 0x4d
 8005bb2:	f885 2055 	strb.w	r2, [r5, #85]	; 0x55
 8005bb6:	f8b3 1110 	ldrh.w	r1, [r3, #272]	; 0x110
 8005bba:	f893 210d 	ldrb.w	r2, [r3, #269]	; 0x10d
 8005bbe:	f885 405d 	strb.w	r4, [r5, #93]	; 0x5d
 8005bc2:	f885 0065 	strb.w	r0, [r5, #101]	; 0x65
 8005bc6:	f893 418a 	ldrb.w	r4, [r3, #394]	; 0x18a
 8005bca:	f893 018c 	ldrb.w	r0, [r3, #396]	; 0x18c
 8005bce:	8329      	strh	r1, [r5, #24]
 8005bd0:	f885 2026 	strb.w	r2, [r5, #38]	; 0x26
 8005bd4:	f893 118e 	ldrb.w	r1, [r3, #398]	; 0x18e
 8005bd8:	f893 2190 	ldrb.w	r2, [r3, #400]	; 0x190
 8005bdc:	f885 402e 	strb.w	r4, [r5, #46]	; 0x2e
 8005be0:	f885 0036 	strb.w	r0, [r5, #54]	; 0x36
 8005be4:	f893 418b 	ldrb.w	r4, [r3, #395]	; 0x18b
 8005be8:	f893 018d 	ldrb.w	r0, [r3, #397]	; 0x18d
 8005bec:	f885 103e 	strb.w	r1, [r5, #62]	; 0x3e
 8005bf0:	f885 2046 	strb.w	r2, [r5, #70]	; 0x46
 8005bf4:	f893 118f 	ldrb.w	r1, [r3, #399]	; 0x18f
 8005bf8:	f893 2191 	ldrb.w	r2, [r3, #401]	; 0x191
 8005bfc:	f885 0056 	strb.w	r0, [r5, #86]	; 0x56
 8005c00:	f885 105e 	strb.w	r1, [r5, #94]	; 0x5e
 8005c04:	f885 2066 	strb.w	r2, [r5, #102]	; 0x66
 8005c08:	f885 404e 	strb.w	r4, [r5, #78]	; 0x4e
 8005c0c:	f8b3 4196 	ldrh.w	r4, [r3, #406]	; 0x196
 8005c10:	f893 0193 	ldrb.w	r0, [r3, #403]	; 0x193
 8005c14:	f893 1210 	ldrb.w	r1, [r3, #528]	; 0x210
 8005c18:	f893 2212 	ldrb.w	r2, [r3, #530]	; 0x212
 8005c1c:	836c      	strh	r4, [r5, #26]
 8005c1e:	f885 0027 	strb.w	r0, [r5, #39]	; 0x27
 8005c22:	f893 4214 	ldrb.w	r4, [r3, #532]	; 0x214
 8005c26:	f893 0216 	ldrb.w	r0, [r3, #534]	; 0x216
 8005c2a:	f885 102f 	strb.w	r1, [r5, #47]	; 0x2f
 8005c2e:	f885 2037 	strb.w	r2, [r5, #55]	; 0x37
 8005c32:	f893 1211 	ldrb.w	r1, [r3, #529]	; 0x211
 8005c36:	f893 2213 	ldrb.w	r2, [r3, #531]	; 0x213
 8005c3a:	f885 403f 	strb.w	r4, [r5, #63]	; 0x3f
 8005c3e:	f885 0047 	strb.w	r0, [r5, #71]	; 0x47
 8005c42:	f893 4215 	ldrb.w	r4, [r3, #533]	; 0x215
 8005c46:	f893 0217 	ldrb.w	r0, [r3, #535]	; 0x217
 8005c4a:	f885 104f 	strb.w	r1, [r5, #79]	; 0x4f
 8005c4e:	f885 2057 	strb.w	r2, [r5, #87]	; 0x57
 8005c52:	f8b3 121c 	ldrh.w	r1, [r3, #540]	; 0x21c
 8005c56:	f893 2219 	ldrb.w	r2, [r3, #537]	; 0x219
 8005c5a:	f885 405f 	strb.w	r4, [r5, #95]	; 0x5f
 8005c5e:	f885 0067 	strb.w	r0, [r5, #103]	; 0x67
 8005c62:	f893 4296 	ldrb.w	r4, [r3, #662]	; 0x296
 8005c66:	f893 0298 	ldrb.w	r0, [r3, #664]	; 0x298
 8005c6a:	83a9      	strh	r1, [r5, #28]
 8005c6c:	f885 2028 	strb.w	r2, [r5, #40]	; 0x28
 8005c70:	f893 129a 	ldrb.w	r1, [r3, #666]	; 0x29a
 8005c74:	f893 229c 	ldrb.w	r2, [r3, #668]	; 0x29c
 8005c78:	f885 0038 	strb.w	r0, [r5, #56]	; 0x38
 8005c7c:	f885 1040 	strb.w	r1, [r5, #64]	; 0x40
 8005c80:	f885 2048 	strb.w	r2, [r5, #72]	; 0x48
 8005c84:	f885 4030 	strb.w	r4, [r5, #48]	; 0x30
 8005c88:	f893 4297 	ldrb.w	r4, [r3, #663]	; 0x297
 8005c8c:	f893 0299 	ldrb.w	r0, [r3, #665]	; 0x299
 8005c90:	f893 129b 	ldrb.w	r1, [r3, #667]	; 0x29b
 8005c94:	f893 229d 	ldrb.w	r2, [r3, #669]	; 0x29d
 8005c98:	f885 4050 	strb.w	r4, [r5, #80]	; 0x50
 8005c9c:	f885 0058 	strb.w	r0, [r5, #88]	; 0x58
 8005ca0:	f8b3 42a2 	ldrh.w	r4, [r3, #674]	; 0x2a2
 8005ca4:	f893 029f 	ldrb.w	r0, [r3, #671]	; 0x29f
 8005ca8:	f885 1060 	strb.w	r1, [r5, #96]	; 0x60
 8005cac:	f885 2068 	strb.w	r2, [r5, #104]	; 0x68
 8005cb0:	f893 131c 	ldrb.w	r1, [r3, #796]	; 0x31c
 8005cb4:	f893 231e 	ldrb.w	r2, [r3, #798]	; 0x31e
 8005cb8:	83ec      	strh	r4, [r5, #30]
 8005cba:	f885 0029 	strb.w	r0, [r5, #41]	; 0x29
 8005cbe:	f893 4320 	ldrb.w	r4, [r3, #800]	; 0x320
 8005cc2:	f893 0322 	ldrb.w	r0, [r3, #802]	; 0x322
 8005cc6:	f885 1031 	strb.w	r1, [r5, #49]	; 0x31
 8005cca:	f885 2039 	strb.w	r2, [r5, #57]	; 0x39
 8005cce:	f893 131d 	ldrb.w	r1, [r3, #797]	; 0x31d
 8005cd2:	f893 231f 	ldrb.w	r2, [r3, #799]	; 0x31f
 8005cd6:	f885 4041 	strb.w	r4, [r5, #65]	; 0x41
 8005cda:	f885 0049 	strb.w	r0, [r5, #73]	; 0x49
 8005cde:	f893 4321 	ldrb.w	r4, [r3, #801]	; 0x321
 8005ce2:	f893 0323 	ldrb.w	r0, [r3, #803]	; 0x323
 8005ce6:	f885 1051 	strb.w	r1, [r5, #81]	; 0x51
 8005cea:	f885 2059 	strb.w	r2, [r5, #89]	; 0x59
 8005cee:	f8b3 1328 	ldrh.w	r1, [r3, #808]	; 0x328
 8005cf2:	f893 2325 	ldrb.w	r2, [r3, #805]	; 0x325
 8005cf6:	f885 4061 	strb.w	r4, [r5, #97]	; 0x61
 8005cfa:	f885 0069 	strb.w	r0, [r5, #105]	; 0x69
 8005cfe:	8429      	strh	r1, [r5, #32]
 8005d00:	f885 202a 	strb.w	r2, [r5, #42]	; 0x2a
 8005d04:	f893 23a2 	ldrb.w	r2, [r3, #930]	; 0x3a2
 8005d08:	f885 2032 	strb.w	r2, [r5, #50]	; 0x32
 8005d0c:	f893 03a4 	ldrb.w	r0, [r3, #932]	; 0x3a4
 8005d10:	f893 13a6 	ldrb.w	r1, [r3, #934]	; 0x3a6
 8005d14:	f893 23a8 	ldrb.w	r2, [r3, #936]	; 0x3a8
 8005d18:	f885 003a 	strb.w	r0, [r5, #58]	; 0x3a
 8005d1c:	f885 1042 	strb.w	r1, [r5, #66]	; 0x42
 8005d20:	f893 03a3 	ldrb.w	r0, [r3, #931]	; 0x3a3
 8005d24:	f893 13a5 	ldrb.w	r1, [r3, #933]	; 0x3a5
 8005d28:	f885 204a 	strb.w	r2, [r5, #74]	; 0x4a
 8005d2c:	f893 23a7 	ldrb.w	r2, [r3, #935]	; 0x3a7
 8005d30:	f885 0052 	strb.w	r0, [r5, #82]	; 0x52
 8005d34:	f885 105a 	strb.w	r1, [r5, #90]	; 0x5a
 8005d38:	f893 03a9 	ldrb.w	r0, [r3, #937]	; 0x3a9
 8005d3c:	f8b3 13ae 	ldrh.w	r1, [r3, #942]	; 0x3ae
 8005d40:	f885 2062 	strb.w	r2, [r5, #98]	; 0x62
 8005d44:	f893 23ab 	ldrb.w	r2, [r3, #939]	; 0x3ab
 8005d48:	f885 006a 	strb.w	r0, [r5, #106]	; 0x6a
 8005d4c:	8469      	strh	r1, [r5, #34]	; 0x22
 8005d4e:	f893 0428 	ldrb.w	r0, [r3, #1064]	; 0x428
 8005d52:	f893 142a 	ldrb.w	r1, [r3, #1066]	; 0x42a
 8005d56:	f885 202b 	strb.w	r2, [r5, #43]	; 0x2b
 8005d5a:	f893 242c 	ldrb.w	r2, [r3, #1068]	; 0x42c
 8005d5e:	4c21      	ldr	r4, [pc, #132]	; (8005de4 <STORING_SaveSetting+0x314>)
 8005d60:	f885 0033 	strb.w	r0, [r5, #51]	; 0x33
 8005d64:	f885 103b 	strb.w	r1, [r5, #59]	; 0x3b
 8005d68:	f893 042e 	ldrb.w	r0, [r3, #1070]	; 0x42e
 8005d6c:	f893 1429 	ldrb.w	r1, [r3, #1065]	; 0x429
 8005d70:	f885 2043 	strb.w	r2, [r5, #67]	; 0x43
 8005d74:	f893 242b 	ldrb.w	r2, [r3, #1067]	; 0x42b
 8005d78:	f885 1053 	strb.w	r1, [r5, #83]	; 0x53
 8005d7c:	b082      	sub	sp, #8
 8005d7e:	f885 004b 	strb.w	r0, [r5, #75]	; 0x4b
 8005d82:	f885 205b 	strb.w	r2, [r5, #91]	; 0x5b
 8005d86:	f893 242d 	ldrb.w	r2, [r3, #1069]	; 0x42d
 8005d8a:	f893 342f 	ldrb.w	r3, [r3, #1071]	; 0x42f
 8005d8e:	f885 2063 	strb.w	r2, [r5, #99]	; 0x63
 8005d92:	f885 306b 	strb.w	r3, [r5, #107]	; 0x6b
 8005d96:	f7fa fe53 	bl	8000a40 <HAL_FLASH_Unlock>
 8005d9a:	4620      	mov	r0, r4
 8005d9c:	2300      	movs	r3, #0
 8005d9e:	a901      	add	r1, sp, #4
 8005da0:	9301      	str	r3, [sp, #4]
 8005da2:	f7fa feb1 	bl	8000b08 <HAL_FLASHEx_Erase>
 8005da6:	6866      	ldr	r6, [r4, #4]
 8005da8:	3602      	adds	r6, #2
 8005daa:	1b76      	subs	r6, r6, r5
 8005dac:	1eac      	subs	r4, r5, #2
 8005dae:	356c      	adds	r5, #108	; 0x6c
 8005db0:	1931      	adds	r1, r6, r4
 8005db2:	f834 2f02 	ldrh.w	r2, [r4, #2]!
 8005db6:	2300      	movs	r3, #0
 8005db8:	2001      	movs	r0, #1
 8005dba:	f7fa fd77 	bl	80008ac <HAL_FLASH_Program>
 8005dbe:	42ac      	cmp	r4, r5
 8005dc0:	d1f6      	bne.n	8005db0 <STORING_SaveSetting+0x2e0>
 8005dc2:	f7fa fe51 	bl	8000a68 <HAL_FLASH_Lock>
 8005dc6:	b002      	add	sp, #8
 8005dc8:	bd70      	pop	{r4, r5, r6, pc}
 8005dca:	bf00      	nop
 8005dcc:	20000e88 	.word	0x20000e88
 8005dd0:	2000193c 	.word	0x2000193c
 8005dd4:	20000e70 	.word	0x20000e70
 8005dd8:	200012f8 	.word	0x200012f8
 8005ddc:	200000b2 	.word	0x200000b2
 8005de0:	20001308 	.word	0x20001308
 8005de4:	20000010 	.word	0x20000010

08005de8 <STORING_ReadSetting>:
 8005de8:	4b11      	ldr	r3, [pc, #68]	; (8005e30 <STORING_ReadSetting+0x48>)
 8005dea:	4a12      	ldr	r2, [pc, #72]	; (8005e34 <STORING_ReadSetting+0x4c>)
 8005dec:	6859      	ldr	r1, [r3, #4]
 8005dee:	1d0b      	adds	r3, r1, #4
 8005df0:	429a      	cmp	r2, r3
 8005df2:	d202      	bcs.n	8005dfa <STORING_ReadSetting+0x12>
 8005df4:	1d13      	adds	r3, r2, #4
 8005df6:	428b      	cmp	r3, r1
 8005df8:	d80f      	bhi.n	8005e1a <STORING_ReadSetting+0x32>
 8005dfa:	4b0e      	ldr	r3, [pc, #56]	; (8005e34 <STORING_ReadSetting+0x4c>)
 8005dfc:	b430      	push	{r4, r5}
 8005dfe:	1a8d      	subs	r5, r1, r2
 8005e00:	f103 046c 	add.w	r4, r3, #108	; 0x6c
 8005e04:	5958      	ldr	r0, [r3, r5]
 8005e06:	f843 0b04 	str.w	r0, [r3], #4
 8005e0a:	42a3      	cmp	r3, r4
 8005e0c:	d1fa      	bne.n	8005e04 <STORING_ReadSetting+0x1c>
 8005e0e:	f8b1 306c 	ldrh.w	r3, [r1, #108]	; 0x6c
 8005e12:	f8a2 306c 	strh.w	r3, [r2, #108]	; 0x6c
 8005e16:	bc30      	pop	{r4, r5}
 8005e18:	4770      	bx	lr
 8005e1a:	1c8b      	adds	r3, r1, #2
 8005e1c:	1a9b      	subs	r3, r3, r2
 8005e1e:	1e91      	subs	r1, r2, #2
 8005e20:	326c      	adds	r2, #108	; 0x6c
 8005e22:	5a58      	ldrh	r0, [r3, r1]
 8005e24:	f821 0f02 	strh.w	r0, [r1, #2]!
 8005e28:	428a      	cmp	r2, r1
 8005e2a:	d1fa      	bne.n	8005e22 <STORING_ReadSetting+0x3a>
 8005e2c:	4770      	bx	lr
 8005e2e:	bf00      	nop
 8005e30:	20000010 	.word	0x20000010
 8005e34:	2000193c 	.word	0x2000193c

08005e38 <MENU_Fill>:
 8005e38:	4be6      	ldr	r3, [pc, #920]	; (80061d4 <MENU_Fill+0x39c>)
 8005e3a:	f8df c410 	ldr.w	ip, [pc, #1040]	; 800624c <MENU_Fill+0x414>
 8005e3e:	48e6      	ldr	r0, [pc, #920]	; (80061d8 <MENU_Fill+0x3a0>)
 8005e40:	4ae6      	ldr	r2, [pc, #920]	; (80061dc <MENU_Fill+0x3a4>)
 8005e42:	e92d 4ff0 	stmdb	sp!, {r4, r5, r6, r7, r8, r9, sl, fp, lr}
 8005e46:	f04f 0100 	mov.w	r1, #0
 8005e4a:	f8df 9404 	ldr.w	r9, [pc, #1028]	; 8006250 <MENU_Fill+0x418>
 8005e4e:	7019      	strb	r1, [r3, #0]
 8005e50:	2100      	movs	r1, #0
 8005e52:	e9c3 9106 	strd	r9, r1, [r3, #24]
 8005e56:	f103 012c 	add.w	r1, r3, #44	; 0x2c
 8005e5a:	6219      	str	r1, [r3, #32]
 8005e5c:	6759      	str	r1, [r3, #116]	; 0x74
 8005e5e:	f04f 0102 	mov.w	r1, #2
 8005e62:	f883 1058 	strb.w	r1, [r3, #88]	; 0x58
 8005e66:	f103 0184 	add.w	r1, r3, #132	; 0x84
 8005e6a:	6799      	str	r1, [r3, #120]	; 0x78
 8005e6c:	f8c3 10cc 	str.w	r1, [r3, #204]	; 0xcc
 8005e70:	f04f 0501 	mov.w	r5, #1
 8005e74:	f04f 0103 	mov.w	r1, #3
 8005e78:	f883 502c 	strb.w	r5, [r3, #44]	; 0x2c
 8005e7c:	f883 1084 	strb.w	r1, [r3, #132]	; 0x84
 8005e80:	f103 0558 	add.w	r5, r3, #88	; 0x58
 8005e84:	f103 01b0 	add.w	r1, r3, #176	; 0xb0
 8005e88:	64dd      	str	r5, [r3, #76]	; 0x4c
 8005e8a:	f8c3 50a0 	str.w	r5, [r3, #160]	; 0xa0
 8005e8e:	f8c3 10a4 	str.w	r1, [r3, #164]	; 0xa4
 8005e92:	f8c3 10f8 	str.w	r1, [r3, #248]	; 0xf8
 8005e96:	f04f 0504 	mov.w	r5, #4
 8005e9a:	f04f 0105 	mov.w	r1, #5
 8005e9e:	f883 50b0 	strb.w	r5, [r3, #176]	; 0xb0
 8005ea2:	f883 10dc 	strb.w	r1, [r3, #220]	; 0xdc
 8005ea6:	f103 05dc 	add.w	r5, r3, #220	; 0xdc
 8005eaa:	f503 7184 	add.w	r1, r3, #264	; 0x108
 8005eae:	f8c3 50d0 	str.w	r5, [r3, #208]	; 0xd0
 8005eb2:	f8c3 5124 	str.w	r5, [r3, #292]	; 0x124
 8005eb6:	f8c3 10fc 	str.w	r1, [r3, #252]	; 0xfc
 8005eba:	f8c3 1150 	str.w	r1, [r3, #336]	; 0x150
 8005ebe:	f04f 0506 	mov.w	r5, #6
 8005ec2:	f04f 0107 	mov.w	r1, #7
 8005ec6:	f883 5108 	strb.w	r5, [r3, #264]	; 0x108
 8005eca:	f883 1134 	strb.w	r1, [r3, #308]	; 0x134
 8005ece:	f503 759a 	add.w	r5, r3, #308	; 0x134
 8005ed2:	f503 71b0 	add.w	r1, r3, #352	; 0x160
 8005ed6:	f8c3 9044 	str.w	r9, [r3, #68]	; 0x44
 8005eda:	f8c3 9070 	str.w	r9, [r3, #112]	; 0x70
 8005ede:	f8c3 909c 	str.w	r9, [r3, #156]	; 0x9c
 8005ee2:	f8c3 90c8 	str.w	r9, [r3, #200]	; 0xc8
 8005ee6:	f8c3 90f4 	str.w	r9, [r3, #244]	; 0xf4
 8005eea:	f8c3 9120 	str.w	r9, [r3, #288]	; 0x120
 8005eee:	f8c3 914c 	str.w	r9, [r3, #332]	; 0x14c
 8005ef2:	f8c3 5128 	str.w	r5, [r3, #296]	; 0x128
 8005ef6:	649b      	str	r3, [r3, #72]	; 0x48
 8005ef8:	f8c3 1154 	str.w	r1, [r3, #340]	; 0x154
 8005efc:	f04f 0108 	mov.w	r1, #8
 8005f00:	f883 1160 	strb.w	r1, [r3, #352]	; 0x160
 8005f04:	49b6      	ldr	r1, [pc, #728]	; (80061e0 <MENU_Fill+0x3a8>)
 8005f06:	6159      	str	r1, [r3, #20]
 8005f08:	e9c3 955e 	strd	r9, r5, [r3, #376]	; 0x178
 8005f0c:	49b5      	ldr	r1, [pc, #724]	; (80061e4 <MENU_Fill+0x3ac>)
 8005f0e:	6419      	str	r1, [r3, #64]	; 0x40
 8005f10:	f04f 0900 	mov.w	r9, #0
 8005f14:	f8c3 9180 	str.w	r9, [r3, #384]	; 0x180
 8005f18:	49b3      	ldr	r1, [pc, #716]	; (80061e8 <MENU_Fill+0x3b0>)
 8005f1a:	66d9      	str	r1, [r3, #108]	; 0x6c
 8005f1c:	f04f 0901 	mov.w	r9, #1
 8005f20:	f883 9011 	strb.w	r9, [r3, #17]
 8005f24:	49b1      	ldr	r1, [pc, #708]	; (80061ec <MENU_Fill+0x3b4>)
 8005f26:	f8c3 1098 	str.w	r1, [r3, #152]	; 0x98
 8005f2a:	f04f 0902 	mov.w	r9, #2
 8005f2e:	f883 903d 	strb.w	r9, [r3, #61]	; 0x3d
 8005f32:	49af      	ldr	r1, [pc, #700]	; (80061f0 <MENU_Fill+0x3b8>)
 8005f34:	f8c3 10c4 	str.w	r1, [r3, #196]	; 0xc4
 8005f38:	f04f 0903 	mov.w	r9, #3
 8005f3c:	f883 9069 	strb.w	r9, [r3, #105]	; 0x69
 8005f40:	49ac      	ldr	r1, [pc, #688]	; (80061f4 <MENU_Fill+0x3bc>)
 8005f42:	f8c3 10f0 	str.w	r1, [r3, #240]	; 0xf0
 8005f46:	f04f 0904 	mov.w	r9, #4
 8005f4a:	f883 9095 	strb.w	r9, [r3, #149]	; 0x95
 8005f4e:	49aa      	ldr	r1, [pc, #680]	; (80061f8 <MENU_Fill+0x3c0>)
 8005f50:	f8c3 111c 	str.w	r1, [r3, #284]	; 0x11c
 8005f54:	f04f 0905 	mov.w	r9, #5
 8005f58:	f883 90c1 	strb.w	r9, [r3, #193]	; 0xc1
 8005f5c:	49a7      	ldr	r1, [pc, #668]	; (80061fc <MENU_Fill+0x3c4>)
 8005f5e:	4da8      	ldr	r5, [pc, #672]	; (8006200 <MENU_Fill+0x3c8>)
 8005f60:	4ca8      	ldr	r4, [pc, #672]	; (8006204 <MENU_Fill+0x3cc>)
 8005f62:	4fa9      	ldr	r7, [pc, #676]	; (8006208 <MENU_Fill+0x3d0>)
 8005f64:	4ea9      	ldr	r6, [pc, #676]	; (800620c <MENU_Fill+0x3d4>)
 8005f66:	f8c3 1148 	str.w	r1, [r3, #328]	; 0x148
 8005f6a:	f04f 0906 	mov.w	r9, #6
 8005f6e:	49a8      	ldr	r1, [pc, #672]	; (8006210 <MENU_Fill+0x3d8>)
 8005f70:	f883 90ed 	strb.w	r9, [r3, #237]	; 0xed
 8005f74:	f8c3 50a8 	str.w	r5, [r3, #168]	; 0xa8
 8005f78:	f8df b2d8 	ldr.w	fp, [pc, #728]	; 8006254 <MENU_Fill+0x41c>
 8005f7c:	4da5      	ldr	r5, [pc, #660]	; (8006214 <MENU_Fill+0x3dc>)
 8005f7e:	f8c3 b028 	str.w	fp, [r3, #40]	; 0x28
 8005f82:	f04f 0907 	mov.w	r9, #7
 8005f86:	f883 9119 	strb.w	r9, [r3, #281]	; 0x119
 8005f8a:	651f      	str	r7, [r3, #80]	; 0x50
 8005f8c:	f8c3 c024 	str.w	ip, [r3, #36]	; 0x24
 8005f90:	6559      	str	r1, [r3, #84]	; 0x54
 8005f92:	f8c3 1080 	str.w	r1, [r3, #128]	; 0x80
 8005f96:	f8c3 10ac 	str.w	r1, [r3, #172]	; 0xac
 8005f9a:	f8c3 10d8 	str.w	r1, [r3, #216]	; 0xd8
 8005f9e:	f8c3 1104 	str.w	r1, [r3, #260]	; 0x104
 8005fa2:	f8c3 1130 	str.w	r1, [r3, #304]	; 0x130
 8005fa6:	67de      	str	r6, [r3, #124]	; 0x7c
 8005fa8:	f8c3 40d4 	str.w	r4, [r3, #212]	; 0xd4
 8005fac:	f8c3 0100 	str.w	r0, [r3, #256]	; 0x100
 8005fb0:	f8c3 512c 	str.w	r5, [r3, #300]	; 0x12c
 8005fb4:	f50c 7584 	add.w	r5, ip, #264	; 0x108
 8005fb8:	f8cc 50fc 	str.w	r5, [ip, #252]	; 0xfc
 8005fbc:	f8c3 115c 	str.w	r1, [r3, #348]	; 0x15c
 8005fc0:	f8c3 1188 	str.w	r1, [r3, #392]	; 0x188
 8005fc4:	f04f 0508 	mov.w	r5, #8
 8005fc8:	2100      	movs	r1, #0
 8005fca:	f883 5145 	strb.w	r5, [r3, #325]	; 0x145
 8005fce:	f8cc 101c 	str.w	r1, [ip, #28]
 8005fd2:	f04f 0504 	mov.w	r5, #4
 8005fd6:	f04f 0106 	mov.w	r1, #6
 8005fda:	f88c 50b0 	strb.w	r5, [ip, #176]	; 0xb0
 8005fde:	f88c 1108 	strb.w	r1, [ip, #264]	; 0x108
 8005fe2:	f04f 0505 	mov.w	r5, #5
 8005fe6:	2100      	movs	r1, #0
 8005fe8:	f88c 50dc 	strb.w	r5, [ip, #220]	; 0xdc
 8005fec:	f8cc 1128 	str.w	r1, [ip, #296]	; 0x128
 8005ff0:	f10c 052c 	add.w	r5, ip, #44	; 0x2c
 8005ff4:	4988      	ldr	r1, [pc, #544]	; (8006218 <MENU_Fill+0x3e0>)
 8005ff6:	f8df e260 	ldr.w	lr, [pc, #608]	; 8006258 <MENU_Fill+0x420>
 8005ffa:	f8df 8260 	ldr.w	r8, [pc, #608]	; 800625c <MENU_Fill+0x424>
 8005ffe:	f8c3 1174 	str.w	r1, [r3, #372]	; 0x174
 8006002:	f8cc 5020 	str.w	r5, [ip, #32]
 8006006:	f8cc 5074 	str.w	r5, [ip, #116]	; 0x74
 800600a:	4984      	ldr	r1, [pc, #528]	; (800621c <MENU_Fill+0x3e4>)
 800600c:	f8c3 1184 	str.w	r1, [r3, #388]	; 0x184
 8006010:	f10c 0558 	add.w	r5, ip, #88	; 0x58
 8006014:	4982      	ldr	r1, [pc, #520]	; (8006220 <MENU_Fill+0x3e8>)
 8006016:	f8cc 8018 	str.w	r8, [ip, #24]
 800601a:	f10c 09dc 	add.w	r9, ip, #220	; 0xdc
 800601e:	f10c 0b84 	add.w	fp, ip, #132	; 0x84
 8006022:	f8cc 8044 	str.w	r8, [ip, #68]	; 0x44
 8006026:	f8cc 8070 	str.w	r8, [ip, #112]	; 0x70
 800602a:	f8cc 809c 	str.w	r8, [ip, #156]	; 0x9c
 800602e:	f8cc 80c8 	str.w	r8, [ip, #200]	; 0xc8
 8006032:	f8cc 80f4 	str.w	r8, [ip, #244]	; 0xf4
 8006036:	f8cc 8120 	str.w	r8, [ip, #288]	; 0x120
 800603a:	f8cc 504c 	str.w	r5, [ip, #76]	; 0x4c
 800603e:	f8cc 50a0 	str.w	r5, [ip, #160]	; 0xa0
 8006042:	f44f 7800 	mov.w	r8, #512	; 0x200
 8006046:	3558      	adds	r5, #88	; 0x58
 8006048:	f8c3 2158 	str.w	r2, [r3, #344]	; 0x158
 800604c:	f8cc e004 	str.w	lr, [ip, #4]
 8006050:	f8cc b078 	str.w	fp, [ip, #120]	; 0x78
 8006054:	f8cc b0cc 	str.w	fp, [ip, #204]	; 0xcc
 8006058:	f8cc 50a4 	str.w	r5, [ip, #164]	; 0xa4
 800605c:	f8cc 50f8 	str.w	r5, [ip, #248]	; 0xf8
 8006060:	f8cc 90d0 	str.w	r9, [ip, #208]	; 0xd0
 8006064:	f8cc 9124 	str.w	r9, [ip, #292]	; 0x124
 8006068:	f8cc 1014 	str.w	r1, [ip, #20]
 800606c:	f8cc c048 	str.w	ip, [ip, #72]	; 0x48
 8006070:	f8ac 8000 	strh.w	r8, [ip]
 8006074:	f8cc 312c 	str.w	r3, [ip, #300]	; 0x12c
 8006078:	f10e 0302 	add.w	r3, lr, #2
 800607c:	f8cc 3030 	str.w	r3, [ip, #48]	; 0x30
 8006080:	f10e 0303 	add.w	r3, lr, #3
 8006084:	f8cc 3038 	str.w	r3, [ip, #56]	; 0x38
 8006088:	3301      	adds	r3, #1
 800608a:	f8cc 305c 	str.w	r3, [ip, #92]	; 0x5c
 800608e:	3301      	adds	r3, #1
 8006090:	f8cc 3064 	str.w	r3, [ip, #100]	; 0x64
 8006094:	3301      	adds	r3, #1
 8006096:	f8cc 3088 	str.w	r3, [ip, #136]	; 0x88
 800609a:	4b62      	ldr	r3, [pc, #392]	; (8006224 <MENU_Fill+0x3ec>)
 800609c:	f8cc 3040 	str.w	r3, [ip, #64]	; 0x40
 80060a0:	f240 2301 	movw	r3, #513	; 0x201
 80060a4:	f8ac 302c 	strh.w	r3, [ip, #44]	; 0x2c
 80060a8:	4b5f      	ldr	r3, [pc, #380]	; (8006228 <MENU_Fill+0x3f0>)
 80060aa:	f8cc 306c 	str.w	r3, [ip, #108]	; 0x6c
 80060ae:	f240 2302 	movw	r3, #514	; 0x202
 80060b2:	f8ac 3058 	strh.w	r3, [ip, #88]	; 0x58
 80060b6:	f240 2303 	movw	r3, #515	; 0x203
 80060ba:	f8ac 3084 	strh.w	r3, [ip, #132]	; 0x84
 80060be:	4b5b      	ldr	r3, [pc, #364]	; (800622c <MENU_Fill+0x3f4>)
 80060c0:	f8cc 30c4 	str.w	r3, [ip, #196]	; 0xc4
 80060c4:	f10e 0501 	add.w	r5, lr, #1
 80060c8:	4b59      	ldr	r3, [pc, #356]	; (8006230 <MENU_Fill+0x3f8>)
 80060ca:	f8cc 500c 	str.w	r5, [ip, #12]
 80060ce:	f8cc 30d8 	str.w	r3, [ip, #216]	; 0xd8
 80060d2:	f10c 05b0 	add.w	r5, ip, #176	; 0xb0
 80060d6:	4b57      	ldr	r3, [pc, #348]	; (8006234 <MENU_Fill+0x3fc>)
 80060d8:	f8cc 50d4 	str.w	r5, [ip, #212]	; 0xd4
 80060dc:	f8cc 30f0 	str.w	r3, [ip, #240]	; 0xf0
 80060e0:	f04f 0500 	mov.w	r5, #0
 80060e4:	4b54      	ldr	r3, [pc, #336]	; (8006238 <MENU_Fill+0x400>)
 80060e6:	f88c 50b8 	strb.w	r5, [ip, #184]	; 0xb8
 80060ea:	f8cc 3104 	str.w	r3, [ip, #260]	; 0x104
 80060ee:	f04f 0501 	mov.w	r5, #1
 80060f2:	4b52      	ldr	r3, [pc, #328]	; (800623c <MENU_Fill+0x404>)
 80060f4:	f8cc 9100 	str.w	r9, [ip, #256]	; 0x100
 80060f8:	f04f 0803 	mov.w	r8, #3
 80060fc:	f04f 0903 	mov.w	r9, #3
 8006100:	f10e 0b07 	add.w	fp, lr, #7
 8006104:	f88c 8008 	strb.w	r8, [ip, #8]
 8006108:	f88c 50c1 	strb.w	r5, [ip, #193]	; 0xc1
 800610c:	f44f 788f 	mov.w	r8, #286	; 0x11e
 8006110:	f88c 50ed 	strb.w	r5, [ip, #237]	; 0xed
 8006114:	f8cc 311c 	str.w	r3, [ip, #284]	; 0x11c
 8006118:	4d49      	ldr	r5, [pc, #292]	; (8006240 <MENU_Fill+0x408>)
 800611a:	4b4a      	ldr	r3, [pc, #296]	; (8006244 <MENU_Fill+0x40c>)
 800611c:	f88c 9034 	strb.w	r9, [ip, #52]	; 0x34
 8006120:	f88c 9060 	strb.w	r9, [ip, #96]	; 0x60
 8006124:	f88c 908c 	strb.w	r9, [ip, #140]	; 0x8c
 8006128:	f8cc b090 	str.w	fp, [ip, #144]	; 0x90
 800612c:	f8ac 8010 	strh.w	r8, [ip, #16]
 8006130:	f8ac 803c 	strh.w	r8, [ip, #60]	; 0x3c
 8006134:	f8ac 8068 	strh.w	r8, [ip, #104]	; 0x68
 8006138:	f8ac 8094 	strh.w	r8, [ip, #148]	; 0x94
 800613c:	f8cc 5098 	str.w	r5, [ip, #152]	; 0x98
 8006140:	f8cc 3130 	str.w	r3, [ip, #304]	; 0x130
 8006144:	f04f 0301 	mov.w	r3, #1
 8006148:	f88c 3119 	strb.w	r3, [ip, #281]	; 0x119
 800614c:	f507 7384 	add.w	r3, r7, #264	; 0x108
 8006150:	f8c7 30fc 	str.w	r3, [r7, #252]	; 0xfc
 8006154:	2300      	movs	r3, #0
 8006156:	61fb      	str	r3, [r7, #28]
 8006158:	f04f 0304 	mov.w	r3, #4
 800615c:	f887 30b0 	strb.w	r3, [r7, #176]	; 0xb0
 8006160:	f04f 0305 	mov.w	r3, #5
 8006164:	f887 30dc 	strb.w	r3, [r7, #220]	; 0xdc
 8006168:	f04f 0306 	mov.w	r3, #6
 800616c:	f887 3108 	strb.w	r3, [r7, #264]	; 0x108
 8006170:	2300      	movs	r3, #0
 8006172:	464d      	mov	r5, r9
 8006174:	f10e 0886 	add.w	r8, lr, #134	; 0x86
 8006178:	f10e 0c87 	add.w	ip, lr, #135	; 0x87
 800617c:	f8c7 3128 	str.w	r3, [r7, #296]	; 0x128
 8006180:	f887 9008 	strb.w	r9, [r7, #8]
 8006184:	f44f 7300 	mov.w	r3, #512	; 0x200
 8006188:	f240 2901 	movw	r9, #513	; 0x201
 800618c:	803b      	strh	r3, [r7, #0]
 800618e:	f8a7 902c 	strh.w	r9, [r7, #44]	; 0x2c
 8006192:	f8c7 8004 	str.w	r8, [r7, #4]
 8006196:	f107 092c 	add.w	r9, r7, #44	; 0x2c
 800619a:	f107 0858 	add.w	r8, r7, #88	; 0x58
 800619e:	f8c7 c00c 	str.w	ip, [r7, #12]
 80061a2:	4b20      	ldr	r3, [pc, #128]	; (8006224 <MENU_Fill+0x3ec>)
 80061a4:	643b      	str	r3, [r7, #64]	; 0x40
 80061a6:	f107 0c84 	add.w	ip, r7, #132	; 0x84
 80061aa:	4b27      	ldr	r3, [pc, #156]	; (8006248 <MENU_Fill+0x410>)
 80061ac:	f8c7 9020 	str.w	r9, [r7, #32]
 80061b0:	f8c7 9074 	str.w	r9, [r7, #116]	; 0x74
 80061b4:	f8c7 804c 	str.w	r8, [r7, #76]	; 0x4c
 80061b8:	f107 09b0 	add.w	r9, r7, #176	; 0xb0
 80061bc:	f8c7 80a0 	str.w	r8, [r7, #160]	; 0xa0
 80061c0:	f8c7 c078 	str.w	ip, [r7, #120]	; 0x78
 80061c4:	f107 08dc 	add.w	r8, r7, #220	; 0xdc
 80061c8:	f8c7 c0cc 	str.w	ip, [r7, #204]	; 0xcc
 80061cc:	f240 2c1e 	movw	ip, #542	; 0x21e
 80061d0:	6179      	str	r1, [r7, #20]
 80061d2:	e045      	b.n	8006260 <MENU_Fill+0x428>
 80061d4:	2000234c 	.word	0x2000234c
 80061d8:	20001f00 	.word	0x20001f00
 80061dc:	2000276c 	.word	0x2000276c
 80061e0:	08008674 	.word	0x08008674
 80061e4:	0800867c 	.word	0x0800867c
 80061e8:	08008684 	.word	0x08008684
 80061ec:	0800868c 	.word	0x0800868c
 80061f0:	08008694 	.word	0x08008694
 80061f4:	0800869c 	.word	0x0800869c
 80061f8:	080086a4 	.word	0x080086a4
 80061fc:	080086ac 	.word	0x080086ac
 8006200:	20001d48 	.word	0x20001d48
 8006204:	20002b08 	.word	0x20002b08
 8006208:	20002d18 	.word	0x20002d18
 800620c:	20002194 	.word	0x20002194
 8006210:	080006d9 	.word	0x080006d9
 8006214:	20001b64 	.word	0x20001b64
 8006218:	080086b4 	.word	0x080086b4
 800621c:	200024d8 	.word	0x200024d8
 8006220:	080086d0 	.word	0x080086d0
 8006224:	080086d8 	.word	0x080086d8
 8006228:	080086e0 	.word	0x080086e0
 800622c:	080086f0 	.word	0x080086f0
 8006230:	0800324d 	.word	0x0800324d
 8006234:	08008700 	.word	0x08008700
 8006238:	08003231 	.word	0x08003231
 800623c:	08008708 	.word	0x08008708
 8006240:	080086e8 	.word	0x080086e8
 8006244:	08003275 	.word	0x08003275
 8006248:	08008718 	.word	0x08008718
 800624c:	20002638 	.word	0x20002638
 8006250:	0800866c 	.word	0x0800866c
 8006254:	080006dd 	.word	0x080006dd
 8006258:	20001386 	.word	0x20001386
 800625c:	080086bc 	.word	0x080086bc
 8006260:	61bb      	str	r3, [r7, #24]
 8006262:	647b      	str	r3, [r7, #68]	; 0x44
 8006264:	673b      	str	r3, [r7, #112]	; 0x70
 8006266:	f8c7 309c 	str.w	r3, [r7, #156]	; 0x9c
 800626a:	f8c7 30c8 	str.w	r3, [r7, #200]	; 0xc8
 800626e:	f8c7 30f4 	str.w	r3, [r7, #244]	; 0xf4
 8006272:	f8c7 3120 	str.w	r3, [r7, #288]	; 0x120
 8006276:	f8c7 90a4 	str.w	r9, [r7, #164]	; 0xa4
 800627a:	f8c7 90f8 	str.w	r9, [r7, #248]	; 0xf8
 800627e:	f8c7 80d0 	str.w	r8, [r7, #208]	; 0xd0
 8006282:	f8c7 8124 	str.w	r8, [r7, #292]	; 0x124
 8006286:	64bf      	str	r7, [r7, #72]	; 0x48
 8006288:	f8a7 c010 	strh.w	ip, [r7, #16]
 800628c:	f8c7 90d4 	str.w	r9, [r7, #212]	; 0xd4
 8006290:	f887 5034 	strb.w	r5, [r7, #52]	; 0x34
 8006294:	46a9      	mov	r9, r5
 8006296:	4dde      	ldr	r5, [pc, #888]	; (8006610 <MENU_Fill+0x7d8>)
 8006298:	66fd      	str	r5, [r7, #108]	; 0x6c
 800629a:	f240 2502 	movw	r5, #514	; 0x202
 800629e:	f8a7 5058 	strh.w	r5, [r7, #88]	; 0x58
 80062a2:	4ddc      	ldr	r5, [pc, #880]	; (8006614 <MENU_Fill+0x7dc>)
 80062a4:	f8c7 5098 	str.w	r5, [r7, #152]	; 0x98
 80062a8:	f240 2503 	movw	r5, #515	; 0x203
 80062ac:	f8a7 5084 	strh.w	r5, [r7, #132]	; 0x84
 80062b0:	4dd9      	ldr	r5, [pc, #868]	; (8006618 <MENU_Fill+0x7e0>)
 80062b2:	f8c7 50c4 	str.w	r5, [r7, #196]	; 0xc4
 80062b6:	f04f 0501 	mov.w	r5, #1
 80062ba:	f887 50b8 	strb.w	r5, [r7, #184]	; 0xb8
 80062be:	4dd7      	ldr	r5, [pc, #860]	; (800661c <MENU_Fill+0x7e4>)
 80062c0:	f8c7 50d8 	str.w	r5, [r7, #216]	; 0xd8
 80062c4:	f04f 0502 	mov.w	r5, #2
 80062c8:	f887 50c1 	strb.w	r5, [r7, #193]	; 0xc1
 80062cc:	4dd4      	ldr	r5, [pc, #848]	; (8006620 <MENU_Fill+0x7e8>)
 80062ce:	f8c7 50f0 	str.w	r5, [r7, #240]	; 0xf0
 80062d2:	4dd4      	ldr	r5, [pc, #848]	; (8006624 <MENU_Fill+0x7ec>)
 80062d4:	f8c7 5104 	str.w	r5, [r7, #260]	; 0x104
 80062d8:	f04f 0502 	mov.w	r5, #2
 80062dc:	f8c7 8100 	str.w	r8, [r7, #256]	; 0x100
 80062e0:	f887 50ed 	strb.w	r5, [r7, #237]	; 0xed
 80062e4:	f10e 0889 	add.w	r8, lr, #137	; 0x89
 80062e8:	4dcf      	ldr	r5, [pc, #828]	; (8006628 <MENU_Fill+0x7f0>)
 80062ea:	f8a7 c03c 	strh.w	ip, [r7, #60]	; 0x3c
 80062ee:	f10e 0388 	add.w	r3, lr, #136	; 0x88
 80062f2:	f8a7 c068 	strh.w	ip, [r7, #104]	; 0x68
 80062f6:	f8a7 c094 	strh.w	ip, [r7, #148]	; 0x94
 80062fa:	f8c7 511c 	str.w	r5, [r7, #284]	; 0x11c
 80062fe:	f10e 0c8a 	add.w	ip, lr, #138	; 0x8a
 8006302:	f8c7 8038 	str.w	r8, [r7, #56]	; 0x38
 8006306:	4dc9      	ldr	r5, [pc, #804]	; (800662c <MENU_Fill+0x7f4>)
 8006308:	633b      	str	r3, [r7, #48]	; 0x30
 800630a:	f10e 088b 	add.w	r8, lr, #139	; 0x8b
 800630e:	f8c7 5130 	str.w	r5, [r7, #304]	; 0x130
 8006312:	f8c7 c05c 	str.w	ip, [r7, #92]	; 0x5c
 8006316:	f8c7 8064 	str.w	r8, [r7, #100]	; 0x64
 800631a:	f10e 0c8c 	add.w	ip, lr, #140	; 0x8c
 800631e:	f10e 088d 	add.w	r8, lr, #141	; 0x8d
 8006322:	4bc3      	ldr	r3, [pc, #780]	; (8006630 <MENU_Fill+0x7f8>)
 8006324:	f8c7 312c 	str.w	r3, [r7, #300]	; 0x12c
 8006328:	f04f 0502 	mov.w	r5, #2
 800632c:	f506 7b84 	add.w	fp, r6, #264	; 0x108
 8006330:	f887 9060 	strb.w	r9, [r7, #96]	; 0x60
 8006334:	f887 908c 	strb.w	r9, [r7, #140]	; 0x8c
 8006338:	f887 5119 	strb.w	r5, [r7, #281]	; 0x119
 800633c:	f8c7 c088 	str.w	ip, [r7, #136]	; 0x88
 8006340:	2500      	movs	r5, #0
 8006342:	f8c7 8090 	str.w	r8, [r7, #144]	; 0x90
 8006346:	4fbb      	ldr	r7, [pc, #748]	; (8006634 <MENU_Fill+0x7fc>)
 8006348:	61f5      	str	r5, [r6, #28]
 800634a:	f106 082c 	add.w	r8, r6, #44	; 0x2c
 800634e:	61b7      	str	r7, [r6, #24]
 8006350:	6477      	str	r7, [r6, #68]	; 0x44
 8006352:	f8c6 8020 	str.w	r8, [r6, #32]
 8006356:	f8c6 b0fc 	str.w	fp, [r6, #252]	; 0xfc
 800635a:	f04f 0b04 	mov.w	fp, #4
 800635e:	f106 0c58 	add.w	ip, r6, #88	; 0x58
 8006362:	f886 b0b0 	strb.w	fp, [r6, #176]	; 0xb0
 8006366:	f04f 0b05 	mov.w	fp, #5
 800636a:	f8c6 c04c 	str.w	ip, [r6, #76]	; 0x4c
 800636e:	f8c6 8074 	str.w	r8, [r6, #116]	; 0x74
 8006372:	f8c6 c0a0 	str.w	ip, [r6, #160]	; 0xa0
 8006376:	f50e 7886 	add.w	r8, lr, #268	; 0x10c
 800637a:	f20e 1c0d 	addw	ip, lr, #269	; 0x10d
 800637e:	6737      	str	r7, [r6, #112]	; 0x70
 8006380:	f8c6 709c 	str.w	r7, [r6, #156]	; 0x9c
 8006384:	f8c6 70c8 	str.w	r7, [r6, #200]	; 0xc8
 8006388:	f886 b0dc 	strb.w	fp, [r6, #220]	; 0xdc
 800638c:	f8c6 70f4 	str.w	r7, [r6, #244]	; 0xf4
 8006390:	f8c6 7120 	str.w	r7, [r6, #288]	; 0x120
 8006394:	f04f 0b06 	mov.w	fp, #6
 8006398:	4fa7      	ldr	r7, [pc, #668]	; (8006638 <MENU_Fill+0x800>)
 800639a:	f886 b108 	strb.w	fp, [r6, #264]	; 0x108
 800639e:	f8c6 5128 	str.w	r5, [r6, #296]	; 0x128
 80063a2:	6437      	str	r7, [r6, #64]	; 0x40
 80063a4:	f8c6 8004 	str.w	r8, [r6, #4]
 80063a8:	f8c6 c00c 	str.w	ip, [r6, #12]
 80063ac:	f20e 180f 	addw	r8, lr, #271	; 0x10f
 80063b0:	f106 0c84 	add.w	ip, r6, #132	; 0x84
 80063b4:	f50e 7787 	add.w	r7, lr, #270	; 0x10e
 80063b8:	4d95      	ldr	r5, [pc, #596]	; (8006610 <MENU_Fill+0x7d8>)
 80063ba:	66f5      	str	r5, [r6, #108]	; 0x6c
 80063bc:	f44f 7b00 	mov.w	fp, #512	; 0x200
 80063c0:	f8a6 b000 	strh.w	fp, [r6]
 80063c4:	6337      	str	r7, [r6, #48]	; 0x30
 80063c6:	f8c6 8038 	str.w	r8, [r6, #56]	; 0x38
 80063ca:	f106 07b0 	add.w	r7, r6, #176	; 0xb0
 80063ce:	f106 08dc 	add.w	r8, r6, #220	; 0xdc
 80063d2:	f8c6 c078 	str.w	ip, [r6, #120]	; 0x78
 80063d6:	f8c6 c0cc 	str.w	ip, [r6, #204]	; 0xcc
 80063da:	f240 2b01 	movw	fp, #513	; 0x201
 80063de:	f240 3c1e 	movw	ip, #798	; 0x31e
 80063e2:	f240 2502 	movw	r5, #514	; 0x202
 80063e6:	6171      	str	r1, [r6, #20]
 80063e8:	f886 9008 	strb.w	r9, [r6, #8]
 80063ec:	f8a6 b02c 	strh.w	fp, [r6, #44]	; 0x2c
 80063f0:	f886 9034 	strb.w	r9, [r6, #52]	; 0x34
 80063f4:	f8c6 70a4 	str.w	r7, [r6, #164]	; 0xa4
 80063f8:	f8c6 70f8 	str.w	r7, [r6, #248]	; 0xf8
 80063fc:	f8c6 80d0 	str.w	r8, [r6, #208]	; 0xd0
 8006400:	f8c6 8124 	str.w	r8, [r6, #292]	; 0x124
 8006404:	f8a6 c010 	strh.w	ip, [r6, #16]
 8006408:	64b6      	str	r6, [r6, #72]	; 0x48
 800640a:	f8a6 c03c 	strh.w	ip, [r6, #60]	; 0x3c
 800640e:	f8a6 5058 	strh.w	r5, [r6, #88]	; 0x58
 8006412:	4d8a      	ldr	r5, [pc, #552]	; (800663c <MENU_Fill+0x804>)
 8006414:	f8c6 512c 	str.w	r5, [r6, #300]	; 0x12c
 8006418:	4d7e      	ldr	r5, [pc, #504]	; (8006614 <MENU_Fill+0x7dc>)
 800641a:	f8c6 5098 	str.w	r5, [r6, #152]	; 0x98
 800641e:	4d7e      	ldr	r5, [pc, #504]	; (8006618 <MENU_Fill+0x7e0>)
 8006420:	f8c6 50c4 	str.w	r5, [r6, #196]	; 0xc4
 8006424:	4d7d      	ldr	r5, [pc, #500]	; (800661c <MENU_Fill+0x7e4>)
 8006426:	f8c6 50d8 	str.w	r5, [r6, #216]	; 0xd8
 800642a:	4d7d      	ldr	r5, [pc, #500]	; (8006620 <MENU_Fill+0x7e8>)
 800642c:	f8c6 8100 	str.w	r8, [r6, #256]	; 0x100
 8006430:	f8c6 50f0 	str.w	r5, [r6, #240]	; 0xf0
 8006434:	f240 2803 	movw	r8, #515	; 0x203
 8006438:	4d7a      	ldr	r5, [pc, #488]	; (8006624 <MENU_Fill+0x7ec>)
 800643a:	f8c6 70d4 	str.w	r7, [r6, #212]	; 0xd4
 800643e:	f8a6 8084 	strh.w	r8, [r6, #132]	; 0x84
 8006442:	4f7f      	ldr	r7, [pc, #508]	; (8006640 <MENU_Fill+0x808>)
 8006444:	f8c6 5104 	str.w	r5, [r6, #260]	; 0x104
 8006448:	f04f 0802 	mov.w	r8, #2
 800644c:	4d76      	ldr	r5, [pc, #472]	; (8006628 <MENU_Fill+0x7f0>)
 800644e:	f886 80b8 	strb.w	r8, [r6, #184]	; 0xb8
 8006452:	f8c6 511c 	str.w	r5, [r6, #284]	; 0x11c
 8006456:	f04f 0800 	mov.w	r8, #0
 800645a:	4d74      	ldr	r5, [pc, #464]	; (800662c <MENU_Fill+0x7f4>)
 800645c:	f8a6 c068 	strh.w	ip, [r6, #104]	; 0x68
 8006460:	f8a6 c094 	strh.w	ip, [r6, #148]	; 0x94
 8006464:	f8c6 5130 	str.w	r5, [r6, #304]	; 0x130
 8006468:	f20e 1c11 	addw	ip, lr, #273	; 0x111
 800646c:	463d      	mov	r5, r7
 800646e:	f8c7 801c 	str.w	r8, [r7, #28]
 8006472:	64bf      	str	r7, [r7, #72]	; 0x48
 8006474:	f50e 7788 	add.w	r7, lr, #272	; 0x110
 8006478:	46cb      	mov	fp, r9
 800647a:	65f7      	str	r7, [r6, #92]	; 0x5c
 800647c:	f8c6 c064 	str.w	ip, [r6, #100]	; 0x64
 8006480:	f50e 7789 	add.w	r7, lr, #274	; 0x112
 8006484:	f20e 1c13 	addw	ip, lr, #275	; 0x113
 8006488:	b085      	sub	sp, #20
 800648a:	f886 b060 	strb.w	fp, [r6, #96]	; 0x60
 800648e:	f886 b08c 	strb.w	fp, [r6, #140]	; 0x8c
 8006492:	f886 b0c1 	strb.w	fp, [r6, #193]	; 0xc1
 8006496:	f886 b0ed 	strb.w	fp, [r6, #237]	; 0xed
 800649a:	f886 b119 	strb.w	fp, [r6, #281]	; 0x119
 800649e:	f8c6 7088 	str.w	r7, [r6, #136]	; 0x88
 80064a2:	f8c6 c090 	str.w	ip, [r6, #144]	; 0x90
 80064a6:	f105 062c 	add.w	r6, r5, #44	; 0x2c
 80064aa:	622e      	str	r6, [r5, #32]
 80064ac:	676e      	str	r6, [r5, #116]	; 0x74
 80064ae:	f105 0684 	add.w	r6, r5, #132	; 0x84
 80064b2:	4f64      	ldr	r7, [pc, #400]	; (8006644 <MENU_Fill+0x80c>)
 80064b4:	9601      	str	r6, [sp, #4]
 80064b6:	f105 0c58 	add.w	ip, r5, #88	; 0x58
 80064ba:	462e      	mov	r6, r5
 80064bc:	61af      	str	r7, [r5, #24]
 80064be:	646f      	str	r7, [r5, #68]	; 0x44
 80064c0:	672f      	str	r7, [r5, #112]	; 0x70
 80064c2:	f8c5 c04c 	str.w	ip, [r5, #76]	; 0x4c
 80064c6:	9d01      	ldr	r5, [sp, #4]
 80064c8:	67b5      	str	r5, [r6, #120]	; 0x78
 80064ca:	f506 7584 	add.w	r5, r6, #264	; 0x108
 80064ce:	f8c6 50fc 	str.w	r5, [r6, #252]	; 0xfc
 80064d2:	4635      	mov	r5, r6
 80064d4:	f8c6 709c 	str.w	r7, [r6, #156]	; 0x9c
 80064d8:	f8c5 70c8 	str.w	r7, [r5, #200]	; 0xc8
 80064dc:	f8c5 70f4 	str.w	r7, [r5, #244]	; 0xf4
 80064e0:	f8c5 7120 	str.w	r7, [r5, #288]	; 0x120
 80064e4:	2700      	movs	r7, #0
 80064e6:	f8c5 7128 	str.w	r7, [r5, #296]	; 0x128
 80064ea:	f44f 7700 	mov.w	r7, #512	; 0x200
 80064ee:	f8c6 c0a0 	str.w	ip, [r6, #160]	; 0xa0
 80064f2:	802f      	strh	r7, [r5, #0]
 80064f4:	f04f 0c04 	mov.w	ip, #4
 80064f8:	4f4f      	ldr	r7, [pc, #316]	; (8006638 <MENU_Fill+0x800>)
 80064fa:	f885 c0b0 	strb.w	ip, [r5, #176]	; 0xb0
 80064fe:	642f      	str	r7, [r5, #64]	; 0x40
 8006500:	f04f 0c05 	mov.w	ip, #5
 8006504:	f240 2701 	movw	r7, #513	; 0x201
 8006508:	9e01      	ldr	r6, [sp, #4]
 800650a:	f885 c0dc 	strb.w	ip, [r5, #220]	; 0xdc
 800650e:	85af      	strh	r7, [r5, #44]	; 0x2c
 8006510:	f04f 0c06 	mov.w	ip, #6
 8006514:	462f      	mov	r7, r5
 8006516:	f8c5 60cc 	str.w	r6, [r5, #204]	; 0xcc
 800651a:	f885 c108 	strb.w	ip, [r5, #264]	; 0x108
 800651e:	6169      	str	r1, [r5, #20]
 8006520:	f885 b008 	strb.w	fp, [r5, #8]
 8006524:	4639      	mov	r1, r7
 8006526:	f885 b034 	strb.w	fp, [r5, #52]	; 0x34
 800652a:	4d39      	ldr	r5, [pc, #228]	; (8006610 <MENU_Fill+0x7d8>)
 800652c:	66fd      	str	r5, [r7, #108]	; 0x6c
 800652e:	f20e 1693 	addw	r6, lr, #403	; 0x193
 8006532:	460d      	mov	r5, r1
 8006534:	f50e 7cca 	add.w	ip, lr, #404	; 0x194
 8006538:	f240 2702 	movw	r7, #514	; 0x202
 800653c:	f8a1 7058 	strh.w	r7, [r1, #88]	; 0x58
 8006540:	60ce      	str	r6, [r1, #12]
 8006542:	f8c1 c030 	str.w	ip, [r1, #48]	; 0x30
 8006546:	f50e 78c9 	add.w	r8, lr, #402	; 0x192
 800654a:	f20e 1795 	addw	r7, lr, #405	; 0x195
 800654e:	f50e 76cb 	add.w	r6, lr, #406	; 0x196
 8006552:	f20e 1c97 	addw	ip, lr, #407	; 0x197
 8006556:	f881 b060 	strb.w	fp, [r1, #96]	; 0x60
 800655a:	f8c1 8004 	str.w	r8, [r1, #4]
 800655e:	638f      	str	r7, [r1, #56]	; 0x38
 8006560:	65ce      	str	r6, [r1, #92]	; 0x5c
 8006562:	f101 07b0 	add.w	r7, r1, #176	; 0xb0
 8006566:	462e      	mov	r6, r5
 8006568:	31dc      	adds	r1, #220	; 0xdc
 800656a:	f8c5 c064 	str.w	ip, [r5, #100]	; 0x64
 800656e:	f240 4c1e 	movw	ip, #1054	; 0x41e
 8006572:	f8c5 70a4 	str.w	r7, [r5, #164]	; 0xa4
 8006576:	f8c5 70f8 	str.w	r7, [r5, #248]	; 0xf8
 800657a:	f8c5 10d0 	str.w	r1, [r5, #208]	; 0xd0
 800657e:	f8c5 1124 	str.w	r1, [r5, #292]	; 0x124
 8006582:	f8a5 c010 	strh.w	ip, [r5, #16]
 8006586:	f8a5 c03c 	strh.w	ip, [r5, #60]	; 0x3c
 800658a:	f8a5 c068 	strh.w	ip, [r5, #104]	; 0x68
 800658e:	4d21      	ldr	r5, [pc, #132]	; (8006614 <MENU_Fill+0x7dc>)
 8006590:	f8c6 5098 	str.w	r5, [r6, #152]	; 0x98
 8006594:	4d2c      	ldr	r5, [pc, #176]	; (8006648 <MENU_Fill+0x810>)
 8006596:	f8c6 512c 	str.w	r5, [r6, #300]	; 0x12c
 800659a:	4d1f      	ldr	r5, [pc, #124]	; (8006618 <MENU_Fill+0x7e0>)
 800659c:	f8c6 50c4 	str.w	r5, [r6, #196]	; 0xc4
 80065a0:	4d1e      	ldr	r5, [pc, #120]	; (800661c <MENU_Fill+0x7e4>)
 80065a2:	f8c6 50d8 	str.w	r5, [r6, #216]	; 0xd8
 80065a6:	4d1e      	ldr	r5, [pc, #120]	; (8006620 <MENU_Fill+0x7e8>)
 80065a8:	f8c6 50f0 	str.w	r5, [r6, #240]	; 0xf0
 80065ac:	f240 2803 	movw	r8, #515	; 0x203
 80065b0:	4d1c      	ldr	r5, [pc, #112]	; (8006624 <MENU_Fill+0x7ec>)
 80065b2:	f8a6 8084 	strh.w	r8, [r6, #132]	; 0x84
 80065b6:	f8c6 5104 	str.w	r5, [r6, #260]	; 0x104
 80065ba:	f04f 0803 	mov.w	r8, #3
 80065be:	4d1a      	ldr	r5, [pc, #104]	; (8006628 <MENU_Fill+0x7f0>)
 80065c0:	f8c6 70d4 	str.w	r7, [r6, #212]	; 0xd4
 80065c4:	f8c6 1100 	str.w	r1, [r6, #256]	; 0x100
 80065c8:	f50e 77cc 	add.w	r7, lr, #408	; 0x198
 80065cc:	f20e 1199 	addw	r1, lr, #409	; 0x199
 80065d0:	f886 808c 	strb.w	r8, [r6, #140]	; 0x8c
 80065d4:	f886 80b8 	strb.w	r8, [r6, #184]	; 0xb8
 80065d8:	f8c6 511c 	str.w	r5, [r6, #284]	; 0x11c
 80065dc:	f04f 0804 	mov.w	r8, #4
 80065e0:	4d12      	ldr	r5, [pc, #72]	; (800662c <MENU_Fill+0x7f4>)
 80065e2:	f8a6 c094 	strh.w	ip, [r6, #148]	; 0x94
 80065e6:	f886 80c1 	strb.w	r8, [r6, #193]	; 0xc1
 80065ea:	f886 80ed 	strb.w	r8, [r6, #237]	; 0xed
 80065ee:	f8c6 5130 	str.w	r5, [r6, #304]	; 0x130
 80065f2:	f886 8119 	strb.w	r8, [r6, #281]	; 0x119
 80065f6:	f104 052c 	add.w	r5, r4, #44	; 0x2c
 80065fa:	f884 80b0 	strb.w	r8, [r4, #176]	; 0xb0
 80065fe:	f8c6 7088 	str.w	r7, [r6, #136]	; 0x88
 8006602:	f104 0858 	add.w	r8, r4, #88	; 0x58
 8006606:	4f11      	ldr	r7, [pc, #68]	; (800664c <MENU_Fill+0x814>)
 8006608:	f8c6 1090 	str.w	r1, [r6, #144]	; 0x90
 800660c:	e020      	b.n	8006650 <MENU_Fill+0x818>
 800660e:	bf00      	nop
 8006610:	080086e0 	.word	0x080086e0
 8006614:	080086e8 	.word	0x080086e8
 8006618:	080086f0 	.word	0x080086f0
 800661c:	0800324d 	.word	0x0800324d
 8006620:	08008700 	.word	0x08008700
 8006624:	08003231 	.word	0x08003231
 8006628:	08008708 	.word	0x08008708
 800662c:	08003275 	.word	0x08003275
 8006630:	20002378 	.word	0x20002378
 8006634:	0800872c 	.word	0x0800872c
 8006638:	080086d8 	.word	0x080086d8
 800663c:	200023a4 	.word	0x200023a4
 8006640:	20001d48 	.word	0x20001d48
 8006644:	08008740 	.word	0x08008740
 8006648:	200023d0 	.word	0x200023d0
 800664c:	08008754 	.word	0x08008754
 8006650:	f04f 0c00 	mov.w	ip, #0
 8006654:	f104 01dc 	add.w	r1, r4, #220	; 0xdc
 8006658:	f8c4 c01c 	str.w	ip, [r4, #28]
 800665c:	61a7      	str	r7, [r4, #24]
 800665e:	6467      	str	r7, [r4, #68]	; 0x44
 8006660:	6727      	str	r7, [r4, #112]	; 0x70
 8006662:	f8c4 709c 	str.w	r7, [r4, #156]	; 0x9c
 8006666:	f8c4 70c8 	str.w	r7, [r4, #200]	; 0xc8
 800666a:	6225      	str	r5, [r4, #32]
 800666c:	6765      	str	r5, [r4, #116]	; 0x74
 800666e:	64a4      	str	r4, [r4, #72]	; 0x48
 8006670:	f8c4 804c 	str.w	r8, [r4, #76]	; 0x4c
 8006674:	f8c4 10d0 	str.w	r1, [r4, #208]	; 0xd0
 8006678:	f8c4 1124 	str.w	r1, [r4, #292]	; 0x124
 800667c:	f8c4 70f4 	str.w	r7, [r4, #244]	; 0xf4
 8006680:	f8c4 7120 	str.w	r7, [r4, #288]	; 0x120
 8006684:	49e0      	ldr	r1, [pc, #896]	; (8006a08 <MENU_Fill+0xbd0>)
 8006686:	6161      	str	r1, [r4, #20]
 8006688:	f04f 0703 	mov.w	r7, #3
 800668c:	4639      	mov	r1, r7
 800668e:	7227      	strb	r7, [r4, #8]
 8006690:	4fde      	ldr	r7, [pc, #888]	; (8006a0c <MENU_Fill+0xbd4>)
 8006692:	6427      	str	r7, [r4, #64]	; 0x40
 8006694:	4fde      	ldr	r7, [pc, #888]	; (8006a10 <MENU_Fill+0xbd8>)
 8006696:	66e7      	str	r7, [r4, #108]	; 0x6c
 8006698:	4fde      	ldr	r7, [pc, #888]	; (8006a14 <MENU_Fill+0xbdc>)
 800669a:	f8c4 7098 	str.w	r7, [r4, #152]	; 0x98
 800669e:	f104 0c84 	add.w	ip, r4, #132	; 0x84
 80066a2:	f50e 7706 	add.w	r7, lr, #536	; 0x218
 80066a6:	f8c4 c078 	str.w	ip, [r4, #120]	; 0x78
 80066aa:	f8c4 c0cc 	str.w	ip, [r4, #204]	; 0xcc
 80066ae:	6067      	str	r7, [r4, #4]
 80066b0:	f04f 0c05 	mov.w	ip, #5
 80066b4:	f20e 2719 	addw	r7, lr, #537	; 0x219
 80066b8:	f884 c0dc 	strb.w	ip, [r4, #220]	; 0xdc
 80066bc:	60e7      	str	r7, [r4, #12]
 80066be:	f04f 0c06 	mov.w	ip, #6
 80066c2:	f20e 271a 	addw	r7, lr, #538	; 0x21a
 80066c6:	f884 c108 	strb.w	ip, [r4, #264]	; 0x108
 80066ca:	6327      	str	r7, [r4, #48]	; 0x30
 80066cc:	f04f 0c00 	mov.w	ip, #0
 80066d0:	f20e 271b 	addw	r7, lr, #539	; 0x21b
 80066d4:	f8c4 c128 	str.w	ip, [r4, #296]	; 0x128
 80066d8:	63a7      	str	r7, [r4, #56]	; 0x38
 80066da:	f44f 7c00 	mov.w	ip, #512	; 0x200
 80066de:	f50e 7707 	add.w	r7, lr, #540	; 0x21c
 80066e2:	f8a4 c000 	strh.w	ip, [r4]
 80066e6:	65e7      	str	r7, [r4, #92]	; 0x5c
 80066e8:	f240 2c01 	movw	ip, #513	; 0x201
 80066ec:	f20e 271d 	addw	r7, lr, #541	; 0x21d
 80066f0:	f8a4 c02c 	strh.w	ip, [r4, #44]	; 0x2c
 80066f4:	6667      	str	r7, [r4, #100]	; 0x64
 80066f6:	f240 2c02 	movw	ip, #514	; 0x202
 80066fa:	f20e 271e 	addw	r7, lr, #542	; 0x21e
 80066fe:	f8c4 80a0 	str.w	r8, [r4, #160]	; 0xa0
 8006702:	f504 7584 	add.w	r5, r4, #264	; 0x108
 8006706:	f104 08b0 	add.w	r8, r4, #176	; 0xb0
 800670a:	f884 1034 	strb.w	r1, [r4, #52]	; 0x34
 800670e:	f8a4 c058 	strh.w	ip, [r4, #88]	; 0x58
 8006712:	f884 1060 	strb.w	r1, [r4, #96]	; 0x60
 8006716:	f884 108c 	strb.w	r1, [r4, #140]	; 0x8c
 800671a:	f8c4 7088 	str.w	r7, [r4, #136]	; 0x88
 800671e:	f104 01dc 	add.w	r1, r4, #220	; 0xdc
 8006722:	f20e 271f 	addw	r7, lr, #543	; 0x21f
 8006726:	f240 2c03 	movw	ip, #515	; 0x203
 800672a:	f8c4 80a4 	str.w	r8, [r4, #164]	; 0xa4
 800672e:	f8c4 50fc 	str.w	r5, [r4, #252]	; 0xfc
 8006732:	f8c4 80f8 	str.w	r8, [r4, #248]	; 0xf8
 8006736:	f8a4 c084 	strh.w	ip, [r4, #132]	; 0x84
 800673a:	f8c4 7090 	str.w	r7, [r4, #144]	; 0x90
 800673e:	f8c4 1100 	str.w	r1, [r4, #256]	; 0x100
 8006742:	49b5      	ldr	r1, [pc, #724]	; (8006a18 <MENU_Fill+0xbe0>)
 8006744:	f8c4 10c4 	str.w	r1, [r4, #196]	; 0xc4
 8006748:	49b4      	ldr	r1, [pc, #720]	; (8006a1c <MENU_Fill+0xbe4>)
 800674a:	f8c4 10d8 	str.w	r1, [r4, #216]	; 0xd8
 800674e:	49b4      	ldr	r1, [pc, #720]	; (8006a20 <MENU_Fill+0xbe8>)
 8006750:	f8c4 10f0 	str.w	r1, [r4, #240]	; 0xf0
 8006754:	f240 571e 	movw	r7, #1310	; 0x51e
 8006758:	49b2      	ldr	r1, [pc, #712]	; (8006a24 <MENU_Fill+0xbec>)
 800675a:	8227      	strh	r7, [r4, #16]
 800675c:	87a7      	strh	r7, [r4, #60]	; 0x3c
 800675e:	f8a4 7068 	strh.w	r7, [r4, #104]	; 0x68
 8006762:	f8a4 7094 	strh.w	r7, [r4, #148]	; 0x94
 8006766:	f8c4 80d4 	str.w	r8, [r4, #212]	; 0xd4
 800676a:	f8c4 1104 	str.w	r1, [r4, #260]	; 0x104
 800676e:	4fae      	ldr	r7, [pc, #696]	; (8006a28 <MENU_Fill+0xbf0>)
 8006770:	49ae      	ldr	r1, [pc, #696]	; (8006a2c <MENU_Fill+0xbf4>)
 8006772:	f8c4 712c 	str.w	r7, [r4, #300]	; 0x12c
 8006776:	f04f 0804 	mov.w	r8, #4
 800677a:	f500 7784 	add.w	r7, r0, #264	; 0x108
 800677e:	f884 80b8 	strb.w	r8, [r4, #184]	; 0xb8
 8006782:	f8c4 111c 	str.w	r1, [r4, #284]	; 0x11c
 8006786:	f04f 0805 	mov.w	r8, #5
 800678a:	49a9      	ldr	r1, [pc, #676]	; (8006a30 <MENU_Fill+0xbf8>)
 800678c:	f884 80c1 	strb.w	r8, [r4, #193]	; 0xc1
 8006790:	f884 80ed 	strb.w	r8, [r4, #237]	; 0xed
 8006794:	f8c4 1130 	str.w	r1, [r4, #304]	; 0x130
 8006798:	f884 8119 	strb.w	r8, [r4, #281]	; 0x119
 800679c:	f8c0 70fc 	str.w	r7, [r0, #252]	; 0xfc
 80067a0:	2400      	movs	r4, #0
 80067a2:	f100 072c 	add.w	r7, r0, #44	; 0x2c
 80067a6:	f100 0cb0 	add.w	ip, r0, #176	; 0xb0
 80067aa:	4641      	mov	r1, r8
 80067ac:	61c4      	str	r4, [r0, #28]
 80067ae:	f8df 8290 	ldr.w	r8, [pc, #656]	; 8006a40 <MENU_Fill+0xc08>
 80067b2:	6207      	str	r7, [r0, #32]
 80067b4:	6747      	str	r7, [r0, #116]	; 0x74
 80067b6:	f04f 0404 	mov.w	r4, #4
 80067ba:	f100 0758 	add.w	r7, r0, #88	; 0x58
 80067be:	f880 40b0 	strb.w	r4, [r0, #176]	; 0xb0
 80067c2:	f880 10dc 	strb.w	r1, [r0, #220]	; 0xdc
 80067c6:	f8c0 c0a4 	str.w	ip, [r0, #164]	; 0xa4
 80067ca:	f8c0 8018 	str.w	r8, [r0, #24]
 80067ce:	f8c0 8044 	str.w	r8, [r0, #68]	; 0x44
 80067d2:	f8c0 8070 	str.w	r8, [r0, #112]	; 0x70
 80067d6:	f8c0 809c 	str.w	r8, [r0, #156]	; 0x9c
 80067da:	f8c0 80c8 	str.w	r8, [r0, #200]	; 0xc8
 80067de:	f8c0 80f4 	str.w	r8, [r0, #244]	; 0xf4
 80067e2:	64c7      	str	r7, [r0, #76]	; 0x4c
 80067e4:	6480      	str	r0, [r0, #72]	; 0x48
 80067e6:	f8c0 70a0 	str.w	r7, [r0, #160]	; 0xa0
 80067ea:	f100 0784 	add.w	r7, r0, #132	; 0x84
 80067ee:	6787      	str	r7, [r0, #120]	; 0x78
 80067f0:	f8c0 70cc 	str.w	r7, [r0, #204]	; 0xcc
 80067f4:	f100 07dc 	add.w	r7, r0, #220	; 0xdc
 80067f8:	4639      	mov	r1, r7
 80067fa:	f8c0 70d0 	str.w	r7, [r0, #208]	; 0xd0
 80067fe:	f8c0 c0f8 	str.w	ip, [r0, #248]	; 0xf8
 8006802:	f20e 279e 	addw	r7, lr, #670	; 0x29e
 8006806:	f8c0 c0d4 	str.w	ip, [r0, #212]	; 0xd4
 800680a:	f04f 0c06 	mov.w	ip, #6
 800680e:	6047      	str	r7, [r0, #4]
 8006810:	f880 c108 	strb.w	ip, [r0, #264]	; 0x108
 8006814:	4f7d      	ldr	r7, [pc, #500]	; (8006a0c <MENU_Fill+0xbd4>)
 8006816:	6407      	str	r7, [r0, #64]	; 0x40
 8006818:	f20e 2c9f 	addw	ip, lr, #671	; 0x29f
 800681c:	f8c0 c00c 	str.w	ip, [r0, #12]
 8006820:	f240 2701 	movw	r7, #513	; 0x201
 8006824:	f50e 7c28 	add.w	ip, lr, #672	; 0x2a0
 8006828:	8587      	strh	r7, [r0, #44]	; 0x2c
 800682a:	f8c0 c030 	str.w	ip, [r0, #48]	; 0x30
 800682e:	4f78      	ldr	r7, [pc, #480]	; (8006a10 <MENU_Fill+0xbd8>)
 8006830:	66c7      	str	r7, [r0, #108]	; 0x6c
 8006832:	f20e 2ca1 	addw	ip, lr, #673	; 0x2a1
 8006836:	f8c0 c038 	str.w	ip, [r0, #56]	; 0x38
 800683a:	f240 2702 	movw	r7, #514	; 0x202
 800683e:	f20e 2ca2 	addw	ip, lr, #674	; 0x2a2
 8006842:	f8c0 8120 	str.w	r8, [r0, #288]	; 0x120
 8006846:	f8a0 7058 	strh.w	r7, [r0, #88]	; 0x58
 800684a:	f8c0 c05c 	str.w	ip, [r0, #92]	; 0x5c
 800684e:	4f71      	ldr	r7, [pc, #452]	; (8006a14 <MENU_Fill+0xbdc>)
 8006850:	f8c0 7098 	str.w	r7, [r0, #152]	; 0x98
 8006854:	f20e 2ca3 	addw	ip, lr, #675	; 0x2a3
 8006858:	f04f 0800 	mov.w	r8, #0
 800685c:	f8c0 8128 	str.w	r8, [r0, #296]	; 0x128
 8006860:	f8c0 c064 	str.w	ip, [r0, #100]	; 0x64
 8006864:	f44f 7800 	mov.w	r8, #512	; 0x200
 8006868:	f50e 7c29 	add.w	ip, lr, #676	; 0x2a4
 800686c:	f240 2703 	movw	r7, #515	; 0x203
 8006870:	f8c0 1124 	str.w	r1, [r0, #292]	; 0x124
 8006874:	f8a0 8000 	strh.w	r8, [r0]
 8006878:	f8a0 7084 	strh.w	r7, [r0, #132]	; 0x84
 800687c:	f04f 0803 	mov.w	r8, #3
 8006880:	f8c0 c088 	str.w	ip, [r0, #136]	; 0x88
 8006884:	4960      	ldr	r1, [pc, #384]	; (8006a08 <MENU_Fill+0xbd0>)
 8006886:	4f64      	ldr	r7, [pc, #400]	; (8006a18 <MENU_Fill+0xbe0>)
 8006888:	6141      	str	r1, [r0, #20]
 800688a:	f20e 2ca5 	addw	ip, lr, #677	; 0x2a5
 800688e:	f880 8008 	strb.w	r8, [r0, #8]
 8006892:	f880 8034 	strb.w	r8, [r0, #52]	; 0x34
 8006896:	f880 8060 	strb.w	r8, [r0, #96]	; 0x60
 800689a:	f880 808c 	strb.w	r8, [r0, #140]	; 0x8c
 800689e:	f8c0 70c4 	str.w	r7, [r0, #196]	; 0xc4
 80068a2:	f8c0 c090 	str.w	ip, [r0, #144]	; 0x90
 80068a6:	4f5d      	ldr	r7, [pc, #372]	; (8006a1c <MENU_Fill+0xbe4>)
 80068a8:	4962      	ldr	r1, [pc, #392]	; (8006a34 <MENU_Fill+0xbfc>)
 80068aa:	f8c0 70d8 	str.w	r7, [r0, #216]	; 0xd8
 80068ae:	f240 6c1e 	movw	ip, #1566	; 0x61e
 80068b2:	f04f 0805 	mov.w	r8, #5
 80068b6:	f880 80b8 	strb.w	r8, [r0, #184]	; 0xb8
 80068ba:	f8a0 c010 	strh.w	ip, [r0, #16]
 80068be:	f8a0 c03c 	strh.w	ip, [r0, #60]	; 0x3c
 80068c2:	f8a0 c068 	strh.w	ip, [r0, #104]	; 0x68
 80068c6:	f8a0 c094 	strh.w	ip, [r0, #148]	; 0x94
 80068ca:	f04f 0c06 	mov.w	ip, #6
 80068ce:	46e0      	mov	r8, ip
 80068d0:	f880 c0c1 	strb.w	ip, [r0, #193]	; 0xc1
 80068d4:	f501 7c84 	add.w	ip, r1, #264	; 0x108
 80068d8:	4951      	ldr	r1, [pc, #324]	; (8006a20 <MENU_Fill+0xbe8>)
 80068da:	f8c0 10f0 	str.w	r1, [r0, #240]	; 0xf0
 80068de:	4951      	ldr	r1, [pc, #324]	; (8006a24 <MENU_Fill+0xbec>)
 80068e0:	f8c0 1104 	str.w	r1, [r0, #260]	; 0x104
 80068e4:	4951      	ldr	r1, [pc, #324]	; (8006a2c <MENU_Fill+0xbf4>)
 80068e6:	f8c0 111c 	str.w	r1, [r0, #284]	; 0x11c
 80068ea:	4f53      	ldr	r7, [pc, #332]	; (8006a38 <MENU_Fill+0xc00>)
 80068ec:	4950      	ldr	r1, [pc, #320]	; (8006a30 <MENU_Fill+0xbf8>)
 80068ee:	f880 80ed 	strb.w	r8, [r0, #237]	; 0xed
 80068f2:	f880 8119 	strb.w	r8, [r0, #281]	; 0x119
 80068f6:	f8c0 712c 	str.w	r7, [r0, #300]	; 0x12c
 80068fa:	f1ac 08dc 	sub.w	r8, ip, #220	; 0xdc
 80068fe:	f100 07dc 	add.w	r7, r0, #220	; 0xdc
 8006902:	f8c0 1130 	str.w	r1, [r0, #304]	; 0x130
 8006906:	2100      	movs	r1, #0
 8006908:	f8c0 7100 	str.w	r7, [r0, #256]	; 0x100
 800690c:	4608      	mov	r0, r1
 800690e:	f1a8 012c 	sub.w	r1, r8, #44	; 0x2c
 8006912:	f848 0c10 	str.w	r0, [r8, #-16]
 8006916:	f04f 0004 	mov.w	r0, #4
 800691a:	f8c8 101c 	str.w	r1, [r8, #28]
 800691e:	f881 00b0 	strb.w	r0, [r1, #176]	; 0xb0
 8006922:	f04f 0105 	mov.w	r1, #5
 8006926:	f888 10b0 	strb.w	r1, [r8, #176]	; 0xb0
 800692a:	f04f 0006 	mov.w	r0, #6
 800692e:	2100      	movs	r1, #0
 8006930:	f888 00dc 	strb.w	r0, [r8, #220]	; 0xdc
 8006934:	4608      	mov	r0, r1
 8006936:	f1a8 012c 	sub.w	r1, r8, #44	; 0x2c
 800693a:	4f40      	ldr	r7, [pc, #256]	; (8006a3c <MENU_Fill+0xc04>)
 800693c:	f8c1 0128 	str.w	r0, [r1, #296]	; 0x128
 8006940:	f101 0058 	add.w	r0, r1, #88	; 0x58
 8006944:	618f      	str	r7, [r1, #24]
 8006946:	644f      	str	r7, [r1, #68]	; 0x44
 8006948:	670f      	str	r7, [r1, #112]	; 0x70
 800694a:	f8c1 709c 	str.w	r7, [r1, #156]	; 0x9c
 800694e:	f8c1 70c8 	str.w	r7, [r1, #200]	; 0xc8
 8006952:	f8c1 70f4 	str.w	r7, [r1, #244]	; 0xf4
 8006956:	f8c1 7120 	str.w	r7, [r1, #288]	; 0x120
 800695a:	64c8      	str	r0, [r1, #76]	; 0x4c
 800695c:	f101 07b0 	add.w	r7, r1, #176	; 0xb0
 8006960:	f8c1 00a0 	str.w	r0, [r1, #160]	; 0xa0
 8006964:	f8c1 c0fc 	str.w	ip, [r1, #252]	; 0xfc
 8006968:	4608      	mov	r0, r1
 800696a:	f101 0c84 	add.w	ip, r1, #132	; 0x84
 800696e:	f8c1 c078 	str.w	ip, [r1, #120]	; 0x78
 8006972:	f8c1 c0cc 	str.w	ip, [r1, #204]	; 0xcc
 8006976:	f8c1 8020 	str.w	r8, [r1, #32]
 800697a:	f8c1 8074 	str.w	r8, [r1, #116]	; 0x74
 800697e:	f8c1 70a4 	str.w	r7, [r1, #164]	; 0xa4
 8006982:	f8c1 70f8 	str.w	r7, [r1, #248]	; 0xf8
 8006986:	31dc      	adds	r1, #220	; 0xdc
 8006988:	f8c0 10d0 	str.w	r1, [r0, #208]	; 0xd0
 800698c:	f8c0 1124 	str.w	r1, [r0, #292]	; 0x124
 8006990:	491d      	ldr	r1, [pc, #116]	; (8006a08 <MENU_Fill+0xbd0>)
 8006992:	6141      	str	r1, [r0, #20]
 8006994:	f1a7 01b0 	sub.w	r1, r7, #176	; 0xb0
 8006998:	f50e 7049 	add.w	r0, lr, #804	; 0x324
 800699c:	f847 0cac 	str.w	r0, [r7, #-172]
 80069a0:	4608      	mov	r0, r1
 80069a2:	f8c1 70d4 	str.w	r7, [r1, #212]	; 0xd4
 80069a6:	31dc      	adds	r1, #220	; 0xdc
 80069a8:	f8c0 1100 	str.w	r1, [r0, #256]	; 0x100
 80069ac:	39dc      	subs	r1, #220	; 0xdc
 80069ae:	f44f 7000 	mov.w	r0, #512	; 0x200
 80069b2:	8008      	strh	r0, [r1, #0]
 80069b4:	f04f 0003 	mov.w	r0, #3
 80069b8:	7208      	strb	r0, [r1, #8]
 80069ba:	4814      	ldr	r0, [pc, #80]	; (8006a0c <MENU_Fill+0xbd4>)
 80069bc:	6408      	str	r0, [r1, #64]	; 0x40
 80069be:	f240 2001 	movw	r0, #513	; 0x201
 80069c2:	8588      	strh	r0, [r1, #44]	; 0x2c
 80069c4:	f04f 0003 	mov.w	r0, #3
 80069c8:	f881 0034 	strb.w	r0, [r1, #52]	; 0x34
 80069cc:	4810      	ldr	r0, [pc, #64]	; (8006a10 <MENU_Fill+0xbd8>)
 80069ce:	66c8      	str	r0, [r1, #108]	; 0x6c
 80069d0:	f240 2002 	movw	r0, #514	; 0x202
 80069d4:	f8a1 0058 	strh.w	r0, [r1, #88]	; 0x58
 80069d8:	f04f 0003 	mov.w	r0, #3
 80069dc:	f881 0060 	strb.w	r0, [r1, #96]	; 0x60
 80069e0:	480c      	ldr	r0, [pc, #48]	; (8006a14 <MENU_Fill+0xbdc>)
 80069e2:	f8c1 0098 	str.w	r0, [r1, #152]	; 0x98
 80069e6:	f240 2003 	movw	r0, #515	; 0x203
 80069ea:	f8a1 0084 	strh.w	r0, [r1, #132]	; 0x84
 80069ee:	f04f 0003 	mov.w	r0, #3
 80069f2:	f881 008c 	strb.w	r0, [r1, #140]	; 0x8c
 80069f6:	4808      	ldr	r0, [pc, #32]	; (8006a18 <MENU_Fill+0xbe0>)
 80069f8:	f8c1 00c4 	str.w	r0, [r1, #196]	; 0xc4
 80069fc:	f04f 0006 	mov.w	r0, #6
 8006a00:	f881 00b8 	strb.w	r0, [r1, #184]	; 0xb8
 8006a04:	e01e      	b.n	8006a44 <MENU_Fill+0xc0c>
 8006a06:	bf00      	nop
 8006a08:	080086d0 	.word	0x080086d0
 8006a0c:	080086d8 	.word	0x080086d8
 8006a10:	080086e0 	.word	0x080086e0
 8006a14:	080086e8 	.word	0x080086e8
 8006a18:	080086f0 	.word	0x080086f0
 8006a1c:	0800324d 	.word	0x0800324d
 8006a20:	08008700 	.word	0x08008700
 8006a24:	08003231 	.word	0x08003231
 8006a28:	200023fc 	.word	0x200023fc
 8006a2c:	08008708 	.word	0x08008708
 8006a30:	08003275 	.word	0x08003275
 8006a34:	20001b64 	.word	0x20001b64
 8006a38:	20002428 	.word	0x20002428
 8006a3c:	0800877c 	.word	0x0800877c
 8006a40:	08008768 	.word	0x08008768
 8006a44:	48d8      	ldr	r0, [pc, #864]	; (8006da8 <MENU_Fill+0xf70>)
 8006a46:	f8c1 00d8 	str.w	r0, [r1, #216]	; 0xd8
 8006a4a:	f04f 0007 	mov.w	r0, #7
 8006a4e:	f881 00c1 	strb.w	r0, [r1, #193]	; 0xc1
 8006a52:	48d6      	ldr	r0, [pc, #856]	; (8006dac <MENU_Fill+0xf74>)
 8006a54:	f8c1 00f0 	str.w	r0, [r1, #240]	; 0xf0
 8006a58:	48d5      	ldr	r0, [pc, #852]	; (8006db0 <MENU_Fill+0xf78>)
 8006a5a:	f8c1 0104 	str.w	r0, [r1, #260]	; 0x104
 8006a5e:	f04f 0007 	mov.w	r0, #7
 8006a62:	f20e 3825 	addw	r8, lr, #805	; 0x325
 8006a66:	f20e 3c26 	addw	ip, lr, #806	; 0x326
 8006a6a:	f20e 3727 	addw	r7, lr, #807	; 0x327
 8006a6e:	f881 00ed 	strb.w	r0, [r1, #237]	; 0xed
 8006a72:	4608      	mov	r0, r1
 8006a74:	f8c1 800c 	str.w	r8, [r1, #12]
 8006a78:	f8c1 c030 	str.w	ip, [r1, #48]	; 0x30
 8006a7c:	638f      	str	r7, [r1, #56]	; 0x38
 8006a7e:	f50e 714a 	add.w	r1, lr, #808	; 0x328
 8006a82:	65c1      	str	r1, [r0, #92]	; 0x5c
 8006a84:	49cb      	ldr	r1, [pc, #812]	; (8006db4 <MENU_Fill+0xf7c>)
 8006a86:	4bcc      	ldr	r3, [pc, #816]	; (8006db8 <MENU_Fill+0xf80>)
 8006a88:	4ecc      	ldr	r6, [pc, #816]	; (8006dbc <MENU_Fill+0xf84>)
 8006a8a:	4ccd      	ldr	r4, [pc, #820]	; (8006dc0 <MENU_Fill+0xf88>)
 8006a8c:	4dcd      	ldr	r5, [pc, #820]	; (8006dc4 <MENU_Fill+0xf8c>)
 8006a8e:	f8df b3a4 	ldr.w	fp, [pc, #932]	; 8006e34 <MENU_Fill+0xffc>
 8006a92:	f8df a3a4 	ldr.w	sl, [pc, #932]	; 8006e38 <MENU_Fill+0x1000>
 8006a96:	f8df 93a4 	ldr.w	r9, [pc, #932]	; 8006e3c <MENU_Fill+0x1004>
 8006a9a:	f20e 372b 	addw	r7, lr, #811	; 0x32b
 8006a9e:	f240 701e 	movw	r0, #1822	; 0x71e
 8006aa2:	f20e 3829 	addw	r8, lr, #809	; 0x329
 8006aa6:	f20e 3c2a 	addw	ip, lr, #810	; 0x32a
 8006aaa:	f8c1 7090 	str.w	r7, [r1, #144]	; 0x90
 8006aae:	4fc6      	ldr	r7, [pc, #792]	; (8006dc8 <MENU_Fill+0xf90>)
 8006ab0:	f8c1 8064 	str.w	r8, [r1, #100]	; 0x64
 8006ab4:	f8c1 c088 	str.w	ip, [r1, #136]	; 0x88
 8006ab8:	8208      	strh	r0, [r1, #16]
 8006aba:	f8c1 711c 	str.w	r7, [r1, #284]	; 0x11c
 8006abe:	4fc3      	ldr	r7, [pc, #780]	; (8006dcc <MENU_Fill+0xf94>)
 8006ac0:	f8c1 712c 	str.w	r7, [r1, #300]	; 0x12c
 8006ac4:	4fc2      	ldr	r7, [pc, #776]	; (8006dd0 <MENU_Fill+0xf98>)
 8006ac6:	f8c1 7130 	str.w	r7, [r1, #304]	; 0x130
 8006aca:	f04f 0707 	mov.w	r7, #7
 8006ace:	f881 7119 	strb.w	r7, [r1, #281]	; 0x119
 8006ad2:	2700      	movs	r7, #0
 8006ad4:	61d7      	str	r7, [r2, #28]
 8006ad6:	f04f 0704 	mov.w	r7, #4
 8006ada:	f882 70b0 	strb.w	r7, [r2, #176]	; 0xb0
 8006ade:	f04f 0705 	mov.w	r7, #5
 8006ae2:	f882 70dc 	strb.w	r7, [r2, #220]	; 0xdc
 8006ae6:	f04f 0706 	mov.w	r7, #6
 8006aea:	f882 7108 	strb.w	r7, [r2, #264]	; 0x108
 8006aee:	2700      	movs	r7, #0
 8006af0:	f8c2 7128 	str.w	r7, [r2, #296]	; 0x128
 8006af4:	4fb7      	ldr	r7, [pc, #732]	; (8006dd4 <MENU_Fill+0xf9c>)
 8006af6:	8788      	strh	r0, [r1, #60]	; 0x3c
 8006af8:	f8a1 0068 	strh.w	r0, [r1, #104]	; 0x68
 8006afc:	f8a1 0094 	strh.w	r0, [r1, #148]	; 0x94
 8006b00:	6157      	str	r7, [r2, #20]
 8006b02:	48b5      	ldr	r0, [pc, #724]	; (8006dd8 <MENU_Fill+0xfa0>)
 8006b04:	6190      	str	r0, [r2, #24]
 8006b06:	f04f 0703 	mov.w	r7, #3
 8006b0a:	7217      	strb	r7, [r2, #8]
 8006b0c:	6450      	str	r0, [r2, #68]	; 0x44
 8006b0e:	f502 7784 	add.w	r7, r2, #264	; 0x108
 8006b12:	6710      	str	r0, [r2, #112]	; 0x70
 8006b14:	f8c2 009c 	str.w	r0, [r2, #156]	; 0x9c
 8006b18:	f8c2 00c8 	str.w	r0, [r2, #200]	; 0xc8
 8006b1c:	f8c2 00f4 	str.w	r0, [r2, #244]	; 0xf4
 8006b20:	f8c2 0120 	str.w	r0, [r2, #288]	; 0x120
 8006b24:	f102 0058 	add.w	r0, r2, #88	; 0x58
 8006b28:	f102 0c2c 	add.w	ip, r2, #44	; 0x2c
 8006b2c:	f8c2 70fc 	str.w	r7, [r2, #252]	; 0xfc
 8006b30:	64d0      	str	r0, [r2, #76]	; 0x4c
 8006b32:	f20e 37ab 	addw	r7, lr, #939	; 0x3ab
 8006b36:	f8c2 00a0 	str.w	r0, [r2, #160]	; 0xa0
 8006b3a:	f102 0084 	add.w	r0, r2, #132	; 0x84
 8006b3e:	f20e 38aa 	addw	r8, lr, #938	; 0x3aa
 8006b42:	60d7      	str	r7, [r2, #12]
 8006b44:	f8c2 c020 	str.w	ip, [r2, #32]
 8006b48:	f50e 776c 	add.w	r7, lr, #944	; 0x3b0
 8006b4c:	f8c2 c074 	str.w	ip, [r2, #116]	; 0x74
 8006b50:	6790      	str	r0, [r2, #120]	; 0x78
 8006b52:	f20e 3caf 	addw	ip, lr, #943	; 0x3af
 8006b56:	f8c2 00cc 	str.w	r0, [r2, #204]	; 0xcc
 8006b5a:	f44f 7100 	mov.w	r1, #512	; 0x200
 8006b5e:	f102 00dc 	add.w	r0, r2, #220	; 0xdc
 8006b62:	f20e 3eb1 	addw	lr, lr, #945	; 0x3b1
 8006b66:	8011      	strh	r1, [r2, #0]
 8006b68:	f8c2 8004 	str.w	r8, [r2, #4]
 8006b6c:	6492      	str	r2, [r2, #72]	; 0x48
 8006b6e:	f8cd e004 	str.w	lr, [sp, #4]
 8006b72:	f8c2 00d0 	str.w	r0, [r2, #208]	; 0xd0
 8006b76:	f8c2 0124 	str.w	r0, [r2, #292]	; 0x124
 8006b7a:	4898      	ldr	r0, [pc, #608]	; (8006ddc <MENU_Fill+0xfa4>)
 8006b7c:	f8c2 012c 	str.w	r0, [r2, #300]	; 0x12c
 8006b80:	4897      	ldr	r0, [pc, #604]	; (8006de0 <MENU_Fill+0xfa8>)
 8006b82:	6410      	str	r0, [r2, #64]	; 0x40
 8006b84:	f04f 0003 	mov.w	r0, #3
 8006b88:	f882 0034 	strb.w	r0, [r2, #52]	; 0x34
 8006b8c:	4895      	ldr	r0, [pc, #596]	; (8006de4 <MENU_Fill+0xfac>)
 8006b8e:	66d0      	str	r0, [r2, #108]	; 0x6c
 8006b90:	f240 2002 	movw	r0, #514	; 0x202
 8006b94:	f8a2 0058 	strh.w	r0, [r2, #88]	; 0x58
 8006b98:	f04f 0003 	mov.w	r0, #3
 8006b9c:	f882 0060 	strb.w	r0, [r2, #96]	; 0x60
 8006ba0:	4891      	ldr	r0, [pc, #580]	; (8006de8 <MENU_Fill+0xfb0>)
 8006ba2:	f8c2 0098 	str.w	r0, [r2, #152]	; 0x98
 8006ba6:	f240 2003 	movw	r0, #515	; 0x203
 8006baa:	f8a2 0084 	strh.w	r0, [r2, #132]	; 0x84
 8006bae:	f04f 0003 	mov.w	r0, #3
 8006bb2:	f882 008c 	strb.w	r0, [r2, #140]	; 0x8c
 8006bb6:	488d      	ldr	r0, [pc, #564]	; (8006dec <MENU_Fill+0xfb4>)
 8006bb8:	f8c2 00c4 	str.w	r0, [r2, #196]	; 0xc4
 8006bbc:	487a      	ldr	r0, [pc, #488]	; (8006da8 <MENU_Fill+0xf70>)
 8006bbe:	f8c2 00d8 	str.w	r0, [r2, #216]	; 0xd8
 8006bc2:	487a      	ldr	r0, [pc, #488]	; (8006dac <MENU_Fill+0xf74>)
 8006bc4:	f8c2 00f0 	str.w	r0, [r2, #240]	; 0xf0
 8006bc8:	4879      	ldr	r0, [pc, #484]	; (8006db0 <MENU_Fill+0xf78>)
 8006bca:	f8c2 0104 	str.w	r0, [r2, #260]	; 0x104
 8006bce:	f640 081e 	movw	r8, #2078	; 0x81e
 8006bd2:	487d      	ldr	r0, [pc, #500]	; (8006dc8 <MENU_Fill+0xf90>)
 8006bd4:	f8a2 8010 	strh.w	r8, [r2, #16]
 8006bd8:	f8a2 803c 	strh.w	r8, [r2, #60]	; 0x3c
 8006bdc:	f8a2 8068 	strh.w	r8, [r2, #104]	; 0x68
 8006be0:	f8a2 8094 	strh.w	r8, [r2, #148]	; 0x94
 8006be4:	f8c2 011c 	str.w	r0, [r2, #284]	; 0x11c
 8006be8:	f04f 0807 	mov.w	r8, #7
 8006bec:	4878      	ldr	r0, [pc, #480]	; (8006dd0 <MENU_Fill+0xf98>)
 8006bee:	f882 80b8 	strb.w	r8, [r2, #184]	; 0xb8
 8006bf2:	f102 01b0 	add.w	r1, r2, #176	; 0xb0
 8006bf6:	f04f 0808 	mov.w	r8, #8
 8006bfa:	f8c2 0130 	str.w	r0, [r2, #304]	; 0x130
 8006bfe:	1f38      	subs	r0, r7, #4
 8006c00:	f8c2 10a4 	str.w	r1, [r2, #164]	; 0xa4
 8006c04:	f8c2 10f8 	str.w	r1, [r2, #248]	; 0xf8
 8006c08:	f8c2 10d4 	str.w	r1, [r2, #212]	; 0xd4
 8006c0c:	f882 80c1 	strb.w	r8, [r2, #193]	; 0xc1
 8006c10:	f102 01dc 	add.w	r1, r2, #220	; 0xdc
 8006c14:	f882 80ed 	strb.w	r8, [r2, #237]	; 0xed
 8006c18:	f882 8119 	strb.w	r8, [r2, #281]	; 0x119
 8006c1c:	6310      	str	r0, [r2, #48]	; 0x30
 8006c1e:	f04f 0800 	mov.w	r8, #0
 8006c22:	1ef8      	subs	r0, r7, #3
 8006c24:	f240 2e01 	movw	lr, #513	; 0x201
 8006c28:	f883 8000 	strb.w	r8, [r3]
 8006c2c:	f8c2 1100 	str.w	r1, [r2, #256]	; 0x100
 8006c30:	f8a2 e02c 	strh.w	lr, [r2, #44]	; 0x2c
 8006c34:	6390      	str	r0, [r2, #56]	; 0x38
 8006c36:	3001      	adds	r0, #1
 8006c38:	65d0      	str	r0, [r2, #92]	; 0x5c
 8006c3a:	9801      	ldr	r0, [sp, #4]
 8006c3c:	f8c2 0090 	str.w	r0, [r2, #144]	; 0x90
 8006c40:	f503 709a 	add.w	r0, r3, #308	; 0x134
 8006c44:	f8c3 0128 	str.w	r0, [r3, #296]	; 0x128
 8006c48:	f04f 0003 	mov.w	r0, #3
 8006c4c:	f8c2 7088 	str.w	r7, [r2, #136]	; 0x88
 8006c50:	f883 0084 	strb.w	r0, [r3, #132]	; 0x84
 8006c54:	4f66      	ldr	r7, [pc, #408]	; (8006df0 <MENU_Fill+0xfb8>)
 8006c56:	f8c2 c064 	str.w	ip, [r2, #100]	; 0x64
 8006c5a:	f04f 0002 	mov.w	r0, #2
 8006c5e:	f883 0058 	strb.w	r0, [r3, #88]	; 0x58
 8006c62:	f04f 0207 	mov.w	r2, #7
 8006c66:	f04f 0001 	mov.w	r0, #1
 8006c6a:	f107 082c 	add.w	r8, r7, #44	; 0x2c
 8006c6e:	f883 2134 	strb.w	r2, [r3, #308]	; 0x134
 8006c72:	4f60      	ldr	r7, [pc, #384]	; (8006df4 <MENU_Fill+0xfbc>)
 8006c74:	f883 002c 	strb.w	r0, [r3, #44]	; 0x2c
 8006c78:	f04f 0206 	mov.w	r2, #6
 8006c7c:	2000      	movs	r0, #0
 8006c7e:	f103 012c 	add.w	r1, r3, #44	; 0x2c
 8006c82:	f883 2108 	strb.w	r2, [r3, #264]	; 0x108
 8006c86:	61d8      	str	r0, [r3, #28]
 8006c88:	f8c3 0154 	str.w	r0, [r3, #340]	; 0x154
 8006c8c:	f04f 0205 	mov.w	r2, #5
 8006c90:	4859      	ldr	r0, [pc, #356]	; (8006df8 <MENU_Fill+0xfc0>)
 8006c92:	619f      	str	r7, [r3, #24]
 8006c94:	e9c3 1608 	strd	r1, r6, [r3, #32]
 8006c98:	f103 0e84 	add.w	lr, r3, #132	; 0x84
 8006c9c:	e9c3 7311 	strd	r7, r3, [r3, #68]	; 0x44
 8006ca0:	671f      	str	r7, [r3, #112]	; 0x70
 8006ca2:	f8c3 709c 	str.w	r7, [r3, #156]	; 0x9c
 8006ca6:	f8c3 70c8 	str.w	r7, [r3, #200]	; 0xc8
 8006caa:	f8c3 70f4 	str.w	r7, [r3, #244]	; 0xf4
 8006cae:	f8c3 7120 	str.w	r7, [r3, #288]	; 0x120
 8006cb2:	f8c3 714c 	str.w	r7, [r3, #332]	; 0x14c
 8006cb6:	f883 20dc 	strb.w	r2, [r3, #220]	; 0xdc
 8006cba:	6158      	str	r0, [r3, #20]
 8006cbc:	f103 0258 	add.w	r2, r3, #88	; 0x58
 8006cc0:	f103 00b0 	add.w	r0, r3, #176	; 0xb0
 8006cc4:	6759      	str	r1, [r3, #116]	; 0x74
 8006cc6:	f04f 0704 	mov.w	r7, #4
 8006cca:	494c      	ldr	r1, [pc, #304]	; (8006dfc <MENU_Fill+0xfc4>)
 8006ccc:	f883 70b0 	strb.w	r7, [r3, #176]	; 0xb0
 8006cd0:	64da      	str	r2, [r3, #76]	; 0x4c
 8006cd2:	f8c3 20a0 	str.w	r2, [r3, #160]	; 0xa0
 8006cd6:	f8c3 e078 	str.w	lr, [r3, #120]	; 0x78
 8006cda:	f8c3 e0cc 	str.w	lr, [r3, #204]	; 0xcc
 8006cde:	f8c3 00a4 	str.w	r0, [r3, #164]	; 0xa4
 8006ce2:	6419      	str	r1, [r3, #64]	; 0x40
 8006ce4:	4946      	ldr	r1, [pc, #280]	; (8006e00 <MENU_Fill+0xfc8>)
 8006ce6:	6559      	str	r1, [r3, #84]	; 0x54
 8006ce8:	4946      	ldr	r1, [pc, #280]	; (8006e04 <MENU_Fill+0xfcc>)
 8006cea:	66d9      	str	r1, [r3, #108]	; 0x6c
 8006cec:	2104      	movs	r1, #4
 8006cee:	9102      	str	r1, [sp, #8]
 8006cf0:	4945      	ldr	r1, [pc, #276]	; (8006e08 <MENU_Fill+0xfd0>)
 8006cf2:	f8c3 1080 	str.w	r1, [r3, #128]	; 0x80
 8006cf6:	4945      	ldr	r1, [pc, #276]	; (8006e0c <MENU_Fill+0xfd4>)
 8006cf8:	f8c3 1098 	str.w	r1, [r3, #152]	; 0x98
 8006cfc:	4944      	ldr	r1, [pc, #272]	; (8006e10 <MENU_Fill+0xfd8>)
 8006cfe:	f8c3 10ac 	str.w	r1, [r3, #172]	; 0xac
 8006d02:	4944      	ldr	r1, [pc, #272]	; (8006e14 <MENU_Fill+0xfdc>)
 8006d04:	f8c3 111c 	str.w	r1, [r3, #284]	; 0x11c
 8006d08:	f103 07dc 	add.w	r7, r3, #220	; 0xdc
 8006d0c:	f1a8 012c 	sub.w	r1, r8, #44	; 0x2c
 8006d10:	4a41      	ldr	r2, [pc, #260]	; (8006e18 <MENU_Fill+0xfe0>)
 8006d12:	f8c3 70d0 	str.w	r7, [r3, #208]	; 0xd0
 8006d16:	f8c3 7124 	str.w	r7, [r3, #292]	; 0x124
 8006d1a:	629a      	str	r2, [r3, #40]	; 0x28
 8006d1c:	460f      	mov	r7, r1
 8006d1e:	4a3f      	ldr	r2, [pc, #252]	; (8006e1c <MENU_Fill+0xfe4>)
 8006d20:	f8c3 00f8 	str.w	r0, [r3, #248]	; 0xf8
 8006d24:	f8c3 2158 	str.w	r2, [r3, #344]	; 0x158
 8006d28:	f503 7084 	add.w	r0, r3, #264	; 0x108
 8006d2c:	4a3c      	ldr	r2, [pc, #240]	; (8006e20 <MENU_Fill+0xfe8>)
 8006d2e:	f8c3 00fc 	str.w	r0, [r3, #252]	; 0xfc
 8006d32:	f04f 0e01 	mov.w	lr, #1
 8006d36:	3758      	adds	r7, #88	; 0x58
 8006d38:	f8c3 0150 	str.w	r0, [r3, #336]	; 0x150
 8006d3c:	f8c3 20f0 	str.w	r2, [r3, #240]	; 0xf0
 8006d40:	4838      	ldr	r0, [pc, #224]	; (8006e24 <MENU_Fill+0xfec>)
 8006d42:	f881 e02c 	strb.w	lr, [r1, #44]	; 0x2c
 8006d46:	2200      	movs	r2, #0
 8006d48:	f8c8 7020 	str.w	r7, [r8, #32]
 8006d4c:	f04f 0e02 	mov.w	lr, #2
 8006d50:	4f35      	ldr	r7, [pc, #212]	; (8006e28 <MENU_Fill+0xff0>)
 8006d52:	f8c3 00d8 	str.w	r0, [r3, #216]	; 0xd8
 8006d56:	f8c3 0104 	str.w	r0, [r3, #260]	; 0x104
 8006d5a:	f8c3 0130 	str.w	r0, [r3, #304]	; 0x130
 8006d5e:	f8c3 015c 	str.w	r0, [r3, #348]	; 0x15c
 8006d62:	651d      	str	r5, [r3, #80]	; 0x50
 8006d64:	f8c3 b07c 	str.w	fp, [r3, #124]	; 0x7c
 8006d68:	f8c3 40a8 	str.w	r4, [r3, #168]	; 0xa8
 8006d6c:	f8c3 112c 	str.w	r1, [r3, #300]	; 0x12c
 8006d70:	f808 2c2c 	strb.w	r2, [r8, #-44]
 8006d74:	f848 2c10 	str.w	r2, [r8, #-16]
 8006d78:	f8c8 101c 	str.w	r1, [r8, #28]
 8006d7c:	f888 e02c 	strb.w	lr, [r8, #44]	; 0x2c
 8006d80:	f8c8 204c 	str.w	r2, [r8, #76]	; 0x4c
 8006d84:	4618      	mov	r0, r3
 8006d86:	f848 8c0c 	str.w	r8, [r8, #-12]
 8006d8a:	f8c3 70c4 	str.w	r7, [r3, #196]	; 0xc4
 8006d8e:	4f27      	ldr	r7, [pc, #156]	; (8006e2c <MENU_Fill+0xff4>)
 8006d90:	4927      	ldr	r1, [pc, #156]	; (8006e30 <MENU_Fill+0xff8>)
 8006d92:	f8c3 1148 	str.w	r1, [r3, #328]	; 0x148
 8006d96:	30b0      	adds	r0, #176	; 0xb0
 8006d98:	67f8      	str	r0, [r7, #124]	; 0x7c
 8006d9a:	3058      	adds	r0, #88	; 0x58
 8006d9c:	f848 0c08 	str.w	r0, [r8, #-8]
 8006da0:	f8c8 0024 	str.w	r0, [r8, #36]	; 0x24
 8006da4:	e04c      	b.n	8006e40 <MENU_Fill+0x1008>
 8006da6:	bf00      	nop
 8006da8:	0800324d 	.word	0x0800324d
 8006dac:	08008700 	.word	0x08008700
 8006db0:	08003231 	.word	0x08003231
 8006db4:	20001b64 	.word	0x20001b64
 8006db8:	200024d8 	.word	0x200024d8
 8006dbc:	200028a0 	.word	0x200028a0
 8006dc0:	20001a88 	.word	0x20001a88
 8006dc4:	20002c3c 	.word	0x20002c3c
 8006dc8:	08008708 	.word	0x08008708
 8006dcc:	20002454 	.word	0x20002454
 8006dd0:	08003275 	.word	0x08003275
 8006dd4:	080086d0 	.word	0x080086d0
 8006dd8:	08008790 	.word	0x08008790
 8006ddc:	20002480 	.word	0x20002480
 8006de0:	080086d8 	.word	0x080086d8
 8006de4:	080086e0 	.word	0x080086e0
 8006de8:	080086e8 	.word	0x080086e8
 8006dec:	080086f0 	.word	0x080086f0
 8006df0:	20001e7c 	.word	0x20001e7c
 8006df4:	080086b4 	.word	0x080086b4
 8006df8:	080087a4 	.word	0x080087a4
 8006dfc:	080087ac 	.word	0x080087ac
 8006e00:	08000715 	.word	0x08000715
 8006e04:	080087b4 	.word	0x080087b4
 8006e08:	08000735 	.word	0x08000735
 8006e0c:	080087c4 	.word	0x080087c4
 8006e10:	0800074d 	.word	0x0800074d
 8006e14:	080087f0 	.word	0x080087f0
 8006e18:	080006ed 	.word	0x080006ed
 8006e1c:	200024ac 	.word	0x200024ac
 8006e20:	080087e8 	.word	0x080087e8
 8006e24:	080006d9 	.word	0x080006d9
 8006e28:	080087d4 	.word	0x080087d4
 8006e2c:	200022c8 	.word	0x200022c8
 8006e30:	08008800 	.word	0x08008800
 8006e34:	2000297c 	.word	0x2000297c
 8006e38:	200019ac 	.word	0x200019ac
 8006e3c:	20001c98 	.word	0x20001c98
 8006e40:	48cc      	ldr	r0, [pc, #816]	; (8007174 <MENU_Fill+0x133c>)
 8006e42:	61b8      	str	r0, [r7, #24]
 8006e44:	6478      	str	r0, [r7, #68]	; 0x44
 8006e46:	48cb      	ldr	r0, [pc, #812]	; (8007174 <MENU_Fill+0x133c>)
 8006e48:	6738      	str	r0, [r7, #112]	; 0x70
 8006e4a:	48cb      	ldr	r0, [pc, #812]	; (8007178 <MENU_Fill+0x1340>)
 8006e4c:	66f8      	str	r0, [r7, #108]	; 0x6c
 8006e4e:	48cb      	ldr	r0, [pc, #812]	; (800717c <MENU_Fill+0x1344>)
 8006e50:	f8c8 0028 	str.w	r0, [r8, #40]	; 0x28
 8006e54:	f1a8 012c 	sub.w	r1, r8, #44	; 0x2c
 8006e58:	f8c8 0054 	str.w	r0, [r8, #84]	; 0x54
 8006e5c:	9001      	str	r0, [sp, #4]
 8006e5e:	f8c7 0080 	str.w	r0, [r7, #128]	; 0x80
 8006e62:	f04f 0002 	mov.w	r0, #2
 8006e66:	f887 0058 	strb.w	r0, [r7, #88]	; 0x58
 8006e6a:	48c5      	ldr	r0, [pc, #788]	; (8007180 <MENU_Fill+0x1348>)
 8006e6c:	6148      	str	r0, [r1, #20]
 8006e6e:	48c5      	ldr	r0, [pc, #788]	; (8007184 <MENU_Fill+0x134c>)
 8006e70:	6288      	str	r0, [r1, #40]	; 0x28
 8006e72:	48c5      	ldr	r0, [pc, #788]	; (8007188 <MENU_Fill+0x1350>)
 8006e74:	6408      	str	r0, [r1, #64]	; 0x40
 8006e76:	48c5      	ldr	r0, [pc, #788]	; (800718c <MENU_Fill+0x1354>)
 8006e78:	f8df c35c 	ldr.w	ip, [pc, #860]	; 80071d8 <MENU_Fill+0x13a0>
 8006e7c:	66c8      	str	r0, [r1, #108]	; 0x6c
 8006e7e:	48c4      	ldr	r0, [pc, #784]	; (8007190 <MENU_Fill+0x1358>)
 8006e80:	f848 cc14 	str.w	ip, [r8, #-20]
 8006e84:	f8c8 c018 	str.w	ip, [r8, #24]
 8006e88:	f8c8 c044 	str.w	ip, [r8, #68]	; 0x44
 8006e8c:	6178      	str	r0, [r7, #20]
 8006e8e:	f8c8 8048 	str.w	r8, [r8, #72]	; 0x48
 8006e92:	48c0      	ldr	r0, [pc, #768]	; (8007194 <MENU_Fill+0x135c>)
 8006e94:	f8c8 8050 	str.w	r8, [r8, #80]	; 0x50
 8006e98:	f04f 0801 	mov.w	r8, #1
 8006e9c:	f107 012c 	add.w	r1, r7, #44	; 0x2c
 8006ea0:	f887 802c 	strb.w	r8, [r7, #44]	; 0x2c
 8006ea4:	6078      	str	r0, [r7, #4]
 8006ea6:	f44f 789e 	mov.w	r8, #316	; 0x13c
 8006eaa:	48bb      	ldr	r0, [pc, #748]	; (8007198 <MENU_Fill+0x1360>)
 8006eac:	f8c3 70d4 	str.w	r7, [r3, #212]	; 0xd4
 8006eb0:	f8c3 a100 	str.w	sl, [r3, #256]	; 0x100
 8006eb4:	61fa      	str	r2, [r7, #28]
 8006eb6:	67ba      	str	r2, [r7, #120]	; 0x78
 8006eb8:	f88a 2000 	strb.w	r2, [sl]
 8006ebc:	f8a7 8008 	strh.w	r8, [r7, #8]
 8006ec0:	64bf      	str	r7, [r7, #72]	; 0x48
 8006ec2:	6578      	str	r0, [r7, #84]	; 0x54
 8006ec4:	4608      	mov	r0, r1
 8006ec6:	6239      	str	r1, [r7, #32]
 8006ec8:	4639      	mov	r1, r7
 8006eca:	4607      	mov	r7, r0
 8006ecc:	372c      	adds	r7, #44	; 0x2c
 8006ece:	e9c1 7713 	strd	r7, r7, [r1, #76]	; 0x4c
 8006ed2:	4fb2      	ldr	r7, [pc, #712]	; (800719c <MENU_Fill+0x1364>)
 8006ed4:	640f      	str	r7, [r1, #64]	; 0x40
 8006ed6:	4fb2      	ldr	r7, [pc, #712]	; (80071a0 <MENU_Fill+0x1368>)
 8006ed8:	6748      	str	r0, [r1, #116]	; 0x74
 8006eda:	f44f 7080 	mov.w	r0, #256	; 0x100
 8006ede:	8008      	strh	r0, [r1, #0]
 8006ee0:	f8ca 7018 	str.w	r7, [sl, #24]
 8006ee4:	4638      	mov	r0, r7
 8006ee6:	f103 07dc 	add.w	r7, r3, #220	; 0xdc
 8006eea:	f8ca 70d4 	str.w	r7, [sl, #212]	; 0xd4
 8006eee:	2704      	movs	r7, #4
 8006ef0:	f88a 70b0 	strb.w	r7, [sl, #176]	; 0xb0
 8006ef4:	f04f 0701 	mov.w	r7, #1
 8006ef8:	f10a 012c 	add.w	r1, sl, #44	; 0x2c
 8006efc:	f88a 702c 	strb.w	r7, [sl, #44]	; 0x2c
 8006f00:	f10a 07b0 	add.w	r7, sl, #176	; 0xb0
 8006f04:	f8ca 1020 	str.w	r1, [sl, #32]
 8006f08:	f8ca 1074 	str.w	r1, [sl, #116]	; 0x74
 8006f0c:	f8ca 70a4 	str.w	r7, [sl, #164]	; 0xa4
 8006f10:	4999      	ldr	r1, [pc, #612]	; (8007178 <MENU_Fill+0x1340>)
 8006f12:	f8ca 10c4 	str.w	r1, [sl, #196]	; 0xc4
 8006f16:	f10a 0758 	add.w	r7, sl, #88	; 0x58
 8006f1a:	f8ca 704c 	str.w	r7, [sl, #76]	; 0x4c
 8006f1e:	f8ca 70a0 	str.w	r7, [sl, #160]	; 0xa0
 8006f22:	f04f 0102 	mov.w	r1, #2
 8006f26:	372c      	adds	r7, #44	; 0x2c
 8006f28:	e9ca 0a11 	strd	r0, sl, [sl, #68]	; 0x44
 8006f2c:	f8ca 0070 	str.w	r0, [sl, #112]	; 0x70
 8006f30:	f8ca 009c 	str.w	r0, [sl, #156]	; 0x9c
 8006f34:	f8ca 00c8 	str.w	r0, [sl, #200]	; 0xc8
 8006f38:	f04f 0803 	mov.w	r8, #3
 8006f3c:	488f      	ldr	r0, [pc, #572]	; (800717c <MENU_Fill+0x1344>)
 8006f3e:	f88a 1058 	strb.w	r1, [sl, #88]	; 0x58
 8006f42:	f8ca 7078 	str.w	r7, [sl, #120]	; 0x78
 8006f46:	f8ca 70cc 	str.w	r7, [sl, #204]	; 0xcc
 8006f4a:	4996      	ldr	r1, [pc, #600]	; (80071a4 <MENU_Fill+0x136c>)
 8006f4c:	4f96      	ldr	r7, [pc, #600]	; (80071a8 <MENU_Fill+0x1370>)
 8006f4e:	f8ca 0028 	str.w	r0, [sl, #40]	; 0x28
 8006f52:	f8ca 0054 	str.w	r0, [sl, #84]	; 0x54
 8006f56:	f8ca 0080 	str.w	r0, [sl, #128]	; 0x80
 8006f5a:	f8ca 00ac 	str.w	r0, [sl, #172]	; 0xac
 8006f5e:	f8ca 00d8 	str.w	r0, [sl, #216]	; 0xd8
 8006f62:	f88a 8084 	strb.w	r8, [sl, #132]	; 0x84
 8006f66:	f8ca 201c 	str.w	r2, [sl, #28]
 8006f6a:	f8ca 20d0 	str.w	r2, [sl, #208]	; 0xd0
 8006f6e:	f8ca 7014 	str.w	r7, [sl, #20]
 8006f72:	f8ca 1024 	str.w	r1, [sl, #36]	; 0x24
 8006f76:	4f8d      	ldr	r7, [pc, #564]	; (80071ac <MENU_Fill+0x1374>)
 8006f78:	498d      	ldr	r1, [pc, #564]	; (80071b0 <MENU_Fill+0x1378>)
 8006f7a:	f8ca 7050 	str.w	r7, [sl, #80]	; 0x50
 8006f7e:	f8ca 10a8 	str.w	r1, [sl, #168]	; 0xa8
 8006f82:	4f8c      	ldr	r7, [pc, #560]	; (80071b4 <MENU_Fill+0x137c>)
 8006f84:	4987      	ldr	r1, [pc, #540]	; (80071a4 <MENU_Fill+0x136c>)
 8006f86:	f8ca 7098 	str.w	r7, [sl, #152]	; 0x98
 8006f8a:	4f87      	ldr	r7, [pc, #540]	; (80071a8 <MENU_Fill+0x1370>)
 8006f8c:	618f      	str	r7, [r1, #24]
 8006f8e:	f101 0784 	add.w	r7, r1, #132	; 0x84
 8006f92:	678f      	str	r7, [r1, #120]	; 0x78
 8006f94:	9f01      	ldr	r7, [sp, #4]
 8006f96:	f8c1 70ac 	str.w	r7, [r1, #172]	; 0xac
 8006f9a:	4f83      	ldr	r7, [pc, #524]	; (80071a8 <MENU_Fill+0x1370>)
 8006f9c:	644f      	str	r7, [r1, #68]	; 0x44
 8006f9e:	460f      	mov	r7, r1
 8006fa0:	61ca      	str	r2, [r1, #28]
 8006fa2:	6489      	str	r1, [r1, #72]	; 0x48
 8006fa4:	4980      	ldr	r1, [pc, #512]	; (80071a8 <MENU_Fill+0x1370>)
 8006fa6:	6739      	str	r1, [r7, #112]	; 0x70
 8006fa8:	f887 8084 	strb.w	r8, [r7, #132]	; 0x84
 8006fac:	f8c7 109c 	str.w	r1, [r7, #156]	; 0x9c
 8006fb0:	f8c7 20a4 	str.w	r2, [r7, #164]	; 0xa4
 8006fb4:	4639      	mov	r1, r7
 8006fb6:	4f7d      	ldr	r7, [pc, #500]	; (80071ac <MENU_Fill+0x1374>)
 8006fb8:	f8df e220 	ldr.w	lr, [pc, #544]	; 80071dc <MENU_Fill+0x13a4>
 8006fbc:	61fa      	str	r2, [r7, #28]
 8006fbe:	f44f 7880 	mov.w	r8, #256	; 0x100
 8006fc2:	f8a1 8000 	strh.w	r8, [r1]
 8006fc6:	f8c1 a0a8 	str.w	sl, [r1, #168]	; 0xa8
 8006fca:	f8c7 e018 	str.w	lr, [r7, #24]
 8006fce:	f8c7 e044 	str.w	lr, [r7, #68]	; 0x44
 8006fd2:	460f      	mov	r7, r1
 8006fd4:	4978      	ldr	r1, [pc, #480]	; (80071b8 <MENU_Fill+0x1380>)
 8006fd6:	f8df c208 	ldr.w	ip, [pc, #520]	; 80071e0 <MENU_Fill+0x13a8>
 8006fda:	6079      	str	r1, [r7, #4]
 8006fdc:	3101      	adds	r1, #1
 8006fde:	f8ca e040 	str.w	lr, [sl, #64]	; 0x40
 8006fe2:	f8ca c06c 	str.w	ip, [sl, #108]	; 0x6c
 8006fe6:	f8ca 907c 	str.w	r9, [sl, #124]	; 0x7c
 8006fea:	6339      	str	r1, [r7, #48]	; 0x30
 8006fec:	f101 0a0a 	add.w	sl, r1, #10
 8006ff0:	4f6c      	ldr	r7, [pc, #432]	; (80071a4 <MENU_Fill+0x136c>)
 8006ff2:	f8cd a00c 	str.w	sl, [sp, #12]
 8006ff6:	f1aa 0109 	sub.w	r1, sl, #9
 8006ffa:	65f9      	str	r1, [r7, #92]	; 0x5c
 8006ffc:	f107 012c 	add.w	r1, r7, #44	; 0x2c
 8007000:	6239      	str	r1, [r7, #32]
 8007002:	4639      	mov	r1, r7
 8007004:	372c      	adds	r7, #44	; 0x2c
 8007006:	674f      	str	r7, [r1, #116]	; 0x74
 8007008:	372c      	adds	r7, #44	; 0x2c
 800700a:	64cf      	str	r7, [r1, #76]	; 0x4c
 800700c:	f8c1 70a0 	str.w	r7, [r1, #160]	; 0xa0
 8007010:	4f66      	ldr	r7, [pc, #408]	; (80071ac <MENU_Fill+0x1374>)
 8007012:	f107 012c 	add.w	r1, r7, #44	; 0x2c
 8007016:	6239      	str	r1, [r7, #32]
 8007018:	f107 0158 	add.w	r1, r7, #88	; 0x58
 800701c:	64f9      	str	r1, [r7, #76]	; 0x4c
 800701e:	4f61      	ldr	r7, [pc, #388]	; (80071a4 <MENU_Fill+0x136c>)
 8007020:	4966      	ldr	r1, [pc, #408]	; (80071bc <MENU_Fill+0x1384>)
 8007022:	6179      	str	r1, [r7, #20]
 8007024:	4966      	ldr	r1, [pc, #408]	; (80071c0 <MENU_Fill+0x1388>)
 8007026:	6439      	str	r1, [r7, #64]	; 0x40
 8007028:	f04f 080a 	mov.w	r8, #10
 800702c:	4965      	ldr	r1, [pc, #404]	; (80071c4 <MENU_Fill+0x138c>)
 800702e:	f887 8008 	strb.w	r8, [r7, #8]
 8007032:	f887 8034 	strb.w	r8, [r7, #52]	; 0x34
 8007036:	f887 8060 	strb.w	r8, [r7, #96]	; 0x60
 800703a:	f240 1a01 	movw	sl, #257	; 0x101
 800703e:	66f9      	str	r1, [r7, #108]	; 0x6c
 8007040:	f44f 7881 	mov.w	r8, #258	; 0x102
 8007044:	4960      	ldr	r1, [pc, #384]	; (80071c8 <MENU_Fill+0x1390>)
 8007046:	f8a7 a02c 	strh.w	sl, [r7, #44]	; 0x2c
 800704a:	f8a7 8058 	strh.w	r8, [r7, #88]	; 0x58
 800704e:	f8c7 1098 	str.w	r1, [r7, #152]	; 0x98
 8007052:	4f56      	ldr	r7, [pc, #344]	; (80071ac <MENU_Fill+0x1374>)
 8007054:	495d      	ldr	r1, [pc, #372]	; (80071cc <MENU_Fill+0x1394>)
 8007056:	f8c7 10a8 	str.w	r1, [r7, #168]	; 0xa8
 800705a:	f107 012c 	add.w	r1, r7, #44	; 0x2c
 800705e:	6779      	str	r1, [r7, #116]	; 0x74
 8007060:	f107 0158 	add.w	r1, r7, #88	; 0x58
 8007064:	f8c7 10a0 	str.w	r1, [r7, #160]	; 0xa0
 8007068:	4954      	ldr	r1, [pc, #336]	; (80071bc <MENU_Fill+0x1384>)
 800706a:	6179      	str	r1, [r7, #20]
 800706c:	f04f 080a 	mov.w	r8, #10
 8007070:	4953      	ldr	r1, [pc, #332]	; (80071c0 <MENU_Fill+0x1388>)
 8007072:	f887 8008 	strb.w	r8, [r7, #8]
 8007076:	f8a7 a02c 	strh.w	sl, [r7, #44]	; 0x2c
 800707a:	46d0      	mov	r8, sl
 800707c:	6439      	str	r1, [r7, #64]	; 0x40
 800707e:	f04f 0a0a 	mov.w	sl, #10
 8007082:	4950      	ldr	r1, [pc, #320]	; (80071c4 <MENU_Fill+0x138c>)
 8007084:	f887 a034 	strb.w	sl, [r7, #52]	; 0x34
 8007088:	66f9      	str	r1, [r7, #108]	; 0x6c
 800708a:	f44f 7a81 	mov.w	sl, #258	; 0x102
 800708e:	494e      	ldr	r1, [pc, #312]	; (80071c8 <MENU_Fill+0x1390>)
 8007090:	f8c7 e070 	str.w	lr, [r7, #112]	; 0x70
 8007094:	f8c7 e09c 	str.w	lr, [r7, #156]	; 0x9c
 8007098:	f8a7 a058 	strh.w	sl, [r7, #88]	; 0x58
 800709c:	f44f 7e80 	mov.w	lr, #256	; 0x100
 80070a0:	f8c7 1098 	str.w	r1, [r7, #152]	; 0x98
 80070a4:	f04f 0a0a 	mov.w	sl, #10
 80070a8:	9901      	ldr	r1, [sp, #4]
 80070aa:	f8c7 20a4 	str.w	r2, [r7, #164]	; 0xa4
 80070ae:	e9c9 c911 	strd	ip, r9, [r9, #68]	; 0x44
 80070b2:	f8c9 201c 	str.w	r2, [r9, #28]
 80070b6:	f8a7 e000 	strh.w	lr, [r7]
 80070ba:	f887 a060 	strb.w	sl, [r7, #96]	; 0x60
 80070be:	f8c9 c018 	str.w	ip, [r9, #24]
 80070c2:	f8c9 c070 	str.w	ip, [r9, #112]	; 0x70
 80070c6:	64bf      	str	r7, [r7, #72]	; 0x48
 80070c8:	f8c7 10ac 	str.w	r1, [r7, #172]	; 0xac
 80070cc:	f107 0184 	add.w	r1, r7, #132	; 0x84
 80070d0:	67b9      	str	r1, [r7, #120]	; 0x78
 80070d2:	493f      	ldr	r1, [pc, #252]	; (80071d0 <MENU_Fill+0x1398>)
 80070d4:	6079      	str	r1, [r7, #4]
 80070d6:	3101      	adds	r1, #1
 80070d8:	f109 002c 	add.w	r0, r9, #44	; 0x2c
 80070dc:	f04f 0a03 	mov.w	sl, #3
 80070e0:	6339      	str	r1, [r7, #48]	; 0x30
 80070e2:	3101      	adds	r1, #1
 80070e4:	f887 a084 	strb.w	sl, [r7, #132]	; 0x84
 80070e8:	65f9      	str	r1, [r7, #92]	; 0x5c
 80070ea:	f8c9 0020 	str.w	r0, [r9, #32]
 80070ee:	f109 0784 	add.w	r7, r9, #132	; 0x84
 80070f2:	f8c9 0074 	str.w	r0, [r9, #116]	; 0x74
 80070f6:	f109 0058 	add.w	r0, r9, #88	; 0x58
 80070fa:	492d      	ldr	r1, [pc, #180]	; (80071b0 <MENU_Fill+0x1378>)
 80070fc:	f8c9 7078 	str.w	r7, [r9, #120]	; 0x78
 8007100:	f8c9 004c 	str.w	r0, [r9, #76]	; 0x4c
 8007104:	4607      	mov	r7, r0
 8007106:	4833      	ldr	r0, [pc, #204]	; (80071d4 <MENU_Fill+0x139c>)
 8007108:	f8c9 c09c 	str.w	ip, [r9, #156]	; 0x9c
 800710c:	f04f 0c03 	mov.w	ip, #3
 8007110:	e9c9 2029 	strd	r2, r0, [r9, #164]	; 0xa4
 8007114:	f8c9 70a0 	str.w	r7, [r9, #160]	; 0xa0
 8007118:	4608      	mov	r0, r1
 800711a:	f04f 070a 	mov.w	r7, #10
 800711e:	61ca      	str	r2, [r1, #28]
 8007120:	f881 c084 	strb.w	ip, [r1, #132]	; 0x84
 8007124:	f8c1 20a4 	str.w	r2, [r1, #164]	; 0xa4
 8007128:	4924      	ldr	r1, [pc, #144]	; (80071bc <MENU_Fill+0x1384>)
 800712a:	f889 7008 	strb.w	r7, [r9, #8]
 800712e:	f8c9 1014 	str.w	r1, [r9, #20]
 8007132:	f889 7034 	strb.w	r7, [r9, #52]	; 0x34
 8007136:	f889 7060 	strb.w	r7, [r9, #96]	; 0x60
 800713a:	4921      	ldr	r1, [pc, #132]	; (80071c0 <MENU_Fill+0x1388>)
 800713c:	4f1d      	ldr	r7, [pc, #116]	; (80071b4 <MENU_Fill+0x137c>)
 800713e:	f8c9 1040 	str.w	r1, [r9, #64]	; 0x40
 8007142:	6187      	str	r7, [r0, #24]
 8007144:	6447      	str	r7, [r0, #68]	; 0x44
 8007146:	6707      	str	r7, [r0, #112]	; 0x70
 8007148:	f8c0 709c 	str.w	r7, [r0, #156]	; 0x9c
 800714c:	491d      	ldr	r1, [pc, #116]	; (80071c4 <MENU_Fill+0x138c>)
 800714e:	4f1e      	ldr	r7, [pc, #120]	; (80071c8 <MENU_Fill+0x1390>)
 8007150:	f889 a084 	strb.w	sl, [r9, #132]	; 0x84
 8007154:	f44f 7c81 	mov.w	ip, #258	; 0x102
 8007158:	f8a9 e000 	strh.w	lr, [r9]
 800715c:	f8a9 802c 	strh.w	r8, [r9, #44]	; 0x2c
 8007160:	f8a9 c058 	strh.w	ip, [r9, #88]	; 0x58
 8007164:	f8c9 106c 	str.w	r1, [r9, #108]	; 0x6c
 8007168:	f8c9 7098 	str.w	r7, [r9, #152]	; 0x98
 800716c:	4601      	mov	r1, r0
 800716e:	6480      	str	r0, [r0, #72]	; 0x48
 8007170:	e038      	b.n	80071e4 <MENU_Fill+0x13ac>
 8007172:	bf00      	nop
 8007174:	080087d4 	.word	0x080087d4
 8007178:	08008800 	.word	0x08008800
 800717c:	080006d9 	.word	0x080006d9
 8007180:	08008818 	.word	0x08008818
 8007184:	080032f9 	.word	0x080032f9
 8007188:	08008828 	.word	0x08008828
 800718c:	08008578 	.word	0x08008578
 8007190:	08008834 	.word	0x08008834
 8007194:	200000b2 	.word	0x200000b2
 8007198:	08003705 	.word	0x08003705
 800719c:	08008838 	.word	0x08008838
 80071a0:	08008840 	.word	0x08008840
 80071a4:	20002a58 	.word	0x20002a58
 80071a8:	0800884c 	.word	0x0800884c
 80071ac:	200020e4 	.word	0x200020e4
 80071b0:	20002034 	.word	0x20002034
 80071b4:	08008864 	.word	0x08008864
 80071b8:	200012f8 	.word	0x200012f8
 80071bc:	0800886c 	.word	0x0800886c
 80071c0:	08008874 	.word	0x08008874
 80071c4:	0800887c 	.word	0x0800887c
 80071c8:	08008884 	.word	0x08008884
 80071cc:	200019d8 	.word	0x200019d8
 80071d0:	200012fb 	.word	0x200012fb
 80071d4:	20001a04 	.word	0x20001a04
 80071d8:	08008808 	.word	0x08008808
 80071dc:	08008854 	.word	0x08008854
 80071e0:	0800885c 	.word	0x0800885c
 80071e4:	f8a0 e000 	strh.w	lr, [r0]
 80071e8:	48d1      	ldr	r0, [pc, #836]	; (8007530 <MENU_Fill+0x16f8>)
 80071ea:	f8c9 0004 	str.w	r0, [r9, #4]
 80071ee:	3001      	adds	r0, #1
 80071f0:	f8c9 0030 	str.w	r0, [r9, #48]	; 0x30
 80071f4:	3001      	adds	r0, #1
 80071f6:	f8c9 005c 	str.w	r0, [r9, #92]	; 0x5c
 80071fa:	f101 0084 	add.w	r0, r1, #132	; 0x84
 80071fe:	6788      	str	r0, [r1, #120]	; 0x78
 8007200:	48cc      	ldr	r0, [pc, #816]	; (8007534 <MENU_Fill+0x16fc>)
 8007202:	6048      	str	r0, [r1, #4]
 8007204:	f101 002c 	add.w	r0, r1, #44	; 0x2c
 8007208:	6208      	str	r0, [r1, #32]
 800720a:	6748      	str	r0, [r1, #116]	; 0x74
 800720c:	f101 0058 	add.w	r0, r1, #88	; 0x58
 8007210:	64c8      	str	r0, [r1, #76]	; 0x4c
 8007212:	f8c1 00a0 	str.w	r0, [r1, #160]	; 0xa0
 8007216:	f04f 000a 	mov.w	r0, #10
 800721a:	7208      	strb	r0, [r1, #8]
 800721c:	48c6      	ldr	r0, [pc, #792]	; (8007538 <MENU_Fill+0x1700>)
 800721e:	6148      	str	r0, [r1, #20]
 8007220:	f04f 000a 	mov.w	r0, #10
 8007224:	f881 0034 	strb.w	r0, [r1, #52]	; 0x34
 8007228:	48c4      	ldr	r0, [pc, #784]	; (800753c <MENU_Fill+0x1704>)
 800722a:	6408      	str	r0, [r1, #64]	; 0x40
 800722c:	f44f 7081 	mov.w	r0, #258	; 0x102
 8007230:	f8a1 0058 	strh.w	r0, [r1, #88]	; 0x58
 8007234:	f04f 000a 	mov.w	r0, #10
 8007238:	f881 0060 	strb.w	r0, [r1, #96]	; 0x60
 800723c:	48c0      	ldr	r0, [pc, #768]	; (8007540 <MENU_Fill+0x1708>)
 800723e:	66c8      	str	r0, [r1, #108]	; 0x6c
 8007240:	48c0      	ldr	r0, [pc, #768]	; (8007544 <MENU_Fill+0x170c>)
 8007242:	9f01      	ldr	r7, [sp, #4]
 8007244:	f8c1 0098 	str.w	r0, [r1, #152]	; 0x98
 8007248:	48bf      	ldr	r0, [pc, #764]	; (8007548 <MENU_Fill+0x1710>)
 800724a:	f8c9 70ac 	str.w	r7, [r9, #172]	; 0xac
 800724e:	e9c1 072a 	strd	r0, r7, [r1, #168]	; 0xa8
 8007252:	48be      	ldr	r0, [pc, #760]	; (800754c <MENU_Fill+0x1714>)
 8007254:	6308      	str	r0, [r1, #48]	; 0x30
 8007256:	9803      	ldr	r0, [sp, #12]
 8007258:	65c8      	str	r0, [r1, #92]	; 0x5c
 800725a:	f44f 7080 	mov.w	r0, #256	; 0x100
 800725e:	f8c1 2088 	str.w	r2, [r1, #136]	; 0x88
 8007262:	f8a1 802c 	strh.w	r8, [r1, #44]	; 0x2c
 8007266:	8030      	strh	r0, [r6, #0]
 8007268:	f04f 0703 	mov.w	r7, #3
 800726c:	48b8      	ldr	r0, [pc, #736]	; (8007550 <MENU_Fill+0x1718>)
 800726e:	61f2      	str	r2, [r6, #28]
 8007270:	2104      	movs	r1, #4
 8007272:	f886 7084 	strb.w	r7, [r6, #132]	; 0x84
 8007276:	f886 10b0 	strb.w	r1, [r6, #176]	; 0xb0
 800727a:	f8c6 20d0 	str.w	r2, [r6, #208]	; 0xd0
 800727e:	64b6      	str	r6, [r6, #72]	; 0x48
 8007280:	61b0      	str	r0, [r6, #24]
 8007282:	6470      	str	r0, [r6, #68]	; 0x44
 8007284:	6730      	str	r0, [r6, #112]	; 0x70
 8007286:	f8c6 009c 	str.w	r0, [r6, #156]	; 0x9c
 800728a:	f8c6 00c8 	str.w	r0, [r6, #200]	; 0xc8
 800728e:	f106 002c 	add.w	r0, r6, #44	; 0x2c
 8007292:	6230      	str	r0, [r6, #32]
 8007294:	6770      	str	r0, [r6, #116]	; 0x74
 8007296:	f106 0058 	add.w	r0, r6, #88	; 0x58
 800729a:	64f0      	str	r0, [r6, #76]	; 0x4c
 800729c:	f8c6 00a0 	str.w	r0, [r6, #160]	; 0xa0
 80072a0:	302c      	adds	r0, #44	; 0x2c
 80072a2:	67b0      	str	r0, [r6, #120]	; 0x78
 80072a4:	f8c6 00cc 	str.w	r0, [r6, #204]	; 0xcc
 80072a8:	302c      	adds	r0, #44	; 0x2c
 80072aa:	4607      	mov	r7, r0
 80072ac:	f8c6 00a4 	str.w	r0, [r6, #164]	; 0xa4
 80072b0:	48a8      	ldr	r0, [pc, #672]	; (8007554 <MENU_Fill+0x171c>)
 80072b2:	6170      	str	r0, [r6, #20]
 80072b4:	48a8      	ldr	r0, [pc, #672]	; (8007558 <MENU_Fill+0x1720>)
 80072b6:	6070      	str	r0, [r6, #4]
 80072b8:	f44f 7081 	mov.w	r0, #258	; 0x102
 80072bc:	f8a6 0058 	strh.w	r0, [r6, #88]	; 0x58
 80072c0:	48a6      	ldr	r0, [pc, #664]	; (800755c <MENU_Fill+0x1724>)
 80072c2:	f8c6 00ac 	str.w	r0, [r6, #172]	; 0xac
 80072c6:	f04f 0017 	mov.w	r0, #23
 80072ca:	f8c6 30d4 	str.w	r3, [r6, #212]	; 0xd4
 80072ce:	7230      	strb	r0, [r6, #8]
 80072d0:	4ba3      	ldr	r3, [pc, #652]	; (8007560 <MENU_Fill+0x1728>)
 80072d2:	48a4      	ldr	r0, [pc, #656]	; (8007564 <MENU_Fill+0x172c>)
 80072d4:	f8c6 70a8 	str.w	r7, [r6, #168]	; 0xa8
 80072d8:	f8c6 3098 	str.w	r3, [r6, #152]	; 0x98
 80072dc:	6430      	str	r0, [r6, #64]	; 0x40
 80072de:	f04f 073b 	mov.w	r7, #59	; 0x3b
 80072e2:	48a1      	ldr	r0, [pc, #644]	; (8007568 <MENU_Fill+0x1730>)
 80072e4:	4ba1      	ldr	r3, [pc, #644]	; (800756c <MENU_Fill+0x1734>)
 80072e6:	f8c6 30c4 	str.w	r3, [r6, #196]	; 0xc4
 80072ea:	f886 7034 	strb.w	r7, [r6, #52]	; 0x34
 80072ee:	f886 7060 	strb.w	r7, [r6, #96]	; 0x60
 80072f2:	f04f 0303 	mov.w	r3, #3
 80072f6:	4f9e      	ldr	r7, [pc, #632]	; (8007570 <MENU_Fill+0x1738>)
 80072f8:	f8df c2a0 	ldr.w	ip, [pc, #672]	; 800759c <MENU_Fill+0x1764>
 80072fc:	f885 3084 	strb.w	r3, [r5, #132]	; 0x84
 8007300:	66f7      	str	r7, [r6, #108]	; 0x6c
 8007302:	2304      	movs	r3, #4
 8007304:	1c47      	adds	r7, r0, #1
 8007306:	f8a6 802c 	strh.w	r8, [r6, #44]	; 0x2c
 800730a:	61ea      	str	r2, [r5, #28]
 800730c:	f885 30b0 	strb.w	r3, [r5, #176]	; 0xb0
 8007310:	f8c5 20d0 	str.w	r2, [r5, #208]	; 0xd0
 8007314:	6330      	str	r0, [r6, #48]	; 0x30
 8007316:	65f7      	str	r7, [r6, #92]	; 0x5c
 8007318:	64ad      	str	r5, [r5, #72]	; 0x48
 800731a:	f8c6 c0d8 	str.w	ip, [r6, #216]	; 0xd8
 800731e:	f105 062c 	add.w	r6, r5, #44	; 0x2c
 8007322:	622e      	str	r6, [r5, #32]
 8007324:	676e      	str	r6, [r5, #116]	; 0x74
 8007326:	f105 0658 	add.w	r6, r5, #88	; 0x58
 800732a:	64ee      	str	r6, [r5, #76]	; 0x4c
 800732c:	f8c5 60a0 	str.w	r6, [r5, #160]	; 0xa0
 8007330:	3658      	adds	r6, #88	; 0x58
 8007332:	4633      	mov	r3, r6
 8007334:	f8c5 30a8 	str.w	r3, [r5, #168]	; 0xa8
 8007338:	f04f 0303 	mov.w	r3, #3
 800733c:	f88b 3084 	strb.w	r3, [fp, #132]	; 0x84
 8007340:	4b8c      	ldr	r3, [pc, #560]	; (8007574 <MENU_Fill+0x173c>)
 8007342:	606b      	str	r3, [r5, #4]
 8007344:	3b02      	subs	r3, #2
 8007346:	f8c5 60a4 	str.w	r6, [r5, #164]	; 0xa4
 800734a:	632b      	str	r3, [r5, #48]	; 0x30
 800734c:	2604      	movs	r6, #4
 800734e:	3301      	adds	r3, #1
 8007350:	f88b 60b0 	strb.w	r6, [fp, #176]	; 0xb0
 8007354:	65eb      	str	r3, [r5, #92]	; 0x5c
 8007356:	f8df 9248 	ldr.w	r9, [pc, #584]	; 80075a0 <MENU_Fill+0x1768>
 800735a:	4e81      	ldr	r6, [pc, #516]	; (8007560 <MENU_Fill+0x1728>)
 800735c:	f8c5 9014 	str.w	r9, [r5, #20]
 8007360:	f44f 7386 	mov.w	r3, #268	; 0x10c
 8007364:	f8c5 6098 	str.w	r6, [r5, #152]	; 0x98
 8007368:	86ab      	strh	r3, [r5, #52]	; 0x34
 800736a:	4e80      	ldr	r6, [pc, #512]	; (800756c <MENU_Fill+0x1734>)
 800736c:	4b82      	ldr	r3, [pc, #520]	; (8007578 <MENU_Fill+0x1740>)
 800736e:	f8df e234 	ldr.w	lr, [pc, #564]	; 80075a4 <MENU_Fill+0x176c>
 8007372:	66eb      	str	r3, [r5, #108]	; 0x6c
 8007374:	f44f 7981 	mov.w	r9, #258	; 0x102
 8007378:	f8a5 9058 	strh.w	r9, [r5, #88]	; 0x58
 800737c:	f240 131f 	movw	r3, #287	; 0x11f
 8007380:	f04f 0963 	mov.w	r9, #99	; 0x63
 8007384:	f105 0a84 	add.w	sl, r5, #132	; 0x84
 8007388:	f8c5 e018 	str.w	lr, [r5, #24]
 800738c:	f8c5 e044 	str.w	lr, [r5, #68]	; 0x44
 8007390:	f8c5 e070 	str.w	lr, [r5, #112]	; 0x70
 8007394:	f8c5 e09c 	str.w	lr, [r5, #156]	; 0x9c
 8007398:	f8c5 e0c8 	str.w	lr, [r5, #200]	; 0xc8
 800739c:	f8c5 60c4 	str.w	r6, [r5, #196]	; 0xc4
 80073a0:	f885 9008 	strb.w	r9, [r5, #8]
 80073a4:	f8a5 3060 	strh.w	r3, [r5, #96]	; 0x60
 80073a8:	46b1      	mov	r9, r6
 80073aa:	4b74      	ldr	r3, [pc, #464]	; (800757c <MENU_Fill+0x1744>)
 80073ac:	4e74      	ldr	r6, [pc, #464]	; (8007580 <MENU_Fill+0x1748>)
 80073ae:	f8c5 a078 	str.w	sl, [r5, #120]	; 0x78
 80073b2:	f44f 7e80 	mov.w	lr, #256	; 0x100
 80073b6:	f8c5 a0cc 	str.w	sl, [r5, #204]	; 0xcc
 80073ba:	f8cb 201c 	str.w	r2, [fp, #28]
 80073be:	f8a5 e000 	strh.w	lr, [r5]
 80073c2:	f8a5 802c 	strh.w	r8, [r5, #44]	; 0x2c
 80073c6:	f8c5 c0d8 	str.w	ip, [r5, #216]	; 0xd8
 80073ca:	642e      	str	r6, [r5, #64]	; 0x40
 80073cc:	f8cb b048 	str.w	fp, [fp, #72]	; 0x48
 80073d0:	f8c5 30ac 	str.w	r3, [r5, #172]	; 0xac
 80073d4:	4b6b      	ldr	r3, [pc, #428]	; (8007584 <MENU_Fill+0x174c>)
 80073d6:	f8c5 30d4 	str.w	r3, [r5, #212]	; 0xd4
 80073da:	f10b 052c 	add.w	r5, fp, #44	; 0x2c
 80073de:	f8cb 5020 	str.w	r5, [fp, #32]
 80073e2:	f8cb 5074 	str.w	r5, [fp, #116]	; 0x74
 80073e6:	f10b 0558 	add.w	r5, fp, #88	; 0x58
 80073ea:	4967      	ldr	r1, [pc, #412]	; (8007588 <MENU_Fill+0x1750>)
 80073ec:	f8cb 504c 	str.w	r5, [fp, #76]	; 0x4c
 80073f0:	f8cb 50a0 	str.w	r5, [fp, #160]	; 0xa0
 80073f4:	352c      	adds	r5, #44	; 0x2c
 80073f6:	f8cb 1018 	str.w	r1, [fp, #24]
 80073fa:	f8cb 1044 	str.w	r1, [fp, #68]	; 0x44
 80073fe:	f8cb 1070 	str.w	r1, [fp, #112]	; 0x70
 8007402:	f8cb 109c 	str.w	r1, [fp, #156]	; 0x9c
 8007406:	f8cb 10c8 	str.w	r1, [fp, #200]	; 0xc8
 800740a:	f105 012c 	add.w	r1, r5, #44	; 0x2c
 800740e:	f8cb 10a4 	str.w	r1, [fp, #164]	; 0xa4
 8007412:	332c      	adds	r3, #44	; 0x2c
 8007414:	9901      	ldr	r1, [sp, #4]
 8007416:	f8cb 5078 	str.w	r5, [fp, #120]	; 0x78
 800741a:	f8cb 10d8 	str.w	r1, [fp, #216]	; 0xd8
 800741e:	f8cb 30d4 	str.w	r3, [fp, #212]	; 0xd4
 8007422:	f8cb 50cc 	str.w	r5, [fp, #204]	; 0xcc
 8007426:	f105 012c 	add.w	r1, r5, #44	; 0x2c
 800742a:	f04f 0317 	mov.w	r3, #23
 800742e:	4d4d      	ldr	r5, [pc, #308]	; (8007564 <MENU_Fill+0x172c>)
 8007430:	f8df a12c 	ldr.w	sl, [pc, #300]	; 8007560 <MENU_Fill+0x1728>
 8007434:	f8cb 0030 	str.w	r0, [fp, #48]	; 0x30
 8007438:	f8cb 705c 	str.w	r7, [fp, #92]	; 0x5c
 800743c:	4845      	ldr	r0, [pc, #276]	; (8007554 <MENU_Fill+0x171c>)
 800743e:	f8cb 10a8 	str.w	r1, [fp, #168]	; 0xa8
 8007442:	f88b 3008 	strb.w	r3, [fp, #8]
 8007446:	1eb9      	subs	r1, r7, #2
 8007448:	f8cb 5040 	str.w	r5, [fp, #64]	; 0x40
 800744c:	4f48      	ldr	r7, [pc, #288]	; (8007570 <MENU_Fill+0x1738>)
 800744e:	f8ab 802c 	strh.w	r8, [fp, #44]	; 0x2c
 8007452:	f04f 053b 	mov.w	r5, #59	; 0x3b
 8007456:	f44f 7381 	mov.w	r3, #258	; 0x102
 800745a:	f44f 7880 	mov.w	r8, #256	; 0x100
 800745e:	f8cb 20d0 	str.w	r2, [fp, #208]	; 0xd0
 8007462:	f8cb 1004 	str.w	r1, [fp, #4]
 8007466:	f88b 5034 	strb.w	r5, [fp, #52]	; 0x34
 800746a:	f88b 5060 	strb.w	r5, [fp, #96]	; 0x60
 800746e:	f8ab 3058 	strh.w	r3, [fp, #88]	; 0x58
 8007472:	f8ab 8000 	strh.w	r8, [fp]
 8007476:	f8cb 0014 	str.w	r0, [fp, #20]
 800747a:	f8cb 706c 	str.w	r7, [fp, #108]	; 0x6c
 800747e:	f8cb a098 	str.w	sl, [fp, #152]	; 0x98
 8007482:	f8cb 90c4 	str.w	r9, [fp, #196]	; 0xc4
 8007486:	f04f 0303 	mov.w	r3, #3
 800748a:	61e2      	str	r2, [r4, #28]
 800748c:	f104 022c 	add.w	r2, r4, #44	; 0x2c
 8007490:	f884 3084 	strb.w	r3, [r4, #132]	; 0x84
 8007494:	6222      	str	r2, [r4, #32]
 8007496:	6762      	str	r2, [r4, #116]	; 0x74
 8007498:	4b3c      	ldr	r3, [pc, #240]	; (800758c <MENU_Fill+0x1754>)
 800749a:	f8cb 30ac 	str.w	r3, [fp, #172]	; 0xac
 800749e:	f104 0258 	add.w	r2, r4, #88	; 0x58
 80074a2:	64e2      	str	r2, [r4, #76]	; 0x4c
 80074a4:	f8c4 20a0 	str.w	r2, [r4, #160]	; 0xa0
 80074a8:	f04f 0304 	mov.w	r3, #4
 80074ac:	322c      	adds	r2, #44	; 0x2c
 80074ae:	f102 052c 	add.w	r5, r2, #44	; 0x2c
 80074b2:	67a2      	str	r2, [r4, #120]	; 0x78
 80074b4:	f884 30b0 	strb.w	r3, [r4, #176]	; 0xb0
 80074b8:	f8c4 20cc 	str.w	r2, [r4, #204]	; 0xcc
 80074bc:	4b34      	ldr	r3, [pc, #208]	; (8007590 <MENU_Fill+0x1758>)
 80074be:	4a2a      	ldr	r2, [pc, #168]	; (8007568 <MENU_Fill+0x1730>)
 80074c0:	f8c4 30d4 	str.w	r3, [r4, #212]	; 0xd4
 80074c4:	f04f 033b 	mov.w	r3, #59	; 0x3b
 80074c8:	4932      	ldr	r1, [pc, #200]	; (8007594 <MENU_Fill+0x175c>)
 80074ca:	4e33      	ldr	r6, [pc, #204]	; (8007598 <MENU_Fill+0x1760>)
 80074cc:	f8c4 50a4 	str.w	r5, [r4, #164]	; 0xa4
 80074d0:	6322      	str	r2, [r4, #48]	; 0x30
 80074d2:	f8c4 50a8 	str.w	r5, [r4, #168]	; 0xa8
 80074d6:	3201      	adds	r2, #1
 80074d8:	f884 3034 	strb.w	r3, [r4, #52]	; 0x34
 80074dc:	f884 3060 	strb.w	r3, [r4, #96]	; 0x60
 80074e0:	f8df c0c4 	ldr.w	ip, [pc, #196]	; 80075a8 <MENU_Fill+0x1770>
 80074e4:	4d1f      	ldr	r5, [pc, #124]	; (8007564 <MENU_Fill+0x172c>)
 80074e6:	61a1      	str	r1, [r4, #24]
 80074e8:	f44f 7381 	mov.w	r3, #258	; 0x102
 80074ec:	6461      	str	r1, [r4, #68]	; 0x44
 80074ee:	6721      	str	r1, [r4, #112]	; 0x70
 80074f0:	f8c4 109c 	str.w	r1, [r4, #156]	; 0x9c
 80074f4:	65e2      	str	r2, [r4, #92]	; 0x5c
 80074f6:	f8c4 10c8 	str.w	r1, [r4, #200]	; 0xc8
 80074fa:	f8a4 3058 	strh.w	r3, [r4, #88]	; 0x58
 80074fe:	1e91      	subs	r1, r2, #2
 8007500:	f44f 7e80 	mov.w	lr, #256	; 0x100
 8007504:	f04f 0217 	mov.w	r2, #23
 8007508:	f240 1801 	movw	r8, #257	; 0x101
 800750c:	2300      	movs	r3, #0
 800750e:	64a4      	str	r4, [r4, #72]	; 0x48
 8007510:	6160      	str	r0, [r4, #20]
 8007512:	6061      	str	r1, [r4, #4]
 8007514:	7222      	strb	r2, [r4, #8]
 8007516:	6425      	str	r5, [r4, #64]	; 0x40
 8007518:	f8a4 802c 	strh.w	r8, [r4, #44]	; 0x2c
 800751c:	66e7      	str	r7, [r4, #108]	; 0x6c
 800751e:	f8c4 30d0 	str.w	r3, [r4, #208]	; 0xd0
 8007522:	f8a4 e000 	strh.w	lr, [r4]
 8007526:	f8c4 a098 	str.w	sl, [r4, #152]	; 0x98
 800752a:	f8c4 c0ac 	str.w	ip, [r4, #172]	; 0xac
 800752e:	e03d      	b.n	80075ac <MENU_Fill+0x1774>
 8007530:	200012fe 	.word	0x200012fe
 8007534:	20001301 	.word	0x20001301
 8007538:	0800886c 	.word	0x0800886c
 800753c:	08008874 	.word	0x08008874
 8007540:	0800887c 	.word	0x0800887c
 8007544:	08008884 	.word	0x08008884
 8007548:	20001a30 	.word	0x20001a30
 800754c:	20001302 	.word	0x20001302
 8007550:	080087a4 	.word	0x080087a4
 8007554:	08008894 	.word	0x08008894
 8007558:	20000ea4 	.word	0x20000ea4
 800755c:	080033f1 	.word	0x080033f1
 8007560:	08008838 	.word	0x08008838
 8007564:	0800889c 	.word	0x0800889c
 8007568:	20000ea5 	.word	0x20000ea5
 800756c:	08008800 	.word	0x08008800
 8007570:	080088a4 	.word	0x080088a4
 8007574:	20000ea3 	.word	0x20000ea3
 8007578:	080088bc 	.word	0x080088bc
 800757c:	080034b5 	.word	0x080034b5
 8007580:	080088b4 	.word	0x080088b4
 8007584:	20002504 	.word	0x20002504
 8007588:	080087b4 	.word	0x080087b4
 800758c:	080036a5 	.word	0x080036a5
 8007590:	2000255c 	.word	0x2000255c
 8007594:	080087c4 	.word	0x080087c4
 8007598:	080006d9 	.word	0x080006d9
 800759c:	080006e1 	.word	0x080006e1
 80075a0:	080088ac 	.word	0x080088ac
 80075a4:	080087ac 	.word	0x080087ac
 80075a8:	080036d5 	.word	0x080036d5
 80075ac:	f8c4 90c4 	str.w	r9, [r4, #196]	; 0xc4
 80075b0:	62a6      	str	r6, [r4, #40]	; 0x28
 80075b2:	6566      	str	r6, [r4, #84]	; 0x54
 80075b4:	f8c4 6080 	str.w	r6, [r4, #128]	; 0x80
 80075b8:	f8c4 60d8 	str.w	r6, [r4, #216]	; 0xd8
 80075bc:	b005      	add	sp, #20
 80075be:	e8bd 8ff0 	ldmia.w	sp!, {r4, r5, r6, r7, r8, r9, sl, fp, pc}
 80075c2:	bf00      	nop

080075c4 <ssd1306_on>:
 80075c4:	b530      	push	{r4, r5, lr}
 80075c6:	b087      	sub	sp, #28
 80075c8:	2401      	movs	r4, #1
 80075ca:	f10d 0217 	add.w	r2, sp, #23
 80075ce:	230a      	movs	r3, #10
 80075d0:	e9cd 4301 	strd	r4, r3, [sp, #4]
 80075d4:	9200      	str	r2, [sp, #0]
 80075d6:	4623      	mov	r3, r4
 80075d8:	25af      	movs	r5, #175	; 0xaf
 80075da:	2200      	movs	r2, #0
 80075dc:	2178      	movs	r1, #120	; 0x78
 80075de:	4804      	ldr	r0, [pc, #16]	; (80075f0 <ssd1306_on+0x2c>)
 80075e0:	f88d 5017 	strb.w	r5, [sp, #23]
 80075e4:	f7f9 fcec 	bl	8000fc0 <HAL_I2C_Mem_Write>
 80075e8:	4b02      	ldr	r3, [pc, #8]	; (80075f4 <ssd1306_on+0x30>)
 80075ea:	701c      	strb	r4, [r3, #0]
 80075ec:	b007      	add	sp, #28
 80075ee:	bd30      	pop	{r4, r5, pc}
 80075f0:	20001740 	.word	0x20001740
 80075f4:	200012c8 	.word	0x200012c8

080075f8 <ssd1306_off>:
 80075f8:	b510      	push	{r4, lr}
 80075fa:	b086      	sub	sp, #24
 80075fc:	2301      	movs	r3, #1
 80075fe:	f10d 0217 	add.w	r2, sp, #23
 8007602:	210a      	movs	r1, #10
 8007604:	e9cd 3101 	strd	r3, r1, [sp, #4]
 8007608:	9200      	str	r2, [sp, #0]
 800760a:	24ae      	movs	r4, #174	; 0xae
 800760c:	2200      	movs	r2, #0
 800760e:	2178      	movs	r1, #120	; 0x78
 8007610:	4804      	ldr	r0, [pc, #16]	; (8007624 <ssd1306_off+0x2c>)
 8007612:	f88d 4017 	strb.w	r4, [sp, #23]
 8007616:	f7f9 fcd3 	bl	8000fc0 <HAL_I2C_Mem_Write>
 800761a:	4b03      	ldr	r3, [pc, #12]	; (8007628 <ssd1306_off+0x30>)
 800761c:	2200      	movs	r2, #0
 800761e:	701a      	strb	r2, [r3, #0]
 8007620:	b006      	add	sp, #24
 8007622:	bd10      	pop	{r4, pc}
 8007624:	20001740 	.word	0x20001740
 8007628:	200012c8 	.word	0x200012c8

0800762c <ssd1306_CheckDisplayStatus>:
 800762c:	4b02      	ldr	r3, [pc, #8]	; (8007638 <ssd1306_CheckDisplayStatus+0xc>)
 800762e:	7818      	ldrb	r0, [r3, #0]
 8007630:	3800      	subs	r0, #0
 8007632:	bf18      	it	ne
 8007634:	2001      	movne	r0, #1
 8007636:	4770      	bx	lr
 8007638:	200012c8 	.word	0x200012c8

0800763c <ssd1306_Fill>:
 800763c:	2800      	cmp	r0, #0
 800763e:	bf14      	ite	ne
 8007640:	21ff      	movne	r1, #255	; 0xff
 8007642:	2100      	moveq	r1, #0
 8007644:	f44f 6280 	mov.w	r2, #1024	; 0x400
 8007648:	4801      	ldr	r0, [pc, #4]	; (8007650 <ssd1306_Fill+0x14>)
 800764a:	f000 bb2d 	b.w	8007ca8 <memset>
 800764e:	bf00      	nop
 8007650:	20000ec8 	.word	0x20000ec8

08007654 <ssd1306_UpdateScreen>:
 8007654:	e92d 43f0 	stmdb	sp!, {r4, r5, r6, r7, r8, r9, lr}
 8007658:	f8df 8084 	ldr.w	r8, [pc, #132]	; 80076e0 <ssd1306_UpdateScreen+0x8c>
 800765c:	4e1f      	ldr	r6, [pc, #124]	; (80076dc <ssd1306_UpdateScreen+0x88>)
 800765e:	b087      	sub	sp, #28
 8007660:	24b0      	movs	r4, #176	; 0xb0
 8007662:	f10d 0717 	add.w	r7, sp, #23
 8007666:	f04f 0900 	mov.w	r9, #0
 800766a:	250a      	movs	r5, #10
 800766c:	2301      	movs	r3, #1
 800766e:	e9cd 3501 	strd	r3, r5, [sp, #4]
 8007672:	2200      	movs	r2, #0
 8007674:	2178      	movs	r1, #120	; 0x78
 8007676:	9700      	str	r7, [sp, #0]
 8007678:	4630      	mov	r0, r6
 800767a:	f88d 4017 	strb.w	r4, [sp, #23]
 800767e:	f7f9 fc9f 	bl	8000fc0 <HAL_I2C_Mem_Write>
 8007682:	2301      	movs	r3, #1
 8007684:	e9cd 7300 	strd	r7, r3, [sp]
 8007688:	9502      	str	r5, [sp, #8]
 800768a:	2200      	movs	r2, #0
 800768c:	2178      	movs	r1, #120	; 0x78
 800768e:	4630      	mov	r0, r6
 8007690:	f88d 9017 	strb.w	r9, [sp, #23]
 8007694:	f7f9 fc94 	bl	8000fc0 <HAL_I2C_Mem_Write>
 8007698:	2301      	movs	r3, #1
 800769a:	e9cd 7300 	strd	r7, r3, [sp]
 800769e:	9502      	str	r5, [sp, #8]
 80076a0:	2200      	movs	r2, #0
 80076a2:	2178      	movs	r1, #120	; 0x78
 80076a4:	2510      	movs	r5, #16
 80076a6:	4630      	mov	r0, r6
 80076a8:	f88d 5017 	strb.w	r5, [sp, #23]
 80076ac:	3401      	adds	r4, #1
 80076ae:	f7f9 fc87 	bl	8000fc0 <HAL_I2C_Mem_Write>
 80076b2:	2164      	movs	r1, #100	; 0x64
 80076b4:	2280      	movs	r2, #128	; 0x80
 80076b6:	e9cd 2101 	strd	r2, r1, [sp, #4]
 80076ba:	f8cd 8000 	str.w	r8, [sp]
 80076be:	2301      	movs	r3, #1
 80076c0:	2240      	movs	r2, #64	; 0x40
 80076c2:	2178      	movs	r1, #120	; 0x78
 80076c4:	4630      	mov	r0, r6
 80076c6:	b2e4      	uxtb	r4, r4
 80076c8:	f7f9 fc7a 	bl	8000fc0 <HAL_I2C_Mem_Write>
 80076cc:	2cb8      	cmp	r4, #184	; 0xb8
 80076ce:	f108 0880 	add.w	r8, r8, #128	; 0x80
 80076d2:	d1ca      	bne.n	800766a <ssd1306_UpdateScreen+0x16>
 80076d4:	b007      	add	sp, #28
 80076d6:	e8bd 83f0 	ldmia.w	sp!, {r4, r5, r6, r7, r8, r9, pc}
 80076da:	bf00      	nop
 80076dc:	20001740 	.word	0x20001740
 80076e0:	20000ec8 	.word	0x20000ec8

080076e4 <ssd1306_Init>:
 80076e4:	e92d 47f0 	stmdb	sp!, {r4, r5, r6, r7, r8, r9, sl, lr}
 80076e8:	4dbe      	ldr	r5, [pc, #760]	; (80079e4 <ssd1306_Init+0x300>)
 80076ea:	b086      	sub	sp, #24
 80076ec:	2401      	movs	r4, #1
 80076ee:	260a      	movs	r6, #10
 80076f0:	f10d 0717 	add.w	r7, sp, #23
 80076f4:	2064      	movs	r0, #100	; 0x64
 80076f6:	f7f9 f859 	bl	80007ac <HAL_Delay>
 80076fa:	f04f 0cae 	mov.w	ip, #174	; 0xae
 80076fe:	4623      	mov	r3, r4
 8007700:	e9cd 4601 	strd	r4, r6, [sp, #4]
 8007704:	4628      	mov	r0, r5
 8007706:	9700      	str	r7, [sp, #0]
 8007708:	2200      	movs	r2, #0
 800770a:	2178      	movs	r1, #120	; 0x78
 800770c:	f88d c017 	strb.w	ip, [sp, #23]
 8007710:	f04f 0920 	mov.w	r9, #32
 8007714:	f7f9 fc54 	bl	8000fc0 <HAL_I2C_Mem_Write>
 8007718:	4623      	mov	r3, r4
 800771a:	e9cd 4601 	strd	r4, r6, [sp, #4]
 800771e:	9700      	str	r7, [sp, #0]
 8007720:	4628      	mov	r0, r5
 8007722:	2200      	movs	r2, #0
 8007724:	2178      	movs	r1, #120	; 0x78
 8007726:	f04f 0a10 	mov.w	sl, #16
 800772a:	f88d 9017 	strb.w	r9, [sp, #23]
 800772e:	f7f9 fc47 	bl	8000fc0 <HAL_I2C_Mem_Write>
 8007732:	4623      	mov	r3, r4
 8007734:	e9cd 4601 	strd	r4, r6, [sp, #4]
 8007738:	9700      	str	r7, [sp, #0]
 800773a:	4628      	mov	r0, r5
 800773c:	2200      	movs	r2, #0
 800773e:	2178      	movs	r1, #120	; 0x78
 8007740:	f88d a017 	strb.w	sl, [sp, #23]
 8007744:	f7f9 fc3c 	bl	8000fc0 <HAL_I2C_Mem_Write>
 8007748:	2200      	movs	r2, #0
 800774a:	4690      	mov	r8, r2
 800774c:	4623      	mov	r3, r4
 800774e:	f04f 0cb0 	mov.w	ip, #176	; 0xb0
 8007752:	e9cd 4601 	strd	r4, r6, [sp, #4]
 8007756:	9700      	str	r7, [sp, #0]
 8007758:	4628      	mov	r0, r5
 800775a:	2178      	movs	r1, #120	; 0x78
 800775c:	f88d c017 	strb.w	ip, [sp, #23]
 8007760:	f7f9 fc2e 	bl	8000fc0 <HAL_I2C_Mem_Write>
 8007764:	f04f 0cc8 	mov.w	ip, #200	; 0xc8
 8007768:	4623      	mov	r3, r4
 800776a:	4642      	mov	r2, r8
 800776c:	e9cd 4601 	strd	r4, r6, [sp, #4]
 8007770:	9700      	str	r7, [sp, #0]
 8007772:	4628      	mov	r0, r5
 8007774:	2178      	movs	r1, #120	; 0x78
 8007776:	f88d c017 	strb.w	ip, [sp, #23]
 800777a:	f7f9 fc21 	bl	8000fc0 <HAL_I2C_Mem_Write>
 800777e:	4623      	mov	r3, r4
 8007780:	4642      	mov	r2, r8
 8007782:	e9cd 4601 	strd	r4, r6, [sp, #4]
 8007786:	9700      	str	r7, [sp, #0]
 8007788:	4628      	mov	r0, r5
 800778a:	2178      	movs	r1, #120	; 0x78
 800778c:	f88d 8017 	strb.w	r8, [sp, #23]
 8007790:	f7f9 fc16 	bl	8000fc0 <HAL_I2C_Mem_Write>
 8007794:	4623      	mov	r3, r4
 8007796:	4642      	mov	r2, r8
 8007798:	e9cd 4601 	strd	r4, r6, [sp, #4]
 800779c:	9700      	str	r7, [sp, #0]
 800779e:	4628      	mov	r0, r5
 80077a0:	2178      	movs	r1, #120	; 0x78
 80077a2:	f88d a017 	strb.w	sl, [sp, #23]
 80077a6:	f7f9 fc0b 	bl	8000fc0 <HAL_I2C_Mem_Write>
 80077aa:	4623      	mov	r3, r4
 80077ac:	4642      	mov	r2, r8
 80077ae:	f04f 0c40 	mov.w	ip, #64	; 0x40
 80077b2:	e9cd 4601 	strd	r4, r6, [sp, #4]
 80077b6:	9700      	str	r7, [sp, #0]
 80077b8:	4628      	mov	r0, r5
 80077ba:	2178      	movs	r1, #120	; 0x78
 80077bc:	f88d c017 	strb.w	ip, [sp, #23]
 80077c0:	f7f9 fbfe 	bl	8000fc0 <HAL_I2C_Mem_Write>
 80077c4:	4623      	mov	r3, r4
 80077c6:	4642      	mov	r2, r8
 80077c8:	f04f 0c81 	mov.w	ip, #129	; 0x81
 80077cc:	e9cd 4601 	strd	r4, r6, [sp, #4]
 80077d0:	9700      	str	r7, [sp, #0]
 80077d2:	4628      	mov	r0, r5
 80077d4:	2178      	movs	r1, #120	; 0x78
 80077d6:	f88d c017 	strb.w	ip, [sp, #23]
 80077da:	f7f9 fbf1 	bl	8000fc0 <HAL_I2C_Mem_Write>
 80077de:	4623      	mov	r3, r4
 80077e0:	4642      	mov	r2, r8
 80077e2:	f04f 0cff 	mov.w	ip, #255	; 0xff
 80077e6:	e9cd 4601 	strd	r4, r6, [sp, #4]
 80077ea:	9700      	str	r7, [sp, #0]
 80077ec:	4628      	mov	r0, r5
 80077ee:	2178      	movs	r1, #120	; 0x78
 80077f0:	f88d c017 	strb.w	ip, [sp, #23]
 80077f4:	f7f9 fbe4 	bl	8000fc0 <HAL_I2C_Mem_Write>
 80077f8:	4623      	mov	r3, r4
 80077fa:	4642      	mov	r2, r8
 80077fc:	f04f 0ca1 	mov.w	ip, #161	; 0xa1
 8007800:	e9cd 4601 	strd	r4, r6, [sp, #4]
 8007804:	9700      	str	r7, [sp, #0]
 8007806:	4628      	mov	r0, r5
 8007808:	2178      	movs	r1, #120	; 0x78
 800780a:	f88d c017 	strb.w	ip, [sp, #23]
 800780e:	f7f9 fbd7 	bl	8000fc0 <HAL_I2C_Mem_Write>
 8007812:	4623      	mov	r3, r4
 8007814:	4642      	mov	r2, r8
 8007816:	f04f 0ca6 	mov.w	ip, #166	; 0xa6
 800781a:	e9cd 4601 	strd	r4, r6, [sp, #4]
 800781e:	9700      	str	r7, [sp, #0]
 8007820:	4628      	mov	r0, r5
 8007822:	2178      	movs	r1, #120	; 0x78
 8007824:	f88d c017 	strb.w	ip, [sp, #23]
 8007828:	f7f9 fbca 	bl	8000fc0 <HAL_I2C_Mem_Write>
 800782c:	4623      	mov	r3, r4
 800782e:	4642      	mov	r2, r8
 8007830:	f04f 0ca8 	mov.w	ip, #168	; 0xa8
 8007834:	e9cd 4601 	strd	r4, r6, [sp, #4]
 8007838:	9700      	str	r7, [sp, #0]
 800783a:	4628      	mov	r0, r5
 800783c:	2178      	movs	r1, #120	; 0x78
 800783e:	f88d c017 	strb.w	ip, [sp, #23]
 8007842:	f7f9 fbbd 	bl	8000fc0 <HAL_I2C_Mem_Write>
 8007846:	4623      	mov	r3, r4
 8007848:	4642      	mov	r2, r8
 800784a:	f04f 0c3f 	mov.w	ip, #63	; 0x3f
 800784e:	e9cd 4601 	strd	r4, r6, [sp, #4]
 8007852:	9700      	str	r7, [sp, #0]
 8007854:	4628      	mov	r0, r5
 8007856:	2178      	movs	r1, #120	; 0x78
 8007858:	f88d c017 	strb.w	ip, [sp, #23]
 800785c:	f7f9 fbb0 	bl	8000fc0 <HAL_I2C_Mem_Write>
 8007860:	4623      	mov	r3, r4
 8007862:	4642      	mov	r2, r8
 8007864:	f04f 0ca4 	mov.w	ip, #164	; 0xa4
 8007868:	e9cd 4601 	strd	r4, r6, [sp, #4]
 800786c:	9700      	str	r7, [sp, #0]
 800786e:	4628      	mov	r0, r5
 8007870:	2178      	movs	r1, #120	; 0x78
 8007872:	f88d c017 	strb.w	ip, [sp, #23]
 8007876:	f7f9 fba3 	bl	8000fc0 <HAL_I2C_Mem_Write>
 800787a:	f04f 0cd3 	mov.w	ip, #211	; 0xd3
 800787e:	4623      	mov	r3, r4
 8007880:	4642      	mov	r2, r8
 8007882:	e9cd 4601 	strd	r4, r6, [sp, #4]
 8007886:	9700      	str	r7, [sp, #0]
 8007888:	4628      	mov	r0, r5
 800788a:	2178      	movs	r1, #120	; 0x78
 800788c:	f88d c017 	strb.w	ip, [sp, #23]
 8007890:	f7f9 fb96 	bl	8000fc0 <HAL_I2C_Mem_Write>
 8007894:	4623      	mov	r3, r4
 8007896:	4642      	mov	r2, r8
 8007898:	e9cd 4601 	strd	r4, r6, [sp, #4]
 800789c:	9700      	str	r7, [sp, #0]
 800789e:	4628      	mov	r0, r5
 80078a0:	2178      	movs	r1, #120	; 0x78
 80078a2:	f88d 8017 	strb.w	r8, [sp, #23]
 80078a6:	f7f9 fb8b 	bl	8000fc0 <HAL_I2C_Mem_Write>
 80078aa:	4623      	mov	r3, r4
 80078ac:	4642      	mov	r2, r8
 80078ae:	f04f 0cd5 	mov.w	ip, #213	; 0xd5
 80078b2:	e9cd 4601 	strd	r4, r6, [sp, #4]
 80078b6:	9700      	str	r7, [sp, #0]
 80078b8:	4628      	mov	r0, r5
 80078ba:	2178      	movs	r1, #120	; 0x78
 80078bc:	f88d c017 	strb.w	ip, [sp, #23]
 80078c0:	f7f9 fb7e 	bl	8000fc0 <HAL_I2C_Mem_Write>
 80078c4:	4623      	mov	r3, r4
 80078c6:	4642      	mov	r2, r8
 80078c8:	f04f 0cf0 	mov.w	ip, #240	; 0xf0
 80078cc:	e9cd 4601 	strd	r4, r6, [sp, #4]
 80078d0:	9700      	str	r7, [sp, #0]
 80078d2:	4628      	mov	r0, r5
 80078d4:	2178      	movs	r1, #120	; 0x78
 80078d6:	f88d c017 	strb.w	ip, [sp, #23]
 80078da:	f7f9 fb71 	bl	8000fc0 <HAL_I2C_Mem_Write>
 80078de:	4623      	mov	r3, r4
 80078e0:	4642      	mov	r2, r8
 80078e2:	f04f 0cd9 	mov.w	ip, #217	; 0xd9
 80078e6:	e9cd 4601 	strd	r4, r6, [sp, #4]
 80078ea:	9700      	str	r7, [sp, #0]
 80078ec:	4628      	mov	r0, r5
 80078ee:	2178      	movs	r1, #120	; 0x78
 80078f0:	f88d c017 	strb.w	ip, [sp, #23]
 80078f4:	f7f9 fb64 	bl	8000fc0 <HAL_I2C_Mem_Write>
 80078f8:	4623      	mov	r3, r4
 80078fa:	4642      	mov	r2, r8
 80078fc:	f04f 0c22 	mov.w	ip, #34	; 0x22
 8007900:	e9cd 4601 	strd	r4, r6, [sp, #4]
 8007904:	9700      	str	r7, [sp, #0]
 8007906:	4628      	mov	r0, r5
 8007908:	2178      	movs	r1, #120	; 0x78
 800790a:	f88d c017 	strb.w	ip, [sp, #23]
 800790e:	f7f9 fb57 	bl	8000fc0 <HAL_I2C_Mem_Write>
 8007912:	4623      	mov	r3, r4
 8007914:	4642      	mov	r2, r8
 8007916:	f04f 0cda 	mov.w	ip, #218	; 0xda
 800791a:	e9cd 4601 	strd	r4, r6, [sp, #4]
 800791e:	9700      	str	r7, [sp, #0]
 8007920:	4628      	mov	r0, r5
 8007922:	2178      	movs	r1, #120	; 0x78
 8007924:	f88d c017 	strb.w	ip, [sp, #23]
 8007928:	f7f9 fb4a 	bl	8000fc0 <HAL_I2C_Mem_Write>
 800792c:	4623      	mov	r3, r4
 800792e:	4642      	mov	r2, r8
 8007930:	f04f 0c12 	mov.w	ip, #18
 8007934:	e9cd 4601 	strd	r4, r6, [sp, #4]
 8007938:	9700      	str	r7, [sp, #0]
 800793a:	4628      	mov	r0, r5
 800793c:	2178      	movs	r1, #120	; 0x78
 800793e:	f88d c017 	strb.w	ip, [sp, #23]
 8007942:	f7f9 fb3d 	bl	8000fc0 <HAL_I2C_Mem_Write>
 8007946:	f04f 0cdb 	mov.w	ip, #219	; 0xdb
 800794a:	4623      	mov	r3, r4
 800794c:	4642      	mov	r2, r8
 800794e:	e9cd 4601 	strd	r4, r6, [sp, #4]
 8007952:	9700      	str	r7, [sp, #0]
 8007954:	4628      	mov	r0, r5
 8007956:	2178      	movs	r1, #120	; 0x78
 8007958:	f88d c017 	strb.w	ip, [sp, #23]
 800795c:	f7f9 fb30 	bl	8000fc0 <HAL_I2C_Mem_Write>
 8007960:	4623      	mov	r3, r4
 8007962:	4642      	mov	r2, r8
 8007964:	e9cd 7400 	strd	r7, r4, [sp]
 8007968:	9602      	str	r6, [sp, #8]
 800796a:	4628      	mov	r0, r5
 800796c:	2178      	movs	r1, #120	; 0x78
 800796e:	f88d 9017 	strb.w	r9, [sp, #23]
 8007972:	f7f9 fb25 	bl	8000fc0 <HAL_I2C_Mem_Write>
 8007976:	4623      	mov	r3, r4
 8007978:	4642      	mov	r2, r8
 800797a:	f04f 0c8d 	mov.w	ip, #141	; 0x8d
 800797e:	e9cd 4601 	strd	r4, r6, [sp, #4]
 8007982:	9700      	str	r7, [sp, #0]
 8007984:	4628      	mov	r0, r5
 8007986:	2178      	movs	r1, #120	; 0x78
 8007988:	f88d c017 	strb.w	ip, [sp, #23]
 800798c:	f7f9 fb18 	bl	8000fc0 <HAL_I2C_Mem_Write>
 8007990:	f04f 0c14 	mov.w	ip, #20
 8007994:	4623      	mov	r3, r4
 8007996:	4642      	mov	r2, r8
 8007998:	e9cd 4601 	strd	r4, r6, [sp, #4]
 800799c:	9700      	str	r7, [sp, #0]
 800799e:	4628      	mov	r0, r5
 80079a0:	2178      	movs	r1, #120	; 0x78
 80079a2:	f88d c017 	strb.w	ip, [sp, #23]
 80079a6:	f7f9 fb0b 	bl	8000fc0 <HAL_I2C_Mem_Write>
 80079aa:	4623      	mov	r3, r4
 80079ac:	4642      	mov	r2, r8
 80079ae:	e9cd 4601 	strd	r4, r6, [sp, #4]
 80079b2:	9700      	str	r7, [sp, #0]
 80079b4:	4628      	mov	r0, r5
 80079b6:	2178      	movs	r1, #120	; 0x78
 80079b8:	25af      	movs	r5, #175	; 0xaf
 80079ba:	f88d 5017 	strb.w	r5, [sp, #23]
 80079be:	f7f9 faff 	bl	8000fc0 <HAL_I2C_Mem_Write>
 80079c2:	4641      	mov	r1, r8
 80079c4:	f44f 6280 	mov.w	r2, #1024	; 0x400
 80079c8:	4807      	ldr	r0, [pc, #28]	; (80079e8 <ssd1306_Init+0x304>)
 80079ca:	f000 f96d 	bl	8007ca8 <memset>
 80079ce:	f7ff fe41 	bl	8007654 <ssd1306_UpdateScreen>
 80079d2:	4b06      	ldr	r3, [pc, #24]	; (80079ec <ssd1306_Init+0x308>)
 80079d4:	4620      	mov	r0, r4
 80079d6:	f8c3 8000 	str.w	r8, [r3]
 80079da:	715c      	strb	r4, [r3, #5]
 80079dc:	b006      	add	sp, #24
 80079de:	e8bd 87f0 	ldmia.w	sp!, {r4, r5, r6, r7, r8, r9, sl, pc}
 80079e2:	bf00      	nop
 80079e4:	20001740 	.word	0x20001740
 80079e8:	20000ec8 	.word	0x20000ec8
 80079ec:	20000ec0 	.word	0x20000ec0

080079f0 <ssd1306_DrawPixel>:
 80079f0:	0603      	lsls	r3, r0, #24
 80079f2:	d41a      	bmi.n	8007a2a <ssd1306_DrawPixel+0x3a>
 80079f4:	293f      	cmp	r1, #63	; 0x3f
 80079f6:	d818      	bhi.n	8007a2a <ssd1306_DrawPixel+0x3a>
 80079f8:	b410      	push	{r4}
 80079fa:	4b12      	ldr	r3, [pc, #72]	; (8007a44 <ssd1306_DrawPixel+0x54>)
 80079fc:	791b      	ldrb	r3, [r3, #4]
 80079fe:	b113      	cbz	r3, 8007a06 <ssd1306_DrawPixel+0x16>
 8007a00:	fab2 f282 	clz	r2, r2
 8007a04:	0952      	lsrs	r2, r2, #5
 8007a06:	08cb      	lsrs	r3, r1, #3
 8007a08:	2a01      	cmp	r2, #1
 8007a0a:	eb00 10c3 	add.w	r0, r0, r3, lsl #7
 8007a0e:	d00d      	beq.n	8007a2c <ssd1306_DrawPixel+0x3c>
 8007a10:	4c0d      	ldr	r4, [pc, #52]	; (8007a48 <ssd1306_DrawPixel+0x58>)
 8007a12:	f001 0107 	and.w	r1, r1, #7
 8007a16:	5c23      	ldrb	r3, [r4, r0]
 8007a18:	2201      	movs	r2, #1
 8007a1a:	fa02 f101 	lsl.w	r1, r2, r1
 8007a1e:	ea23 0101 	bic.w	r1, r3, r1
 8007a22:	5421      	strb	r1, [r4, r0]
 8007a24:	f85d 4b04 	ldr.w	r4, [sp], #4
 8007a28:	4770      	bx	lr
 8007a2a:	4770      	bx	lr
 8007a2c:	4b06      	ldr	r3, [pc, #24]	; (8007a48 <ssd1306_DrawPixel+0x58>)
 8007a2e:	f001 0107 	and.w	r1, r1, #7
 8007a32:	5c1c      	ldrb	r4, [r3, r0]
 8007a34:	fa02 f101 	lsl.w	r1, r2, r1
 8007a38:	4321      	orrs	r1, r4
 8007a3a:	5419      	strb	r1, [r3, r0]
 8007a3c:	f85d 4b04 	ldr.w	r4, [sp], #4
 8007a40:	4770      	bx	lr
 8007a42:	bf00      	nop
 8007a44:	20000ec0 	.word	0x20000ec0
 8007a48:	20000ec8 	.word	0x20000ec8

08007a4c <ssd1306_WriteChar>:
 8007a4c:	e92d 4ff0 	stmdb	sp!, {r4, r5, r6, r7, r8, r9, sl, fp, lr}
 8007a50:	b089      	sub	sp, #36	; 0x24
 8007a52:	ac08      	add	r4, sp, #32
 8007a54:	e904 0006 	stmdb	r4, {r1, r2}
 8007a58:	4964      	ldr	r1, [pc, #400]	; (8007bec <ssd1306_WriteChar+0x1a0>)
 8007a5a:	f89d 4018 	ldrb.w	r4, [sp, #24]
 8007a5e:	880d      	ldrh	r5, [r1, #0]
 8007a60:	192a      	adds	r2, r5, r4
 8007a62:	2a7f      	cmp	r2, #127	; 0x7f
 8007a64:	e9cd 0204 	strd	r0, r2, [sp, #16]
 8007a68:	dc63      	bgt.n	8007b32 <ssd1306_WriteChar+0xe6>
 8007a6a:	f89d 2019 	ldrb.w	r2, [sp, #25]
 8007a6e:	8849      	ldrh	r1, [r1, #2]
 8007a70:	1888      	adds	r0, r1, r2
 8007a72:	283f      	cmp	r0, #63	; 0x3f
 8007a74:	dc5d      	bgt.n	8007b32 <ssd1306_WriteChar+0xe6>
 8007a76:	2a00      	cmp	r2, #0
 8007a78:	d054      	beq.n	8007b24 <ssd1306_WriteChar+0xd8>
 8007a7a:	9804      	ldr	r0, [sp, #16]
 8007a7c:	9f07      	ldr	r7, [sp, #28]
 8007a7e:	f8df c170 	ldr.w	ip, [pc, #368]	; 8007bf0 <ssd1306_WriteChar+0x1a4>
 8007a82:	f1a0 0820 	sub.w	r8, r0, #32
 8007a86:	4859      	ldr	r0, [pc, #356]	; (8007bec <ssd1306_WriteChar+0x1a0>)
 8007a88:	fb02 f808 	mul.w	r8, r2, r8
 8007a8c:	7906      	ldrb	r6, [r0, #4]
 8007a8e:	f108 4000 	add.w	r0, r8, #2147483648	; 0x80000000
 8007a92:	2b00      	cmp	r3, #0
 8007a94:	f100 30ff 	add.w	r0, r0, #4294967295
 8007a98:	4442      	add	r2, r8
 8007a9a:	bf18      	it	ne
 8007a9c:	f04f 0901 	movne.w	r9, #1
 8007aa0:	f1a7 0802 	sub.w	r8, r7, #2
 8007aa4:	bf08      	it	eq
 8007aa6:	f04f 0900 	moveq.w	r9, #0
 8007aaa:	eb07 0740 	add.w	r7, r7, r0, lsl #1
 8007aae:	bf0c      	ite	eq
 8007ab0:	2001      	moveq	r0, #1
 8007ab2:	2000      	movne	r0, #0
 8007ab4:	2e00      	cmp	r6, #0
 8007ab6:	eb08 0842 	add.w	r8, r8, r2, lsl #1
 8007aba:	b2ed      	uxtb	r5, r5
 8007abc:	bf16      	itet	ne
 8007abe:	464a      	movne	r2, r9
 8007ac0:	4602      	moveq	r2, r0
 8007ac2:	4603      	movne	r3, r0
 8007ac4:	b2c9      	uxtb	r1, r1
 8007ac6:	9501      	str	r5, [sp, #4]
 8007ac8:	9202      	str	r2, [sp, #8]
 8007aca:	9303      	str	r3, [sp, #12]
 8007acc:	f04f 0901 	mov.w	r9, #1
 8007ad0:	f837 0f02 	ldrh.w	r0, [r7, #2]!
 8007ad4:	b314      	cbz	r4, 8007b1c <ssd1306_WriteChar+0xd0>
 8007ad6:	f001 0507 	and.w	r5, r1, #7
 8007ada:	fa09 f505 	lsl.w	r5, r9, r5
 8007ade:	b26d      	sxtb	r5, r5
 8007ae0:	08ca      	lsrs	r2, r1, #3
 8007ae2:	293f      	cmp	r1, #63	; 0x3f
 8007ae4:	9b01      	ldr	r3, [sp, #4]
 8007ae6:	ea6f 0e05 	mvn.w	lr, r5
 8007aea:	ea4f 12c2 	mov.w	r2, r2, lsl #7
 8007aee:	d815      	bhi.n	8007b1c <ssd1306_WriteChar+0xd0>
 8007af0:	9e03      	ldr	r6, [sp, #12]
 8007af2:	2e01      	cmp	r6, #1
 8007af4:	9e02      	ldr	r6, [sp, #8]
 8007af6:	d020      	beq.n	8007b3a <ssd1306_WriteChar+0xee>
 8007af8:	2e00      	cmp	r6, #0
 8007afa:	d13f      	bne.n	8007b7c <ssd1306_WriteChar+0x130>
 8007afc:	4635      	mov	r5, r6
 8007afe:	0618      	lsls	r0, r3, #24
 8007b00:	eb03 0602 	add.w	r6, r3, r2
 8007b04:	d405      	bmi.n	8007b12 <ssd1306_WriteChar+0xc6>
 8007b06:	f81c a006 	ldrb.w	sl, [ip, r6]
 8007b0a:	ea0e 0a0a 	and.w	sl, lr, sl
 8007b0e:	f80c a006 	strb.w	sl, [ip, r6]
 8007b12:	3501      	adds	r5, #1
 8007b14:	3301      	adds	r3, #1
 8007b16:	42ac      	cmp	r4, r5
 8007b18:	b2db      	uxtb	r3, r3
 8007b1a:	d1f0      	bne.n	8007afe <ssd1306_WriteChar+0xb2>
 8007b1c:	3101      	adds	r1, #1
 8007b1e:	4547      	cmp	r7, r8
 8007b20:	b2c9      	uxtb	r1, r1
 8007b22:	d1d5      	bne.n	8007ad0 <ssd1306_WriteChar+0x84>
 8007b24:	4b31      	ldr	r3, [pc, #196]	; (8007bec <ssd1306_WriteChar+0x1a0>)
 8007b26:	9a05      	ldr	r2, [sp, #20]
 8007b28:	9804      	ldr	r0, [sp, #16]
 8007b2a:	801a      	strh	r2, [r3, #0]
 8007b2c:	b009      	add	sp, #36	; 0x24
 8007b2e:	e8bd 8ff0 	ldmia.w	sp!, {r4, r5, r6, r7, r8, r9, sl, fp, pc}
 8007b32:	2000      	movs	r0, #0
 8007b34:	b009      	add	sp, #36	; 0x24
 8007b36:	e8bd 8ff0 	ldmia.w	sp!, {r4, r5, r6, r7, r8, r9, sl, fp, pc}
 8007b3a:	b176      	cbz	r6, 8007b5a <ssd1306_WriteChar+0x10e>
 8007b3c:	e03f      	b.n	8007bbe <ssd1306_WriteChar+0x172>
 8007b3e:	f013 0f80 	tst.w	r3, #128	; 0x80
 8007b42:	d105      	bne.n	8007b50 <ssd1306_WriteChar+0x104>
 8007b44:	f81c b00a 	ldrb.w	fp, [ip, sl]
 8007b48:	ea45 0b0b 	orr.w	fp, r5, fp
 8007b4c:	f80c b00a 	strb.w	fp, [ip, sl]
 8007b50:	3601      	adds	r6, #1
 8007b52:	3301      	adds	r3, #1
 8007b54:	42b4      	cmp	r4, r6
 8007b56:	b2db      	uxtb	r3, r3
 8007b58:	d0e0      	beq.n	8007b1c <ssd1306_WriteChar+0xd0>
 8007b5a:	fa00 fa06 	lsl.w	sl, r0, r6
 8007b5e:	f41a 4f00 	tst.w	sl, #32768	; 0x8000
 8007b62:	eb03 0a02 	add.w	sl, r3, r2
 8007b66:	d1ea      	bne.n	8007b3e <ssd1306_WriteChar+0xf2>
 8007b68:	f013 0f80 	tst.w	r3, #128	; 0x80
 8007b6c:	d1f0      	bne.n	8007b50 <ssd1306_WriteChar+0x104>
 8007b6e:	f81c b00a 	ldrb.w	fp, [ip, sl]
 8007b72:	ea0e 0b0b 	and.w	fp, lr, fp
 8007b76:	f80c b00a 	strb.w	fp, [ip, sl]
 8007b7a:	e7e9      	b.n	8007b50 <ssd1306_WriteChar+0x104>
 8007b7c:	2600      	movs	r6, #0
 8007b7e:	e00d      	b.n	8007b9c <ssd1306_WriteChar+0x150>
 8007b80:	f013 0f80 	tst.w	r3, #128	; 0x80
 8007b84:	d105      	bne.n	8007b92 <ssd1306_WriteChar+0x146>
 8007b86:	f81c b00a 	ldrb.w	fp, [ip, sl]
 8007b8a:	ea0e 0b0b 	and.w	fp, lr, fp
 8007b8e:	f80c b00a 	strb.w	fp, [ip, sl]
 8007b92:	3601      	adds	r6, #1
 8007b94:	3301      	adds	r3, #1
 8007b96:	42b4      	cmp	r4, r6
 8007b98:	b2db      	uxtb	r3, r3
 8007b9a:	d0bf      	beq.n	8007b1c <ssd1306_WriteChar+0xd0>
 8007b9c:	fa00 fa06 	lsl.w	sl, r0, r6
 8007ba0:	f41a 4f00 	tst.w	sl, #32768	; 0x8000
 8007ba4:	eb03 0a02 	add.w	sl, r3, r2
 8007ba8:	d1ea      	bne.n	8007b80 <ssd1306_WriteChar+0x134>
 8007baa:	f013 0f80 	tst.w	r3, #128	; 0x80
 8007bae:	d1f0      	bne.n	8007b92 <ssd1306_WriteChar+0x146>
 8007bb0:	f81c b00a 	ldrb.w	fp, [ip, sl]
 8007bb4:	ea45 0b0b 	orr.w	fp, r5, fp
 8007bb8:	f80c b00a 	strb.w	fp, [ip, sl]
 8007bbc:	e7e9      	b.n	8007b92 <ssd1306_WriteChar+0x146>
 8007bbe:	2600      	movs	r6, #0
 8007bc0:	0618      	lsls	r0, r3, #24
 8007bc2:	eb03 0e02 	add.w	lr, r3, r2
 8007bc6:	d405      	bmi.n	8007bd4 <ssd1306_WriteChar+0x188>
 8007bc8:	f81c a00e 	ldrb.w	sl, [ip, lr]
 8007bcc:	ea45 0a0a 	orr.w	sl, r5, sl
 8007bd0:	f80c a00e 	strb.w	sl, [ip, lr]
 8007bd4:	3601      	adds	r6, #1
 8007bd6:	3301      	adds	r3, #1
 8007bd8:	42a6      	cmp	r6, r4
 8007bda:	b2db      	uxtb	r3, r3
 8007bdc:	d1f0      	bne.n	8007bc0 <ssd1306_WriteChar+0x174>
 8007bde:	3101      	adds	r1, #1
 8007be0:	4547      	cmp	r7, r8
 8007be2:	b2c9      	uxtb	r1, r1
 8007be4:	f47f af74 	bne.w	8007ad0 <ssd1306_WriteChar+0x84>
 8007be8:	e79c      	b.n	8007b24 <ssd1306_WriteChar+0xd8>
 8007bea:	bf00      	nop
 8007bec:	20000ec0 	.word	0x20000ec0
 8007bf0:	20000ec8 	.word	0x20000ec8

08007bf4 <ssd1306_WriteString>:
 8007bf4:	b570      	push	{r4, r5, r6, lr}
 8007bf6:	4604      	mov	r4, r0
 8007bf8:	b082      	sub	sp, #8
 8007bfa:	7800      	ldrb	r0, [r0, #0]
 8007bfc:	466d      	mov	r5, sp
 8007bfe:	e885 0006 	stmia.w	r5, {r1, r2}
 8007c02:	b178      	cbz	r0, 8007c24 <ssd1306_WriteString+0x30>
 8007c04:	461e      	mov	r6, r3
 8007c06:	e002      	b.n	8007c0e <ssd1306_WriteString+0x1a>
 8007c08:	f814 0f01 	ldrb.w	r0, [r4, #1]!
 8007c0c:	b150      	cbz	r0, 8007c24 <ssd1306_WriteString+0x30>
 8007c0e:	e895 0006 	ldmia.w	r5, {r1, r2}
 8007c12:	4633      	mov	r3, r6
 8007c14:	f7ff ff1a 	bl	8007a4c <ssd1306_WriteChar>
 8007c18:	7822      	ldrb	r2, [r4, #0]
 8007c1a:	4290      	cmp	r0, r2
 8007c1c:	d0f4      	beq.n	8007c08 <ssd1306_WriteString+0x14>
 8007c1e:	4610      	mov	r0, r2
 8007c20:	b002      	add	sp, #8
 8007c22:	bd70      	pop	{r4, r5, r6, pc}
 8007c24:	2200      	movs	r2, #0
 8007c26:	4610      	mov	r0, r2
 8007c28:	b002      	add	sp, #8
 8007c2a:	bd70      	pop	{r4, r5, r6, pc}

08007c2c <ssd1306_SetCursor>:
 8007c2c:	4b01      	ldr	r3, [pc, #4]	; (8007c34 <ssd1306_SetCursor+0x8>)
 8007c2e:	8018      	strh	r0, [r3, #0]
 8007c30:	8059      	strh	r1, [r3, #2]
 8007c32:	4770      	bx	lr
 8007c34:	20000ec0 	.word	0x20000ec0

08007c38 <__errno>:
 8007c38:	4b01      	ldr	r3, [pc, #4]	; (8007c40 <__errno+0x8>)
 8007c3a:	6818      	ldr	r0, [r3, #0]
 8007c3c:	4770      	bx	lr
 8007c3e:	bf00      	nop
 8007c40:	20000028 	.word	0x20000028

08007c44 <__libc_init_array>:
 8007c44:	b570      	push	{r4, r5, r6, lr}
 8007c46:	4d0d      	ldr	r5, [pc, #52]	; (8007c7c <__libc_init_array+0x38>)
 8007c48:	4c0d      	ldr	r4, [pc, #52]	; (8007c80 <__libc_init_array+0x3c>)
 8007c4a:	1b64      	subs	r4, r4, r5
 8007c4c:	10a4      	asrs	r4, r4, #2
 8007c4e:	2600      	movs	r6, #0
 8007c50:	42a6      	cmp	r6, r4
 8007c52:	d109      	bne.n	8007c68 <__libc_init_array+0x24>
 8007c54:	4d0b      	ldr	r5, [pc, #44]	; (8007c84 <__libc_init_array+0x40>)
 8007c56:	4c0c      	ldr	r4, [pc, #48]	; (8007c88 <__libc_init_array+0x44>)
 8007c58:	f000 fc4e 	bl	80084f8 <_init>
 8007c5c:	1b64      	subs	r4, r4, r5
 8007c5e:	10a4      	asrs	r4, r4, #2
 8007c60:	2600      	movs	r6, #0
 8007c62:	42a6      	cmp	r6, r4
 8007c64:	d105      	bne.n	8007c72 <__libc_init_array+0x2e>
 8007c66:	bd70      	pop	{r4, r5, r6, pc}
 8007c68:	f855 3b04 	ldr.w	r3, [r5], #4
 8007c6c:	4798      	blx	r3
 8007c6e:	3601      	adds	r6, #1
 8007c70:	e7ee      	b.n	8007c50 <__libc_init_array+0xc>
 8007c72:	f855 3b04 	ldr.w	r3, [r5], #4
 8007c76:	4798      	blx	r3
 8007c78:	3601      	adds	r6, #1
 8007c7a:	e7f2      	b.n	8007c62 <__libc_init_array+0x1e>
 8007c7c:	08009060 	.word	0x08009060
 8007c80:	08009060 	.word	0x08009060
 8007c84:	08009060 	.word	0x08009060
 8007c88:	08009064 	.word	0x08009064

08007c8c <memcpy>:
 8007c8c:	440a      	add	r2, r1
 8007c8e:	4291      	cmp	r1, r2
 8007c90:	f100 33ff 	add.w	r3, r0, #4294967295
 8007c94:	d100      	bne.n	8007c98 <memcpy+0xc>
 8007c96:	4770      	bx	lr
 8007c98:	b510      	push	{r4, lr}
 8007c9a:	f811 4b01 	ldrb.w	r4, [r1], #1
 8007c9e:	f803 4f01 	strb.w	r4, [r3, #1]!
 8007ca2:	4291      	cmp	r1, r2
 8007ca4:	d1f9      	bne.n	8007c9a <memcpy+0xe>
 8007ca6:	bd10      	pop	{r4, pc}

08007ca8 <memset>:
 8007ca8:	4402      	add	r2, r0
 8007caa:	4603      	mov	r3, r0
 8007cac:	4293      	cmp	r3, r2
 8007cae:	d100      	bne.n	8007cb2 <memset+0xa>
 8007cb0:	4770      	bx	lr
 8007cb2:	f803 1b01 	strb.w	r1, [r3], #1
 8007cb6:	e7f9      	b.n	8007cac <memset+0x4>

08007cb8 <siprintf>:
 8007cb8:	b40e      	push	{r1, r2, r3}
 8007cba:	b500      	push	{lr}
 8007cbc:	b09c      	sub	sp, #112	; 0x70
 8007cbe:	ab1d      	add	r3, sp, #116	; 0x74
 8007cc0:	9002      	str	r0, [sp, #8]
 8007cc2:	9006      	str	r0, [sp, #24]
 8007cc4:	f06f 4100 	mvn.w	r1, #2147483648	; 0x80000000
 8007cc8:	4809      	ldr	r0, [pc, #36]	; (8007cf0 <siprintf+0x38>)
 8007cca:	9107      	str	r1, [sp, #28]
 8007ccc:	9104      	str	r1, [sp, #16]
 8007cce:	4909      	ldr	r1, [pc, #36]	; (8007cf4 <siprintf+0x3c>)
 8007cd0:	f853 2b04 	ldr.w	r2, [r3], #4
 8007cd4:	9105      	str	r1, [sp, #20]
 8007cd6:	6800      	ldr	r0, [r0, #0]
 8007cd8:	9301      	str	r3, [sp, #4]
 8007cda:	a902      	add	r1, sp, #8
 8007cdc:	f000 f868 	bl	8007db0 <_svfiprintf_r>
 8007ce0:	9b02      	ldr	r3, [sp, #8]
 8007ce2:	2200      	movs	r2, #0
 8007ce4:	701a      	strb	r2, [r3, #0]
 8007ce6:	b01c      	add	sp, #112	; 0x70
 8007ce8:	f85d eb04 	ldr.w	lr, [sp], #4
 8007cec:	b003      	add	sp, #12
 8007cee:	4770      	bx	lr
 8007cf0:	20000028 	.word	0x20000028
 8007cf4:	ffff0208 	.word	0xffff0208

08007cf8 <__ssputs_r>:
 8007cf8:	e92d 47f0 	stmdb	sp!, {r4, r5, r6, r7, r8, r9, sl, lr}
 8007cfc:	688e      	ldr	r6, [r1, #8]
 8007cfe:	429e      	cmp	r6, r3
 8007d00:	4682      	mov	sl, r0
 8007d02:	460c      	mov	r4, r1
 8007d04:	4690      	mov	r8, r2
 8007d06:	461f      	mov	r7, r3
 8007d08:	d838      	bhi.n	8007d7c <__ssputs_r+0x84>
 8007d0a:	898a      	ldrh	r2, [r1, #12]
 8007d0c:	f412 6f90 	tst.w	r2, #1152	; 0x480
 8007d10:	d032      	beq.n	8007d78 <__ssputs_r+0x80>
 8007d12:	6825      	ldr	r5, [r4, #0]
 8007d14:	6909      	ldr	r1, [r1, #16]
 8007d16:	eba5 0901 	sub.w	r9, r5, r1
 8007d1a:	6965      	ldr	r5, [r4, #20]
 8007d1c:	eb05 0545 	add.w	r5, r5, r5, lsl #1
 8007d20:	eb05 75d5 	add.w	r5, r5, r5, lsr #31
 8007d24:	3301      	adds	r3, #1
 8007d26:	444b      	add	r3, r9
 8007d28:	106d      	asrs	r5, r5, #1
 8007d2a:	429d      	cmp	r5, r3
 8007d2c:	bf38      	it	cc
 8007d2e:	461d      	movcc	r5, r3
 8007d30:	0553      	lsls	r3, r2, #21
 8007d32:	d531      	bpl.n	8007d98 <__ssputs_r+0xa0>
 8007d34:	4629      	mov	r1, r5
 8007d36:	f000 fb39 	bl	80083ac <_malloc_r>
 8007d3a:	4606      	mov	r6, r0
 8007d3c:	b950      	cbnz	r0, 8007d54 <__ssputs_r+0x5c>
 8007d3e:	230c      	movs	r3, #12
 8007d40:	f8ca 3000 	str.w	r3, [sl]
 8007d44:	89a3      	ldrh	r3, [r4, #12]
 8007d46:	f043 0340 	orr.w	r3, r3, #64	; 0x40
 8007d4a:	81a3      	strh	r3, [r4, #12]
 8007d4c:	f04f 30ff 	mov.w	r0, #4294967295
 8007d50:	e8bd 87f0 	ldmia.w	sp!, {r4, r5, r6, r7, r8, r9, sl, pc}
 8007d54:	6921      	ldr	r1, [r4, #16]
 8007d56:	464a      	mov	r2, r9
 8007d58:	f7ff ff98 	bl	8007c8c <memcpy>
 8007d5c:	89a3      	ldrh	r3, [r4, #12]
 8007d5e:	f423 6390 	bic.w	r3, r3, #1152	; 0x480
 8007d62:	f043 0380 	orr.w	r3, r3, #128	; 0x80
 8007d66:	81a3      	strh	r3, [r4, #12]
 8007d68:	6126      	str	r6, [r4, #16]
 8007d6a:	6165      	str	r5, [r4, #20]
 8007d6c:	444e      	add	r6, r9
 8007d6e:	eba5 0509 	sub.w	r5, r5, r9
 8007d72:	6026      	str	r6, [r4, #0]
 8007d74:	60a5      	str	r5, [r4, #8]
 8007d76:	463e      	mov	r6, r7
 8007d78:	42be      	cmp	r6, r7
 8007d7a:	d900      	bls.n	8007d7e <__ssputs_r+0x86>
 8007d7c:	463e      	mov	r6, r7
 8007d7e:	4632      	mov	r2, r6
 8007d80:	6820      	ldr	r0, [r4, #0]
 8007d82:	4641      	mov	r1, r8
 8007d84:	f000 faa8 	bl	80082d8 <memmove>
 8007d88:	68a3      	ldr	r3, [r4, #8]
 8007d8a:	6822      	ldr	r2, [r4, #0]
 8007d8c:	1b9b      	subs	r3, r3, r6
 8007d8e:	4432      	add	r2, r6
 8007d90:	60a3      	str	r3, [r4, #8]
 8007d92:	6022      	str	r2, [r4, #0]
 8007d94:	2000      	movs	r0, #0
 8007d96:	e7db      	b.n	8007d50 <__ssputs_r+0x58>
 8007d98:	462a      	mov	r2, r5
 8007d9a:	f000 fb61 	bl	8008460 <_realloc_r>
 8007d9e:	4606      	mov	r6, r0
 8007da0:	2800      	cmp	r0, #0
 8007da2:	d1e1      	bne.n	8007d68 <__ssputs_r+0x70>
 8007da4:	6921      	ldr	r1, [r4, #16]
 8007da6:	4650      	mov	r0, sl
 8007da8:	f000 fab0 	bl	800830c <_free_r>
 8007dac:	e7c7      	b.n	8007d3e <__ssputs_r+0x46>
	...

08007db0 <_svfiprintf_r>:
 8007db0:	e92d 4ff0 	stmdb	sp!, {r4, r5, r6, r7, r8, r9, sl, fp, lr}
 8007db4:	4698      	mov	r8, r3
 8007db6:	898b      	ldrh	r3, [r1, #12]
 8007db8:	061b      	lsls	r3, r3, #24
 8007dba:	b09d      	sub	sp, #116	; 0x74
 8007dbc:	4607      	mov	r7, r0
 8007dbe:	460d      	mov	r5, r1
 8007dc0:	4614      	mov	r4, r2
 8007dc2:	d50e      	bpl.n	8007de2 <_svfiprintf_r+0x32>
 8007dc4:	690b      	ldr	r3, [r1, #16]
 8007dc6:	b963      	cbnz	r3, 8007de2 <_svfiprintf_r+0x32>
 8007dc8:	2140      	movs	r1, #64	; 0x40
 8007dca:	f000 faef 	bl	80083ac <_malloc_r>
 8007dce:	6028      	str	r0, [r5, #0]
 8007dd0:	6128      	str	r0, [r5, #16]
 8007dd2:	b920      	cbnz	r0, 8007dde <_svfiprintf_r+0x2e>
 8007dd4:	230c      	movs	r3, #12
 8007dd6:	603b      	str	r3, [r7, #0]
 8007dd8:	f04f 30ff 	mov.w	r0, #4294967295
 8007ddc:	e0d1      	b.n	8007f82 <_svfiprintf_r+0x1d2>
 8007dde:	2340      	movs	r3, #64	; 0x40
 8007de0:	616b      	str	r3, [r5, #20]
 8007de2:	2300      	movs	r3, #0
 8007de4:	9309      	str	r3, [sp, #36]	; 0x24
 8007de6:	2320      	movs	r3, #32
 8007de8:	f88d 3029 	strb.w	r3, [sp, #41]	; 0x29
 8007dec:	f8cd 800c 	str.w	r8, [sp, #12]
 8007df0:	2330      	movs	r3, #48	; 0x30
 8007df2:	f8df 81a8 	ldr.w	r8, [pc, #424]	; 8007f9c <_svfiprintf_r+0x1ec>
 8007df6:	f88d 302a 	strb.w	r3, [sp, #42]	; 0x2a
 8007dfa:	f04f 0901 	mov.w	r9, #1
 8007dfe:	4623      	mov	r3, r4
 8007e00:	469a      	mov	sl, r3
 8007e02:	f813 2b01 	ldrb.w	r2, [r3], #1
 8007e06:	b10a      	cbz	r2, 8007e0c <_svfiprintf_r+0x5c>
 8007e08:	2a25      	cmp	r2, #37	; 0x25
 8007e0a:	d1f9      	bne.n	8007e00 <_svfiprintf_r+0x50>
 8007e0c:	ebba 0b04 	subs.w	fp, sl, r4
 8007e10:	d00b      	beq.n	8007e2a <_svfiprintf_r+0x7a>
 8007e12:	465b      	mov	r3, fp
 8007e14:	4622      	mov	r2, r4
 8007e16:	4629      	mov	r1, r5
 8007e18:	4638      	mov	r0, r7
 8007e1a:	f7ff ff6d 	bl	8007cf8 <__ssputs_r>
 8007e1e:	3001      	adds	r0, #1
 8007e20:	f000 80aa 	beq.w	8007f78 <_svfiprintf_r+0x1c8>
 8007e24:	9a09      	ldr	r2, [sp, #36]	; 0x24
 8007e26:	445a      	add	r2, fp
 8007e28:	9209      	str	r2, [sp, #36]	; 0x24
 8007e2a:	f89a 3000 	ldrb.w	r3, [sl]
 8007e2e:	2b00      	cmp	r3, #0
 8007e30:	f000 80a2 	beq.w	8007f78 <_svfiprintf_r+0x1c8>
 8007e34:	2300      	movs	r3, #0
 8007e36:	f04f 32ff 	mov.w	r2, #4294967295
 8007e3a:	e9cd 2305 	strd	r2, r3, [sp, #20]
 8007e3e:	f10a 0a01 	add.w	sl, sl, #1
 8007e42:	9304      	str	r3, [sp, #16]
 8007e44:	9307      	str	r3, [sp, #28]
 8007e46:	f88d 3053 	strb.w	r3, [sp, #83]	; 0x53
 8007e4a:	931a      	str	r3, [sp, #104]	; 0x68
 8007e4c:	4654      	mov	r4, sl
 8007e4e:	2205      	movs	r2, #5
 8007e50:	f814 1b01 	ldrb.w	r1, [r4], #1
 8007e54:	4851      	ldr	r0, [pc, #324]	; (8007f9c <_svfiprintf_r+0x1ec>)
 8007e56:	f7f8 f9bb 	bl	80001d0 <memchr>
 8007e5a:	9a04      	ldr	r2, [sp, #16]
 8007e5c:	b9d8      	cbnz	r0, 8007e96 <_svfiprintf_r+0xe6>
 8007e5e:	06d0      	lsls	r0, r2, #27
 8007e60:	bf44      	itt	mi
 8007e62:	2320      	movmi	r3, #32
 8007e64:	f88d 3053 	strbmi.w	r3, [sp, #83]	; 0x53
 8007e68:	0711      	lsls	r1, r2, #28
 8007e6a:	bf44      	itt	mi
 8007e6c:	232b      	movmi	r3, #43	; 0x2b
 8007e6e:	f88d 3053 	strbmi.w	r3, [sp, #83]	; 0x53
 8007e72:	f89a 3000 	ldrb.w	r3, [sl]
 8007e76:	2b2a      	cmp	r3, #42	; 0x2a
 8007e78:	d015      	beq.n	8007ea6 <_svfiprintf_r+0xf6>
 8007e7a:	9a07      	ldr	r2, [sp, #28]
 8007e7c:	4654      	mov	r4, sl
 8007e7e:	2000      	movs	r0, #0
 8007e80:	f04f 0c0a 	mov.w	ip, #10
 8007e84:	4621      	mov	r1, r4
 8007e86:	f811 3b01 	ldrb.w	r3, [r1], #1
 8007e8a:	3b30      	subs	r3, #48	; 0x30
 8007e8c:	2b09      	cmp	r3, #9
 8007e8e:	d94e      	bls.n	8007f2e <_svfiprintf_r+0x17e>
 8007e90:	b1b0      	cbz	r0, 8007ec0 <_svfiprintf_r+0x110>
 8007e92:	9207      	str	r2, [sp, #28]
 8007e94:	e014      	b.n	8007ec0 <_svfiprintf_r+0x110>
 8007e96:	eba0 0308 	sub.w	r3, r0, r8
 8007e9a:	fa09 f303 	lsl.w	r3, r9, r3
 8007e9e:	4313      	orrs	r3, r2
 8007ea0:	9304      	str	r3, [sp, #16]
 8007ea2:	46a2      	mov	sl, r4
 8007ea4:	e7d2      	b.n	8007e4c <_svfiprintf_r+0x9c>
 8007ea6:	9b03      	ldr	r3, [sp, #12]
 8007ea8:	1d19      	adds	r1, r3, #4
 8007eaa:	681b      	ldr	r3, [r3, #0]
 8007eac:	9103      	str	r1, [sp, #12]
 8007eae:	2b00      	cmp	r3, #0
 8007eb0:	bfbb      	ittet	lt
 8007eb2:	425b      	neglt	r3, r3
 8007eb4:	f042 0202 	orrlt.w	r2, r2, #2
 8007eb8:	9307      	strge	r3, [sp, #28]
 8007eba:	9307      	strlt	r3, [sp, #28]
 8007ebc:	bfb8      	it	lt
 8007ebe:	9204      	strlt	r2, [sp, #16]
 8007ec0:	7823      	ldrb	r3, [r4, #0]
 8007ec2:	2b2e      	cmp	r3, #46	; 0x2e
 8007ec4:	d10c      	bne.n	8007ee0 <_svfiprintf_r+0x130>
 8007ec6:	7863      	ldrb	r3, [r4, #1]
 8007ec8:	2b2a      	cmp	r3, #42	; 0x2a
 8007eca:	d135      	bne.n	8007f38 <_svfiprintf_r+0x188>
 8007ecc:	9b03      	ldr	r3, [sp, #12]
 8007ece:	1d1a      	adds	r2, r3, #4
 8007ed0:	681b      	ldr	r3, [r3, #0]
 8007ed2:	9203      	str	r2, [sp, #12]
 8007ed4:	2b00      	cmp	r3, #0
 8007ed6:	bfb8      	it	lt
 8007ed8:	f04f 33ff 	movlt.w	r3, #4294967295
 8007edc:	3402      	adds	r4, #2
 8007ede:	9305      	str	r3, [sp, #20]
 8007ee0:	f8df a0c8 	ldr.w	sl, [pc, #200]	; 8007fac <_svfiprintf_r+0x1fc>
 8007ee4:	7821      	ldrb	r1, [r4, #0]
 8007ee6:	2203      	movs	r2, #3
 8007ee8:	4650      	mov	r0, sl
 8007eea:	f7f8 f971 	bl	80001d0 <memchr>
 8007eee:	b140      	cbz	r0, 8007f02 <_svfiprintf_r+0x152>
 8007ef0:	2340      	movs	r3, #64	; 0x40
 8007ef2:	eba0 000a 	sub.w	r0, r0, sl
 8007ef6:	fa03 f000 	lsl.w	r0, r3, r0
 8007efa:	9b04      	ldr	r3, [sp, #16]
 8007efc:	4303      	orrs	r3, r0
 8007efe:	3401      	adds	r4, #1
 8007f00:	9304      	str	r3, [sp, #16]
 8007f02:	f814 1b01 	ldrb.w	r1, [r4], #1
 8007f06:	4826      	ldr	r0, [pc, #152]	; (8007fa0 <_svfiprintf_r+0x1f0>)
 8007f08:	f88d 1028 	strb.w	r1, [sp, #40]	; 0x28
 8007f0c:	2206      	movs	r2, #6
 8007f0e:	f7f8 f95f 	bl	80001d0 <memchr>
 8007f12:	2800      	cmp	r0, #0
 8007f14:	d038      	beq.n	8007f88 <_svfiprintf_r+0x1d8>
 8007f16:	4b23      	ldr	r3, [pc, #140]	; (8007fa4 <_svfiprintf_r+0x1f4>)
 8007f18:	bb1b      	cbnz	r3, 8007f62 <_svfiprintf_r+0x1b2>
 8007f1a:	9b03      	ldr	r3, [sp, #12]
 8007f1c:	3307      	adds	r3, #7
 8007f1e:	f023 0307 	bic.w	r3, r3, #7
 8007f22:	3308      	adds	r3, #8
 8007f24:	9303      	str	r3, [sp, #12]
 8007f26:	9b09      	ldr	r3, [sp, #36]	; 0x24
 8007f28:	4433      	add	r3, r6
 8007f2a:	9309      	str	r3, [sp, #36]	; 0x24
 8007f2c:	e767      	b.n	8007dfe <_svfiprintf_r+0x4e>
 8007f2e:	fb0c 3202 	mla	r2, ip, r2, r3
 8007f32:	460c      	mov	r4, r1
 8007f34:	2001      	movs	r0, #1
 8007f36:	e7a5      	b.n	8007e84 <_svfiprintf_r+0xd4>
 8007f38:	2300      	movs	r3, #0
 8007f3a:	3401      	adds	r4, #1
 8007f3c:	9305      	str	r3, [sp, #20]
 8007f3e:	4619      	mov	r1, r3
 8007f40:	f04f 0c0a 	mov.w	ip, #10
 8007f44:	4620      	mov	r0, r4
 8007f46:	f810 2b01 	ldrb.w	r2, [r0], #1
 8007f4a:	3a30      	subs	r2, #48	; 0x30
 8007f4c:	2a09      	cmp	r2, #9
 8007f4e:	d903      	bls.n	8007f58 <_svfiprintf_r+0x1a8>
 8007f50:	2b00      	cmp	r3, #0
 8007f52:	d0c5      	beq.n	8007ee0 <_svfiprintf_r+0x130>
 8007f54:	9105      	str	r1, [sp, #20]
 8007f56:	e7c3      	b.n	8007ee0 <_svfiprintf_r+0x130>
 8007f58:	fb0c 2101 	mla	r1, ip, r1, r2
 8007f5c:	4604      	mov	r4, r0
 8007f5e:	2301      	movs	r3, #1
 8007f60:	e7f0      	b.n	8007f44 <_svfiprintf_r+0x194>
 8007f62:	ab03      	add	r3, sp, #12
 8007f64:	9300      	str	r3, [sp, #0]
 8007f66:	462a      	mov	r2, r5
 8007f68:	4b0f      	ldr	r3, [pc, #60]	; (8007fa8 <_svfiprintf_r+0x1f8>)
 8007f6a:	a904      	add	r1, sp, #16
 8007f6c:	4638      	mov	r0, r7
 8007f6e:	f3af 8000 	nop.w
 8007f72:	1c42      	adds	r2, r0, #1
 8007f74:	4606      	mov	r6, r0
 8007f76:	d1d6      	bne.n	8007f26 <_svfiprintf_r+0x176>
 8007f78:	89ab      	ldrh	r3, [r5, #12]
 8007f7a:	065b      	lsls	r3, r3, #25
 8007f7c:	f53f af2c 	bmi.w	8007dd8 <_svfiprintf_r+0x28>
 8007f80:	9809      	ldr	r0, [sp, #36]	; 0x24
 8007f82:	b01d      	add	sp, #116	; 0x74
 8007f84:	e8bd 8ff0 	ldmia.w	sp!, {r4, r5, r6, r7, r8, r9, sl, fp, pc}
 8007f88:	ab03      	add	r3, sp, #12
 8007f8a:	9300      	str	r3, [sp, #0]
 8007f8c:	462a      	mov	r2, r5
 8007f8e:	4b06      	ldr	r3, [pc, #24]	; (8007fa8 <_svfiprintf_r+0x1f8>)
 8007f90:	a904      	add	r1, sp, #16
 8007f92:	4638      	mov	r0, r7
 8007f94:	f000 f87a 	bl	800808c <_printf_i>
 8007f98:	e7eb      	b.n	8007f72 <_svfiprintf_r+0x1c2>
 8007f9a:	bf00      	nop
 8007f9c:	0800902c 	.word	0x0800902c
 8007fa0:	08009036 	.word	0x08009036
 8007fa4:	00000000 	.word	0x00000000
 8007fa8:	08007cf9 	.word	0x08007cf9
 8007fac:	08009032 	.word	0x08009032

08007fb0 <_printf_common>:
 8007fb0:	e92d 47f0 	stmdb	sp!, {r4, r5, r6, r7, r8, r9, sl, lr}
 8007fb4:	4616      	mov	r6, r2
 8007fb6:	4699      	mov	r9, r3
 8007fb8:	688a      	ldr	r2, [r1, #8]
 8007fba:	690b      	ldr	r3, [r1, #16]
 8007fbc:	f8dd 8020 	ldr.w	r8, [sp, #32]
 8007fc0:	4293      	cmp	r3, r2
 8007fc2:	bfb8      	it	lt
 8007fc4:	4613      	movlt	r3, r2
 8007fc6:	6033      	str	r3, [r6, #0]
 8007fc8:	f891 2043 	ldrb.w	r2, [r1, #67]	; 0x43
 8007fcc:	4607      	mov	r7, r0
 8007fce:	460c      	mov	r4, r1
 8007fd0:	b10a      	cbz	r2, 8007fd6 <_printf_common+0x26>
 8007fd2:	3301      	adds	r3, #1
 8007fd4:	6033      	str	r3, [r6, #0]
 8007fd6:	6823      	ldr	r3, [r4, #0]
 8007fd8:	0699      	lsls	r1, r3, #26
 8007fda:	bf42      	ittt	mi
 8007fdc:	6833      	ldrmi	r3, [r6, #0]
 8007fde:	3302      	addmi	r3, #2
 8007fe0:	6033      	strmi	r3, [r6, #0]
 8007fe2:	6825      	ldr	r5, [r4, #0]
 8007fe4:	f015 0506 	ands.w	r5, r5, #6
 8007fe8:	d106      	bne.n	8007ff8 <_printf_common+0x48>
 8007fea:	f104 0a19 	add.w	sl, r4, #25
 8007fee:	68e3      	ldr	r3, [r4, #12]
 8007ff0:	6832      	ldr	r2, [r6, #0]
 8007ff2:	1a9b      	subs	r3, r3, r2
 8007ff4:	42ab      	cmp	r3, r5
 8007ff6:	dc26      	bgt.n	8008046 <_printf_common+0x96>
 8007ff8:	f894 2043 	ldrb.w	r2, [r4, #67]	; 0x43
 8007ffc:	1e13      	subs	r3, r2, #0
 8007ffe:	6822      	ldr	r2, [r4, #0]
 8008000:	bf18      	it	ne
 8008002:	2301      	movne	r3, #1
 8008004:	0692      	lsls	r2, r2, #26
 8008006:	d42b      	bmi.n	8008060 <_printf_common+0xb0>
 8008008:	f104 0243 	add.w	r2, r4, #67	; 0x43
 800800c:	4649      	mov	r1, r9
 800800e:	4638      	mov	r0, r7
 8008010:	47c0      	blx	r8
 8008012:	3001      	adds	r0, #1
 8008014:	d01e      	beq.n	8008054 <_printf_common+0xa4>
 8008016:	6823      	ldr	r3, [r4, #0]
 8008018:	68e5      	ldr	r5, [r4, #12]
 800801a:	6832      	ldr	r2, [r6, #0]
 800801c:	f003 0306 	and.w	r3, r3, #6
 8008020:	2b04      	cmp	r3, #4
 8008022:	bf08      	it	eq
 8008024:	1aad      	subeq	r5, r5, r2
 8008026:	68a3      	ldr	r3, [r4, #8]
 8008028:	6922      	ldr	r2, [r4, #16]
 800802a:	bf0c      	ite	eq
 800802c:	ea25 75e5 	biceq.w	r5, r5, r5, asr #31
 8008030:	2500      	movne	r5, #0
 8008032:	4293      	cmp	r3, r2
 8008034:	bfc4      	itt	gt
 8008036:	1a9b      	subgt	r3, r3, r2
 8008038:	18ed      	addgt	r5, r5, r3
 800803a:	2600      	movs	r6, #0
 800803c:	341a      	adds	r4, #26
 800803e:	42b5      	cmp	r5, r6
 8008040:	d11a      	bne.n	8008078 <_printf_common+0xc8>
 8008042:	2000      	movs	r0, #0
 8008044:	e008      	b.n	8008058 <_printf_common+0xa8>
 8008046:	2301      	movs	r3, #1
 8008048:	4652      	mov	r2, sl
 800804a:	4649      	mov	r1, r9
 800804c:	4638      	mov	r0, r7
 800804e:	47c0      	blx	r8
 8008050:	3001      	adds	r0, #1
 8008052:	d103      	bne.n	800805c <_printf_common+0xac>
 8008054:	f04f 30ff 	mov.w	r0, #4294967295
 8008058:	e8bd 87f0 	ldmia.w	sp!, {r4, r5, r6, r7, r8, r9, sl, pc}
 800805c:	3501      	adds	r5, #1
 800805e:	e7c6      	b.n	8007fee <_printf_common+0x3e>
 8008060:	18e1      	adds	r1, r4, r3
 8008062:	1c5a      	adds	r2, r3, #1
 8008064:	2030      	movs	r0, #48	; 0x30
 8008066:	f881 0043 	strb.w	r0, [r1, #67]	; 0x43
 800806a:	4422      	add	r2, r4
 800806c:	f894 1045 	ldrb.w	r1, [r4, #69]	; 0x45
 8008070:	f882 1043 	strb.w	r1, [r2, #67]	; 0x43
 8008074:	3302      	adds	r3, #2
 8008076:	e7c7      	b.n	8008008 <_printf_common+0x58>
 8008078:	2301      	movs	r3, #1
 800807a:	4622      	mov	r2, r4
 800807c:	4649      	mov	r1, r9
 800807e:	4638      	mov	r0, r7
 8008080:	47c0      	blx	r8
 8008082:	3001      	adds	r0, #1
 8008084:	d0e6      	beq.n	8008054 <_printf_common+0xa4>
 8008086:	3601      	adds	r6, #1
 8008088:	e7d9      	b.n	800803e <_printf_common+0x8e>
	...

0800808c <_printf_i>:
 800808c:	e92d 47ff 	stmdb	sp!, {r0, r1, r2, r3, r4, r5, r6, r7, r8, r9, sl, lr}
 8008090:	460c      	mov	r4, r1
 8008092:	4691      	mov	r9, r2
 8008094:	7e27      	ldrb	r7, [r4, #24]
 8008096:	990c      	ldr	r1, [sp, #48]	; 0x30
 8008098:	2f78      	cmp	r7, #120	; 0x78
 800809a:	4680      	mov	r8, r0
 800809c:	469a      	mov	sl, r3
 800809e:	f104 0243 	add.w	r2, r4, #67	; 0x43
 80080a2:	d807      	bhi.n	80080b4 <_printf_i+0x28>
 80080a4:	2f62      	cmp	r7, #98	; 0x62
 80080a6:	d80a      	bhi.n	80080be <_printf_i+0x32>
 80080a8:	2f00      	cmp	r7, #0
 80080aa:	f000 80d8 	beq.w	800825e <_printf_i+0x1d2>
 80080ae:	2f58      	cmp	r7, #88	; 0x58
 80080b0:	f000 80a3 	beq.w	80081fa <_printf_i+0x16e>
 80080b4:	f104 0642 	add.w	r6, r4, #66	; 0x42
 80080b8:	f884 7042 	strb.w	r7, [r4, #66]	; 0x42
 80080bc:	e03a      	b.n	8008134 <_printf_i+0xa8>
 80080be:	f1a7 0363 	sub.w	r3, r7, #99	; 0x63
 80080c2:	2b15      	cmp	r3, #21
 80080c4:	d8f6      	bhi.n	80080b4 <_printf_i+0x28>
 80080c6:	a001      	add	r0, pc, #4	; (adr r0, 80080cc <_printf_i+0x40>)
 80080c8:	f850 f023 	ldr.w	pc, [r0, r3, lsl #2]
 80080cc:	08008125 	.word	0x08008125
 80080d0:	08008139 	.word	0x08008139
 80080d4:	080080b5 	.word	0x080080b5
 80080d8:	080080b5 	.word	0x080080b5
 80080dc:	080080b5 	.word	0x080080b5
 80080e0:	080080b5 	.word	0x080080b5
 80080e4:	08008139 	.word	0x08008139
 80080e8:	080080b5 	.word	0x080080b5
 80080ec:	080080b5 	.word	0x080080b5
 80080f0:	080080b5 	.word	0x080080b5
 80080f4:	080080b5 	.word	0x080080b5
 80080f8:	08008245 	.word	0x08008245
 80080fc:	08008169 	.word	0x08008169
 8008100:	08008227 	.word	0x08008227
 8008104:	080080b5 	.word	0x080080b5
 8008108:	080080b5 	.word	0x080080b5
 800810c:	08008267 	.word	0x08008267
 8008110:	080080b5 	.word	0x080080b5
 8008114:	08008169 	.word	0x08008169
 8008118:	080080b5 	.word	0x080080b5
 800811c:	080080b5 	.word	0x080080b5
 8008120:	0800822f 	.word	0x0800822f
 8008124:	680b      	ldr	r3, [r1, #0]
 8008126:	1d1a      	adds	r2, r3, #4
 8008128:	681b      	ldr	r3, [r3, #0]
 800812a:	600a      	str	r2, [r1, #0]
 800812c:	f104 0642 	add.w	r6, r4, #66	; 0x42
 8008130:	f884 3042 	strb.w	r3, [r4, #66]	; 0x42
 8008134:	2301      	movs	r3, #1
 8008136:	e0a3      	b.n	8008280 <_printf_i+0x1f4>
 8008138:	6825      	ldr	r5, [r4, #0]
 800813a:	6808      	ldr	r0, [r1, #0]
 800813c:	062e      	lsls	r6, r5, #24
 800813e:	f100 0304 	add.w	r3, r0, #4
 8008142:	d50a      	bpl.n	800815a <_printf_i+0xce>
 8008144:	6805      	ldr	r5, [r0, #0]
 8008146:	600b      	str	r3, [r1, #0]
 8008148:	2d00      	cmp	r5, #0
 800814a:	da03      	bge.n	8008154 <_printf_i+0xc8>
 800814c:	232d      	movs	r3, #45	; 0x2d
 800814e:	426d      	negs	r5, r5
 8008150:	f884 3043 	strb.w	r3, [r4, #67]	; 0x43
 8008154:	485e      	ldr	r0, [pc, #376]	; (80082d0 <_printf_i+0x244>)
 8008156:	230a      	movs	r3, #10
 8008158:	e019      	b.n	800818e <_printf_i+0x102>
 800815a:	f015 0f40 	tst.w	r5, #64	; 0x40
 800815e:	6805      	ldr	r5, [r0, #0]
 8008160:	600b      	str	r3, [r1, #0]
 8008162:	bf18      	it	ne
 8008164:	b22d      	sxthne	r5, r5
 8008166:	e7ef      	b.n	8008148 <_printf_i+0xbc>
 8008168:	680b      	ldr	r3, [r1, #0]
 800816a:	6825      	ldr	r5, [r4, #0]
 800816c:	1d18      	adds	r0, r3, #4
 800816e:	6008      	str	r0, [r1, #0]
 8008170:	0628      	lsls	r0, r5, #24
 8008172:	d501      	bpl.n	8008178 <_printf_i+0xec>
 8008174:	681d      	ldr	r5, [r3, #0]
 8008176:	e002      	b.n	800817e <_printf_i+0xf2>
 8008178:	0669      	lsls	r1, r5, #25
 800817a:	d5fb      	bpl.n	8008174 <_printf_i+0xe8>
 800817c:	881d      	ldrh	r5, [r3, #0]
 800817e:	4854      	ldr	r0, [pc, #336]	; (80082d0 <_printf_i+0x244>)
 8008180:	2f6f      	cmp	r7, #111	; 0x6f
 8008182:	bf0c      	ite	eq
 8008184:	2308      	moveq	r3, #8
 8008186:	230a      	movne	r3, #10
 8008188:	2100      	movs	r1, #0
 800818a:	f884 1043 	strb.w	r1, [r4, #67]	; 0x43
 800818e:	6866      	ldr	r6, [r4, #4]
 8008190:	60a6      	str	r6, [r4, #8]
 8008192:	2e00      	cmp	r6, #0
 8008194:	bfa2      	ittt	ge
 8008196:	6821      	ldrge	r1, [r4, #0]
 8008198:	f021 0104 	bicge.w	r1, r1, #4
 800819c:	6021      	strge	r1, [r4, #0]
 800819e:	b90d      	cbnz	r5, 80081a4 <_printf_i+0x118>
 80081a0:	2e00      	cmp	r6, #0
 80081a2:	d04d      	beq.n	8008240 <_printf_i+0x1b4>
 80081a4:	4616      	mov	r6, r2
 80081a6:	fbb5 f1f3 	udiv	r1, r5, r3
 80081aa:	fb03 5711 	mls	r7, r3, r1, r5
 80081ae:	5dc7      	ldrb	r7, [r0, r7]
 80081b0:	f806 7d01 	strb.w	r7, [r6, #-1]!
 80081b4:	462f      	mov	r7, r5
 80081b6:	42bb      	cmp	r3, r7
 80081b8:	460d      	mov	r5, r1
 80081ba:	d9f4      	bls.n	80081a6 <_printf_i+0x11a>
 80081bc:	2b08      	cmp	r3, #8
 80081be:	d10b      	bne.n	80081d8 <_printf_i+0x14c>
 80081c0:	6823      	ldr	r3, [r4, #0]
 80081c2:	07df      	lsls	r7, r3, #31
 80081c4:	d508      	bpl.n	80081d8 <_printf_i+0x14c>
 80081c6:	6923      	ldr	r3, [r4, #16]
 80081c8:	6861      	ldr	r1, [r4, #4]
 80081ca:	4299      	cmp	r1, r3
 80081cc:	bfde      	ittt	le
 80081ce:	2330      	movle	r3, #48	; 0x30
 80081d0:	f806 3c01 	strble.w	r3, [r6, #-1]
 80081d4:	f106 36ff 	addle.w	r6, r6, #4294967295
 80081d8:	1b92      	subs	r2, r2, r6
 80081da:	6122      	str	r2, [r4, #16]
 80081dc:	f8cd a000 	str.w	sl, [sp]
 80081e0:	464b      	mov	r3, r9
 80081e2:	aa03      	add	r2, sp, #12
 80081e4:	4621      	mov	r1, r4
 80081e6:	4640      	mov	r0, r8
 80081e8:	f7ff fee2 	bl	8007fb0 <_printf_common>
 80081ec:	3001      	adds	r0, #1
 80081ee:	d14c      	bne.n	800828a <_printf_i+0x1fe>
 80081f0:	f04f 30ff 	mov.w	r0, #4294967295
 80081f4:	b004      	add	sp, #16
 80081f6:	e8bd 87f0 	ldmia.w	sp!, {r4, r5, r6, r7, r8, r9, sl, pc}
 80081fa:	4835      	ldr	r0, [pc, #212]	; (80082d0 <_printf_i+0x244>)
 80081fc:	f884 7045 	strb.w	r7, [r4, #69]	; 0x45
 8008200:	6823      	ldr	r3, [r4, #0]
 8008202:	680e      	ldr	r6, [r1, #0]
 8008204:	061f      	lsls	r7, r3, #24
 8008206:	f856 5b04 	ldr.w	r5, [r6], #4
 800820a:	600e      	str	r6, [r1, #0]
 800820c:	d514      	bpl.n	8008238 <_printf_i+0x1ac>
 800820e:	07d9      	lsls	r1, r3, #31
 8008210:	bf44      	itt	mi
 8008212:	f043 0320 	orrmi.w	r3, r3, #32
 8008216:	6023      	strmi	r3, [r4, #0]
 8008218:	b91d      	cbnz	r5, 8008222 <_printf_i+0x196>
 800821a:	6823      	ldr	r3, [r4, #0]
 800821c:	f023 0320 	bic.w	r3, r3, #32
 8008220:	6023      	str	r3, [r4, #0]
 8008222:	2310      	movs	r3, #16
 8008224:	e7b0      	b.n	8008188 <_printf_i+0xfc>
 8008226:	6823      	ldr	r3, [r4, #0]
 8008228:	f043 0320 	orr.w	r3, r3, #32
 800822c:	6023      	str	r3, [r4, #0]
 800822e:	2378      	movs	r3, #120	; 0x78
 8008230:	4828      	ldr	r0, [pc, #160]	; (80082d4 <_printf_i+0x248>)
 8008232:	f884 3045 	strb.w	r3, [r4, #69]	; 0x45
 8008236:	e7e3      	b.n	8008200 <_printf_i+0x174>
 8008238:	065e      	lsls	r6, r3, #25
 800823a:	bf48      	it	mi
 800823c:	b2ad      	uxthmi	r5, r5
 800823e:	e7e6      	b.n	800820e <_printf_i+0x182>
 8008240:	4616      	mov	r6, r2
 8008242:	e7bb      	b.n	80081bc <_printf_i+0x130>
 8008244:	680b      	ldr	r3, [r1, #0]
 8008246:	6826      	ldr	r6, [r4, #0]
 8008248:	6960      	ldr	r0, [r4, #20]
 800824a:	1d1d      	adds	r5, r3, #4
 800824c:	600d      	str	r5, [r1, #0]
 800824e:	0635      	lsls	r5, r6, #24
 8008250:	681b      	ldr	r3, [r3, #0]
 8008252:	d501      	bpl.n	8008258 <_printf_i+0x1cc>
 8008254:	6018      	str	r0, [r3, #0]
 8008256:	e002      	b.n	800825e <_printf_i+0x1d2>
 8008258:	0671      	lsls	r1, r6, #25
 800825a:	d5fb      	bpl.n	8008254 <_printf_i+0x1c8>
 800825c:	8018      	strh	r0, [r3, #0]
 800825e:	2300      	movs	r3, #0
 8008260:	6123      	str	r3, [r4, #16]
 8008262:	4616      	mov	r6, r2
 8008264:	e7ba      	b.n	80081dc <_printf_i+0x150>
 8008266:	680b      	ldr	r3, [r1, #0]
 8008268:	1d1a      	adds	r2, r3, #4
 800826a:	600a      	str	r2, [r1, #0]
 800826c:	681e      	ldr	r6, [r3, #0]
 800826e:	6862      	ldr	r2, [r4, #4]
 8008270:	2100      	movs	r1, #0
 8008272:	4630      	mov	r0, r6
 8008274:	f7f7 ffac 	bl	80001d0 <memchr>
 8008278:	b108      	cbz	r0, 800827e <_printf_i+0x1f2>
 800827a:	1b80      	subs	r0, r0, r6
 800827c:	6060      	str	r0, [r4, #4]
 800827e:	6863      	ldr	r3, [r4, #4]
 8008280:	6123      	str	r3, [r4, #16]
 8008282:	2300      	movs	r3, #0
 8008284:	f884 3043 	strb.w	r3, [r4, #67]	; 0x43
 8008288:	e7a8      	b.n	80081dc <_printf_i+0x150>
 800828a:	6923      	ldr	r3, [r4, #16]
 800828c:	4632      	mov	r2, r6
 800828e:	4649      	mov	r1, r9
 8008290:	4640      	mov	r0, r8
 8008292:	47d0      	blx	sl
 8008294:	3001      	adds	r0, #1
 8008296:	d0ab      	beq.n	80081f0 <_printf_i+0x164>
 8008298:	6823      	ldr	r3, [r4, #0]
 800829a:	079b      	lsls	r3, r3, #30
 800829c:	d413      	bmi.n	80082c6 <_printf_i+0x23a>
 800829e:	68e0      	ldr	r0, [r4, #12]
 80082a0:	9b03      	ldr	r3, [sp, #12]
 80082a2:	4298      	cmp	r0, r3
 80082a4:	bfb8      	it	lt
 80082a6:	4618      	movlt	r0, r3
 80082a8:	e7a4      	b.n	80081f4 <_printf_i+0x168>
 80082aa:	2301      	movs	r3, #1
 80082ac:	4632      	mov	r2, r6
 80082ae:	4649      	mov	r1, r9
 80082b0:	4640      	mov	r0, r8
 80082b2:	47d0      	blx	sl
 80082b4:	3001      	adds	r0, #1
 80082b6:	d09b      	beq.n	80081f0 <_printf_i+0x164>
 80082b8:	3501      	adds	r5, #1
 80082ba:	68e3      	ldr	r3, [r4, #12]
 80082bc:	9903      	ldr	r1, [sp, #12]
 80082be:	1a5b      	subs	r3, r3, r1
 80082c0:	42ab      	cmp	r3, r5
 80082c2:	dcf2      	bgt.n	80082aa <_printf_i+0x21e>
 80082c4:	e7eb      	b.n	800829e <_printf_i+0x212>
 80082c6:	2500      	movs	r5, #0
 80082c8:	f104 0619 	add.w	r6, r4, #25
 80082cc:	e7f5      	b.n	80082ba <_printf_i+0x22e>
 80082ce:	bf00      	nop
 80082d0:	0800903d 	.word	0x0800903d
 80082d4:	0800904e 	.word	0x0800904e

080082d8 <memmove>:
 80082d8:	4288      	cmp	r0, r1
 80082da:	b510      	push	{r4, lr}
 80082dc:	eb01 0402 	add.w	r4, r1, r2
 80082e0:	d902      	bls.n	80082e8 <memmove+0x10>
 80082e2:	4284      	cmp	r4, r0
 80082e4:	4623      	mov	r3, r4
 80082e6:	d807      	bhi.n	80082f8 <memmove+0x20>
 80082e8:	1e43      	subs	r3, r0, #1
 80082ea:	42a1      	cmp	r1, r4
 80082ec:	d008      	beq.n	8008300 <memmove+0x28>
 80082ee:	f811 2b01 	ldrb.w	r2, [r1], #1
 80082f2:	f803 2f01 	strb.w	r2, [r3, #1]!
 80082f6:	e7f8      	b.n	80082ea <memmove+0x12>
 80082f8:	4402      	add	r2, r0
 80082fa:	4601      	mov	r1, r0
 80082fc:	428a      	cmp	r2, r1
 80082fe:	d100      	bne.n	8008302 <memmove+0x2a>
 8008300:	bd10      	pop	{r4, pc}
 8008302:	f813 4d01 	ldrb.w	r4, [r3, #-1]!
 8008306:	f802 4d01 	strb.w	r4, [r2, #-1]!
 800830a:	e7f7      	b.n	80082fc <memmove+0x24>

0800830c <_free_r>:
 800830c:	b537      	push	{r0, r1, r2, r4, r5, lr}
 800830e:	2900      	cmp	r1, #0
 8008310:	d048      	beq.n	80083a4 <_free_r+0x98>
 8008312:	f851 3c04 	ldr.w	r3, [r1, #-4]
 8008316:	9001      	str	r0, [sp, #4]
 8008318:	2b00      	cmp	r3, #0
 800831a:	f1a1 0404 	sub.w	r4, r1, #4
 800831e:	bfb8      	it	lt
 8008320:	18e4      	addlt	r4, r4, r3
 8008322:	f000 f8d3 	bl	80084cc <__malloc_lock>
 8008326:	4a20      	ldr	r2, [pc, #128]	; (80083a8 <_free_r+0x9c>)
 8008328:	9801      	ldr	r0, [sp, #4]
 800832a:	6813      	ldr	r3, [r2, #0]
 800832c:	4615      	mov	r5, r2
 800832e:	b933      	cbnz	r3, 800833e <_free_r+0x32>
 8008330:	6063      	str	r3, [r4, #4]
 8008332:	6014      	str	r4, [r2, #0]
 8008334:	b003      	add	sp, #12
 8008336:	e8bd 4030 	ldmia.w	sp!, {r4, r5, lr}
 800833a:	f000 b8cd 	b.w	80084d8 <__malloc_unlock>
 800833e:	42a3      	cmp	r3, r4
 8008340:	d90b      	bls.n	800835a <_free_r+0x4e>
 8008342:	6821      	ldr	r1, [r4, #0]
 8008344:	1862      	adds	r2, r4, r1
 8008346:	4293      	cmp	r3, r2
 8008348:	bf04      	itt	eq
 800834a:	681a      	ldreq	r2, [r3, #0]
 800834c:	685b      	ldreq	r3, [r3, #4]
 800834e:	6063      	str	r3, [r4, #4]
 8008350:	bf04      	itt	eq
 8008352:	1852      	addeq	r2, r2, r1
 8008354:	6022      	streq	r2, [r4, #0]
 8008356:	602c      	str	r4, [r5, #0]
 8008358:	e7ec      	b.n	8008334 <_free_r+0x28>
 800835a:	461a      	mov	r2, r3
 800835c:	685b      	ldr	r3, [r3, #4]
 800835e:	b10b      	cbz	r3, 8008364 <_free_r+0x58>
 8008360:	42a3      	cmp	r3, r4
 8008362:	d9fa      	bls.n	800835a <_free_r+0x4e>
 8008364:	6811      	ldr	r1, [r2, #0]
 8008366:	1855      	adds	r5, r2, r1
 8008368:	42a5      	cmp	r5, r4
 800836a:	d10b      	bne.n	8008384 <_free_r+0x78>
 800836c:	6824      	ldr	r4, [r4, #0]
 800836e:	4421      	add	r1, r4
 8008370:	1854      	adds	r4, r2, r1
 8008372:	42a3      	cmp	r3, r4
 8008374:	6011      	str	r1, [r2, #0]
 8008376:	d1dd      	bne.n	8008334 <_free_r+0x28>
 8008378:	681c      	ldr	r4, [r3, #0]
 800837a:	685b      	ldr	r3, [r3, #4]
 800837c:	6053      	str	r3, [r2, #4]
 800837e:	4421      	add	r1, r4
 8008380:	6011      	str	r1, [r2, #0]
 8008382:	e7d7      	b.n	8008334 <_free_r+0x28>
 8008384:	d902      	bls.n	800838c <_free_r+0x80>
 8008386:	230c      	movs	r3, #12
 8008388:	6003      	str	r3, [r0, #0]
 800838a:	e7d3      	b.n	8008334 <_free_r+0x28>
 800838c:	6825      	ldr	r5, [r4, #0]
 800838e:	1961      	adds	r1, r4, r5
 8008390:	428b      	cmp	r3, r1
 8008392:	bf04      	itt	eq
 8008394:	6819      	ldreq	r1, [r3, #0]
 8008396:	685b      	ldreq	r3, [r3, #4]
 8008398:	6063      	str	r3, [r4, #4]
 800839a:	bf04      	itt	eq
 800839c:	1949      	addeq	r1, r1, r5
 800839e:	6021      	streq	r1, [r4, #0]
 80083a0:	6054      	str	r4, [r2, #4]
 80083a2:	e7c7      	b.n	8008334 <_free_r+0x28>
 80083a4:	b003      	add	sp, #12
 80083a6:	bd30      	pop	{r4, r5, pc}
 80083a8:	200012cc 	.word	0x200012cc

080083ac <_malloc_r>:
 80083ac:	b5f8      	push	{r3, r4, r5, r6, r7, lr}
 80083ae:	1ccd      	adds	r5, r1, #3
 80083b0:	f025 0503 	bic.w	r5, r5, #3
 80083b4:	3508      	adds	r5, #8
 80083b6:	2d0c      	cmp	r5, #12
 80083b8:	bf38      	it	cc
 80083ba:	250c      	movcc	r5, #12
 80083bc:	2d00      	cmp	r5, #0
 80083be:	4606      	mov	r6, r0
 80083c0:	db01      	blt.n	80083c6 <_malloc_r+0x1a>
 80083c2:	42a9      	cmp	r1, r5
 80083c4:	d903      	bls.n	80083ce <_malloc_r+0x22>
 80083c6:	230c      	movs	r3, #12
 80083c8:	6033      	str	r3, [r6, #0]
 80083ca:	2000      	movs	r0, #0
 80083cc:	bdf8      	pop	{r3, r4, r5, r6, r7, pc}
 80083ce:	f000 f87d 	bl	80084cc <__malloc_lock>
 80083d2:	4921      	ldr	r1, [pc, #132]	; (8008458 <_malloc_r+0xac>)
 80083d4:	680a      	ldr	r2, [r1, #0]
 80083d6:	4614      	mov	r4, r2
 80083d8:	b99c      	cbnz	r4, 8008402 <_malloc_r+0x56>
 80083da:	4f20      	ldr	r7, [pc, #128]	; (800845c <_malloc_r+0xb0>)
 80083dc:	683b      	ldr	r3, [r7, #0]
 80083de:	b923      	cbnz	r3, 80083ea <_malloc_r+0x3e>
 80083e0:	4621      	mov	r1, r4
 80083e2:	4630      	mov	r0, r6
 80083e4:	f000 f862 	bl	80084ac <_sbrk_r>
 80083e8:	6038      	str	r0, [r7, #0]
 80083ea:	4629      	mov	r1, r5
 80083ec:	4630      	mov	r0, r6
 80083ee:	f000 f85d 	bl	80084ac <_sbrk_r>
 80083f2:	1c43      	adds	r3, r0, #1
 80083f4:	d123      	bne.n	800843e <_malloc_r+0x92>
 80083f6:	230c      	movs	r3, #12
 80083f8:	6033      	str	r3, [r6, #0]
 80083fa:	4630      	mov	r0, r6
 80083fc:	f000 f86c 	bl	80084d8 <__malloc_unlock>
 8008400:	e7e3      	b.n	80083ca <_malloc_r+0x1e>
 8008402:	6823      	ldr	r3, [r4, #0]
 8008404:	1b5b      	subs	r3, r3, r5
 8008406:	d417      	bmi.n	8008438 <_malloc_r+0x8c>
 8008408:	2b0b      	cmp	r3, #11
 800840a:	d903      	bls.n	8008414 <_malloc_r+0x68>
 800840c:	6023      	str	r3, [r4, #0]
 800840e:	441c      	add	r4, r3
 8008410:	6025      	str	r5, [r4, #0]
 8008412:	e004      	b.n	800841e <_malloc_r+0x72>
 8008414:	6863      	ldr	r3, [r4, #4]
 8008416:	42a2      	cmp	r2, r4
 8008418:	bf0c      	ite	eq
 800841a:	600b      	streq	r3, [r1, #0]
 800841c:	6053      	strne	r3, [r2, #4]
 800841e:	4630      	mov	r0, r6
 8008420:	f000 f85a 	bl	80084d8 <__malloc_unlock>
 8008424:	f104 000b 	add.w	r0, r4, #11
 8008428:	1d23      	adds	r3, r4, #4
 800842a:	f020 0007 	bic.w	r0, r0, #7
 800842e:	1ac2      	subs	r2, r0, r3
 8008430:	d0cc      	beq.n	80083cc <_malloc_r+0x20>
 8008432:	1a1b      	subs	r3, r3, r0
 8008434:	50a3      	str	r3, [r4, r2]
 8008436:	e7c9      	b.n	80083cc <_malloc_r+0x20>
 8008438:	4622      	mov	r2, r4
 800843a:	6864      	ldr	r4, [r4, #4]
 800843c:	e7cc      	b.n	80083d8 <_malloc_r+0x2c>
 800843e:	1cc4      	adds	r4, r0, #3
 8008440:	f024 0403 	bic.w	r4, r4, #3
 8008444:	42a0      	cmp	r0, r4
 8008446:	d0e3      	beq.n	8008410 <_malloc_r+0x64>
 8008448:	1a21      	subs	r1, r4, r0
 800844a:	4630      	mov	r0, r6
 800844c:	f000 f82e 	bl	80084ac <_sbrk_r>
 8008450:	3001      	adds	r0, #1
 8008452:	d1dd      	bne.n	8008410 <_malloc_r+0x64>
 8008454:	e7cf      	b.n	80083f6 <_malloc_r+0x4a>
 8008456:	bf00      	nop
 8008458:	200012cc 	.word	0x200012cc
 800845c:	200012d0 	.word	0x200012d0

08008460 <_realloc_r>:
 8008460:	b5f8      	push	{r3, r4, r5, r6, r7, lr}
 8008462:	4607      	mov	r7, r0
 8008464:	4614      	mov	r4, r2
 8008466:	460e      	mov	r6, r1
 8008468:	b921      	cbnz	r1, 8008474 <_realloc_r+0x14>
 800846a:	e8bd 40f8 	ldmia.w	sp!, {r3, r4, r5, r6, r7, lr}
 800846e:	4611      	mov	r1, r2
 8008470:	f7ff bf9c 	b.w	80083ac <_malloc_r>
 8008474:	b922      	cbnz	r2, 8008480 <_realloc_r+0x20>
 8008476:	f7ff ff49 	bl	800830c <_free_r>
 800847a:	4625      	mov	r5, r4
 800847c:	4628      	mov	r0, r5
 800847e:	bdf8      	pop	{r3, r4, r5, r6, r7, pc}
 8008480:	f000 f830 	bl	80084e4 <_malloc_usable_size_r>
 8008484:	42a0      	cmp	r0, r4
 8008486:	d20f      	bcs.n	80084a8 <_realloc_r+0x48>
 8008488:	4621      	mov	r1, r4
 800848a:	4638      	mov	r0, r7
 800848c:	f7ff ff8e 	bl	80083ac <_malloc_r>
 8008490:	4605      	mov	r5, r0
 8008492:	2800      	cmp	r0, #0
 8008494:	d0f2      	beq.n	800847c <_realloc_r+0x1c>
 8008496:	4631      	mov	r1, r6
 8008498:	4622      	mov	r2, r4
 800849a:	f7ff fbf7 	bl	8007c8c <memcpy>
 800849e:	4631      	mov	r1, r6
 80084a0:	4638      	mov	r0, r7
 80084a2:	f7ff ff33 	bl	800830c <_free_r>
 80084a6:	e7e9      	b.n	800847c <_realloc_r+0x1c>
 80084a8:	4635      	mov	r5, r6
 80084aa:	e7e7      	b.n	800847c <_realloc_r+0x1c>

080084ac <_sbrk_r>:
 80084ac:	b538      	push	{r3, r4, r5, lr}
 80084ae:	4d06      	ldr	r5, [pc, #24]	; (80084c8 <_sbrk_r+0x1c>)
 80084b0:	2300      	movs	r3, #0
 80084b2:	4604      	mov	r4, r0
 80084b4:	4608      	mov	r0, r1
 80084b6:	602b      	str	r3, [r5, #0]
 80084b8:	f7fc fe0a 	bl	80050d0 <_sbrk>
 80084bc:	1c43      	adds	r3, r0, #1
 80084be:	d102      	bne.n	80084c6 <_sbrk_r+0x1a>
 80084c0:	682b      	ldr	r3, [r5, #0]
 80084c2:	b103      	cbz	r3, 80084c6 <_sbrk_r+0x1a>
 80084c4:	6023      	str	r3, [r4, #0]
 80084c6:	bd38      	pop	{r3, r4, r5, pc}
 80084c8:	20002e4c 	.word	0x20002e4c

080084cc <__malloc_lock>:
 80084cc:	4801      	ldr	r0, [pc, #4]	; (80084d4 <__malloc_lock+0x8>)
 80084ce:	f000 b811 	b.w	80084f4 <__retarget_lock_acquire_recursive>
 80084d2:	bf00      	nop
 80084d4:	20002e54 	.word	0x20002e54

080084d8 <__malloc_unlock>:
 80084d8:	4801      	ldr	r0, [pc, #4]	; (80084e0 <__malloc_unlock+0x8>)
 80084da:	f000 b80c 	b.w	80084f6 <__retarget_lock_release_recursive>
 80084de:	bf00      	nop
 80084e0:	20002e54 	.word	0x20002e54

080084e4 <_malloc_usable_size_r>:
 80084e4:	f851 3c04 	ldr.w	r3, [r1, #-4]
 80084e8:	1f18      	subs	r0, r3, #4
 80084ea:	2b00      	cmp	r3, #0
 80084ec:	bfbc      	itt	lt
 80084ee:	580b      	ldrlt	r3, [r1, r0]
 80084f0:	18c0      	addlt	r0, r0, r3
 80084f2:	4770      	bx	lr

080084f4 <__retarget_lock_acquire_recursive>:
 80084f4:	4770      	bx	lr

080084f6 <__retarget_lock_release_recursive>:
 80084f6:	4770      	bx	lr

080084f8 <_init>:
 80084f8:	b5f8      	push	{r3, r4, r5, r6, r7, lr}
 80084fa:	bf00      	nop
 80084fc:	bcf8      	pop	{r3, r4, r5, r6, r7}
 80084fe:	bc08      	pop	{r3}
 8008500:	469e      	mov	lr, r3
 8008502:	4770      	bx	lr

08008504 <_fini>:
 8008504:	b5f8      	push	{r3, r4, r5, r6, r7, lr}
 8008506:	bf00      	nop
 8008508:	bcf8      	pop	{r3, r4, r5, r6, r7}
 800850a:	bc08      	pop	{r3}
 800850c:	469e      	mov	lr, r3
 800850e:	4770      	bx	lr
